 AcpiExec

 Timestamp is 671e8483 (Sun Oct 27 19:20:51 2024)

 Preferred load address is 0000000180000000

 Start         Length     Name                   Class
 0001:00000000 00057ad5H .text$mn                CODE
 0002:00000000 00000008H .CRT$XCA                DATA
 0002:00000008 00000008H .CRT$XCZ                DATA
 0002:00000010 00000008H .CRT$XIA                DATA
 0002:00000018 00000008H .CRT$XIZ                DATA
 0002:00000020 00000008H .CRT$XPA                DATA
 0002:00000028 00000008H .CRT$XPZ                DATA
 0002:00000030 00000008H .CRT$XTA                DATA
 0002:00000038 00000008H .CRT$XTZ                DATA
 0002:00000040 0001f8a8H .rdata                  DATA
 0002:0001f8e8 00000048H .rdata$voltmd           DATA
 0002:0001f930 00000138H .rdata$zzzdbg           DATA
 0002:0001fa68 00004bbcH .xdata                  DATA
 0002:00024624 00000000H .edata                  DATA
 0003:00000000 000039e0H .data                   DATA
 0003:000039e0 00015868H .bss                    DATA
 0004:00000000 00003a68H .pdata                  DATA

  Address         Publics by Value              Rva+Base               Lib:Object

 0000:00000000       __AbsoluteZero             0000000000000000     <absolute>
 0000:00000000       ___safe_se_handler_count   0000000000000000     <absolute>
 0000:00000000       ___safe_se_handler_table   0000000000000000     <absolute>
 0000:00000000       __arm64x_extra_rfe_table   0000000000000000     <absolute>
 0000:00000000       __arm64x_extra_rfe_table_size 0000000000000000     <absolute>
 0000:00000000       __arm64x_native_entrypoint 0000000000000000     <absolute>
 0000:00000000       __arm64x_redirection_metadata 0000000000000000     <absolute>
 0000:00000000       __arm64x_redirection_metadata_count 0000000000000000     <absolute>
 0000:00000000       __dynamic_value_reloc_table 0000000000000000     <absolute>
 0000:00000000       __enclave_config           0000000000000000     <absolute>
 0000:00000000       __guard_check_icall_a64n_fptr 0000000000000000     <absolute>
 0000:00000000       __guard_eh_cont_count      0000000000000000     <absolute>
 0000:00000000       __guard_eh_cont_table      0000000000000000     <absolute>
 0000:00000000       __guard_fids_count         0000000000000000     <absolute>
 0000:00000000       __guard_fids_table         0000000000000000     <absolute>
 0000:00000000       __guard_flags              0000000000000000     <absolute>
 0000:00000000       __guard_iat_count          0000000000000000     <absolute>
 0000:00000000       __guard_iat_table          0000000000000000     <absolute>
 0000:00000000       __guard_longjmp_count      0000000000000000     <absolute>
 0000:00000000       __guard_longjmp_table      0000000000000000     <absolute>
 0000:00000000       __hybrid_auxiliary_delayload_iat 0000000000000000     <absolute>
 0000:00000000       __hybrid_auxiliary_delayload_iat_copy 0000000000000000     <absolute>
 0000:00000000       __hybrid_auxiliary_iat     0000000000000000     <absolute>
 0000:00000000       __hybrid_auxiliary_iat_copy 0000000000000000     <absolute>
 0000:00000000       __hybrid_code_map          0000000000000000     <absolute>
 0000:00000000       __hybrid_code_map_count    0000000000000000     <absolute>
 0000:00000000       __hybrid_image_info_bitfield 0000000000000000     <absolute>
 0000:00000000       __x64_code_ranges_to_entry_points 0000000000000000     <absolute>
 0000:00000000       __x64_code_ranges_to_entry_points_count 0000000000000000     <absolute>
 0000:00000000       __ImageBase                0000000180000000     <linker-defined>
 0001:00000000       AcGetAllTablesFromFile     0000000180001000 f   acfileio.obj
 0001:00000198       AcDeleteTableList          0000000180001198 f   acfileio.obj
 0001:000001c4       AcIsFileBinary             00000001800011c4 f   acfileio.obj
 0001:0000024c       AcValidateTableHeader      000000018000124c f   acfileio.obj
 0001:00000668       AcpiAhMatchHardwareId      0000000180001668 f   ahids.obj
 0001:000006b0       AcpiAhMatchUuid            00000001800016b0 f   ahuuids.obj
 0001:00000714       CmGetFileSize              0000000180001714 f   cmfsize.obj
 0001:000007a8       AcpiGetopt                 00000001800017a8 f   getopt.obj
 0001:00000aa4       AcpiGetoptArgument         0000000180001aa4 f   getopt.obj
 0001:00000b44       AcpiDbConvertToNode        0000000180001b44 f   dbcmds.obj
 0001:00000be4       AcpiDbDisplayTableInfo     0000000180001be4 f   dbcmds.obj
 0001:00000ccc       AcpiDbDisplayTemplate      0000000180001ccc f   dbcmds.obj
 0001:00000dc4       AcpiDbUnloadAcpiTable      0000000180001dc4 f   dbcmds.obj
 0001:00000e24       AcpiDbSendNotify           0000000180001e24 f   dbcmds.obj
 0001:00000e9c       AcpiDbDisplayInterfaces    0000000180001e9c f   dbcmds.obj
 0001:00000fa8       AcpiDbSleep                0000000180001fa8 f   dbcmds.obj
 0001:00001040       AcpiDbTrace                0000000180002040 f   dbcmds.obj
 0001:000011bc       AcpiDbDisplayLocks         00000001800021bc f   dbcmds.obj
 0001:00001224       AcpiDbDisplayResources     0000000180002224 f   dbcmds.obj
 0001:000012dc       AcpiDbGenerateGpe          00000001800022dc f   dbcmds.obj
 0001:00001364       AcpiDbGenerateSci          0000000180002364 f   dbcmds.obj
 0001:00001370       AcpiDbGenerateInterrupt    0000000180002370 f   dbcmds.obj
 0001:00001bdc       AcpiDbHexCharToValue       0000000180002bdc f   dbconvert.obj
 0001:00001c24       AcpiDbConvertToPackage     0000000180002c24 f   dbconvert.obj
 0001:00001ce8       AcpiDbConvertToObject      0000000180002ce8 f   dbconvert.obj
 0001:00001d60       AcpiDbEncodePldBuffer      0000000180002d60 f   dbconvert.obj
 0001:00001ebc       AcpiDbDumpPldBuffer        0000000180002ebc f   dbconvert.obj
 0001:00002390       AcpiDbDisplayGpes          0000000180003390 f   dbdisply.obj
 0001:00002664       AcpiDbDisplayHandlers      0000000180003664 f   dbdisply.obj
 0001:00002888       AcpiDbDisplayMethodInfo    0000000180003888 f   dbdisply.obj
 0001:000029ec       AcpiDbDecodeAndDisplayObject 00000001800039ec f   dbdisply.obj
 0001:00002cb0       AcpiDbDisplayResultObject  0000000180003cb0 f   dbdisply.obj
 0001:00002d00       AcpiDbDisplayArguments     0000000180003d00 f   dbdisply.obj
 0001:00002d38       AcpiDbDisplayLocals        0000000180003d38 f   dbdisply.obj
 0001:00002d70       AcpiDbDisplayResults       0000000180003d70 f   dbdisply.obj
 0001:00002e40       AcpiDbDisplayCallingTree   0000000180003e40 f   dbdisply.obj
 0001:00002ea8       AcpiDbDisplayObjectType    0000000180003ea8 f   dbdisply.obj
 0001:00002ff0       AcpiDbDisplayArgumentObject 0000000180003ff0 f   dbdisply.obj
 0001:000031b8       AcpiDbExecute              00000001800041b8 f   dbexec.obj
 0001:0000346c       AcpiDbCreateExecutionThread 000000018000446c f   dbexec.obj
 0001:00003570       AcpiDbCreateExecutionThreads 0000000180004570 f   dbexec.obj
 0001:00003884       AcpiDbDeleteObjects        0000000180004884 f   dbexec.obj
 0001:000038f0       AcpiDbGetCacheInfo         00000001800048f0 f   dbexec.obj
 0001:00003f54       AcpiDbCloseDebugFile       0000000180004f54 f   dbfileio.obj
 0001:00003f98       AcpiDbOpenDebugFile        0000000180004f98 f   dbfileio.obj
 0001:0000400c       AcpiDbLoadTables           000000018000500c f   dbfileio.obj
 0001:00004090       AcpiDbAddToHistory         0000000180005090 f   dbhistry.obj
 0001:000041d8       AcpiDbDisplayHistory       00000001800051d8 f   dbhistry.obj
 0001:00004274       AcpiDbGetFromHistory       0000000180005274 f   dbhistry.obj
 0001:000042a4       AcpiDbGetHistoryByIndex    00000001800052a4 f   dbhistry.obj
 0001:0000430c       AcpiDbCommandDispatch      000000018000530c f   dbinput.obj
 0001:00004b24       AcpiDbExecuteThread        0000000180005b24 f   dbinput.obj
 0001:00004b40       AcpiDbUserCommands         0000000180005b40 f   dbinput.obj
 0001:00004bcc       AcpiDbGetNextToken         0000000180005bcc f   dbinput.obj
 0001:00004fd4       AcpiDbSetMethodBreakpoint  0000000180005fd4 f   dbmethod.obj
 0001:0000504c       AcpiDbSetMethodCallBreakpoint 000000018000604c f   dbmethod.obj
 0001:0000506c       AcpiDbSetMethodData        000000018000606c f   dbmethod.obj
 0001:00005208       AcpiDbDisassembleMethod    0000000180006208 f   dbmethod.obj
 0001:00005378       AcpiDbDisassembleAml       0000000180006378 f   dbmethod.obj
 0001:000053c4       AcpiDbEvaluatePredefinedNames 00000001800063c4 f   dbmethod.obj
 0001:00005414       AcpiDbEvaluateAll          0000000180006414 f   dbmethod.obj
 0001:0000565c       AcpiDbSetScope             000000018000665c f   dbnames.obj
 0001:0000573c       AcpiDbDumpNamespace        000000018000673c f   dbnames.obj
 0001:000057f8       AcpiDbDumpNamespacePaths   00000001800067f8 f   dbnames.obj
 0001:00005850       AcpiDbDumpNamespaceByOwner 0000000180006850 f   dbnames.obj
 0001:000058f0       AcpiDbFindNameInNamespace  00000001800068f0 f   dbnames.obj
 0001:0000598c       AcpiDbCheckPredefinedNames 000000018000698c f   dbnames.obj
 0001:000059d8       AcpiDbDisplayObjects       00000001800069d8 f   dbnames.obj
 0001:00005b80       AcpiDbCheckIntegrity       0000000180006b80 f   dbnames.obj
 0001:00005bd4       AcpiDbFindReferences       0000000180006bd4 f   dbnames.obj
 0001:00005c18       AcpiDbGetBusInfo           0000000180006c18 f   dbnames.obj
 0001:00005c50       AcpiDbDisplayFields        0000000180006c50 f   dbnames.obj
 0001:00006390       AcpiDbDecodeInternalObject 0000000180007390 f   dbobject.obj
 0001:00006498       AcpiDbDisplayInternalObject 0000000180007498 f   dbobject.obj
 0001:000066bc       AcpiDbDecodeArguments      00000001800076bc f   dbobject.obj
 0001:000067a8       AcpiDbDecodeLocals         00000001800077a8 f   dbobject.obj
 0001:00006888       AcpiDbDumpMethodInfo       0000000180007888 f   dbobject.obj
 0001:00006984       AcpiDbDisplayStatistics    0000000180007984 f   dbstats.obj
 0001:0000715c       AcpiDbExecuteTest          000000018000815c f   dbtest.obj
 0001:00007e40       AcpiDbMatchArgument        0000000180008e40 f   dbutils.obj
 0001:00007eb8       AcpiDbSetOutputDestination 0000000180008eb8 f   dbutils.obj
 0001:00007ee8       AcpiDbDumpExternalObject   0000000180008ee8 f   dbutils.obj
 0001:00008090       AcpiDbPrepNamestring       0000000180009090 f   dbutils.obj
 0001:000080e0       AcpiDbLocalNsLookup        00000001800090e0 f   dbutils.obj
 0001:00008190       AcpiDbUint32ToHexString    0000000180009190 f   dbutils.obj
 0001:000081d0       AcpiInitializeDebugger     00000001800091d0 f   dbxface.obj
 0001:0000835c       AcpiTerminateDebugger      000000018000935c f   dbxface.obj
 0001:000083b8       AcpiSetDebuggerThreadId    00000001800093b8 f   dbxface.obj
 0001:000083c8       AcpiDbSingleStep           00000001800093c8 f   dbxface.obj
 0001:000085c4       AcpiDbSignalBreakPoint     00000001800095c4 f   dbxface.obj
 0001:000086d8       AcpiDmDisasmByteList       00000001800096d8 f   dmbuffer.obj
 0001:00008800       AcpiDmByteList             0000000180009800 f   dmbuffer.obj
 0001:000088bc       AcpiDmCheckForHardwareId   00000001800098bc f   dmbuffer.obj
 0001:0000893c       AcpiDmDecompressEisaId     000000018000993c f   dmbuffer.obj
 0001:00008988       AcpiDmIsUuidBuffer         0000000180009988 f   dmbuffer.obj
 0001:000089d4       AcpiDmIsUnicodeBuffer      00000001800099d4 f   dmbuffer.obj
 0001:00008a8c       AcpiDmIsStringBuffer       0000000180009a8c f   dmbuffer.obj
 0001:00008b04       AcpiDmIsPldBuffer          0000000180009b04 f   dmbuffer.obj
 0001:00009224       AcpiDmCheckForSymbolicOpcode 000000018000a224 f   dmcstyle.obj
 0001:00009744       AcpiDmCloseOperator        000000018000a744 f   dmcstyle.obj
 0001:00009a14       AcpiDmParseDeferredOps     000000018000aa14 f   dmdeferred.obj
 0001:00009d9c       AcpiDmDumpName             000000018000ad9c f   dmnames.obj
 0001:00009e10       AcpiPsDisplayObjectPathname 000000018000ae10 f   dmnames.obj
 0001:00009efc       AcpiDmNamestring           000000018000aefc f   dmnames.obj
 0001:00009f80       AcpiDmDisassembleOneOp     000000018000af80 f   dmopcode.obj
 0001:0000a4e4       AcpiDmMethodFlags          000000018000b4e4 f   dmopcode.obj
 0001:0000a550       AcpiDmDisplayTargetPathname 000000018000b550 f   dmopcode.obj
 0001:0000a610       AcpiDmNotifyDescription    000000018000b610 f   dmopcode.obj
 0001:0000a674       AcpiDmPredefinedDescription 000000018000b674 f   dmopcode.obj
 0001:0000a680       AcpiDmFieldPredefinedDescription 000000018000b680 f   dmopcode.obj
 0001:0000a68c       AcpiDmFieldFlags           000000018000b68c f   dmopcode.obj
 0001:0000a71c       AcpiDmAddressSpace         000000018000b71c f   dmopcode.obj
 0001:0000a764       AcpiDmRegionFlags          000000018000b764 f   dmopcode.obj
 0001:0000a79c       AcpiDmMatchOp              000000018000b79c f   dmopcode.obj
 0001:0000a910       AcpiDmDumpInteger8         000000018000b910 f   dmresrc.obj
 0001:0000a928       AcpiDmDumpInteger16        000000018000b928 f   dmresrc.obj
 0001:0000a940       AcpiDmDumpInteger32        000000018000b940 f   dmresrc.obj
 0001:0000a958       AcpiDmDumpInteger64        000000018000b958 f   dmresrc.obj
 0001:0000a978       AcpiDmResourceTemplate     000000018000b978 f   dmresrc.obj
 0001:0000ab24       AcpiDmIsResourceTemplate   000000018000bb24 f   dmresrc.obj
 0001:0000abb8       AcpiDmBitList              000000018000bbb8 f   dmresrc.obj
 0001:0000ac30       AcpiDmDescriptorName       000000018000bc30 f   dmresrc.obj
 0001:0000ac58       AcpiDmWordDescriptor       000000018000bc58 f   dmresrcl.obj
 0001:0000acd4       AcpiDmDwordDescriptor      000000018000bcd4 f   dmresrcl.obj
 0001:0000ad50       AcpiDmExtendedDescriptor   000000018000bd50 f   dmresrcl.obj
 0001:0000adc4       AcpiDmQwordDescriptor      000000018000bdc4 f   dmresrcl.obj
 0001:0000ae40       AcpiDmMemory24Descriptor   000000018000be40 f   dmresrcl.obj
 0001:0000aeb0       AcpiDmMemory32Descriptor   000000018000beb0 f   dmresrcl.obj
 0001:0000af20       AcpiDmFixedMemory32Descriptor 000000018000bf20 f   dmresrcl.obj
 0001:0000afac       AcpiDmGenericRegisterDescriptor 000000018000bfac f   dmresrcl.obj
 0001:0000b084       AcpiDmInterruptDescriptor  000000018000c084 f   dmresrcl.obj
 0001:0000b198       AcpiDmVendorLargeDescriptor 000000018000c198 f   dmresrcl.obj
 0001:0000b1b0       AcpiDmVendorCommon         000000018000c1b0 f   dmresrcl.obj
 0001:0000b748       AcpiDmGpioDescriptor       000000018000c748 f   dmresrcl2.obj
 0001:0000b774       AcpiDmPinFunctionDescriptor 000000018000c774 f   dmresrcl2.obj
 0001:0000b92c       AcpiDmPinConfigDescriptor  000000018000c92c f   dmresrcl2.obj
 0001:0000babc       AcpiDmPinGroupDescriptor   000000018000cabc f   dmresrcl2.obj
 0001:0000bc04       AcpiDmPinGroupFunctionDescriptor 000000018000cc04 f   dmresrcl2.obj
 0001:0000bd30       AcpiDmPinGroupConfigDescriptor 000000018000cd30 f   dmresrcl2.obj
 0001:0000be58       AcpiDmSerialBusDescriptor  000000018000ce58 f   dmresrcl2.obj
 0001:0000be70       AcpiDmClockInputDescriptor 000000018000ce70 f   dmresrcl2.obj
 0001:0000c9b0       AcpiDmIrqDescriptor        000000018000d9b0 f   dmresrcs.obj
 0001:0000ca7c       AcpiDmDmaDescriptor        000000018000da7c f   dmresrcs.obj
 0001:0000cb10       AcpiDmFixedDmaDescriptor   000000018000db10 f   dmresrcs.obj
 0001:0000cb84       AcpiDmIoDescriptor         000000018000db84 f   dmresrcs.obj
 0001:0000cc40       AcpiDmFixedIoDescriptor    000000018000dc40 f   dmresrcs.obj
 0001:0000ccbc       AcpiDmStartDependentDescriptor 000000018000dcbc f   dmresrcs.obj
 0001:0000cd38       AcpiDmEndDependentDescriptor 000000018000dd38 f   dmresrcs.obj
 0001:0000cd74       AcpiDmVendorSmallDescriptor 000000018000dd74 f   dmresrcs.obj
 0001:0000cd84       AcpiDmDecodeAttribute      000000018000dd84 f   dmutils.obj
 0001:0000ce2c       AcpiDmIndent               000000018000de2c f   dmutils.obj
 0001:0000ce5c       AcpiDmCommaIfListMember    000000018000de5c f   dmutils.obj
 0001:0000ced8       AcpiDmCommaIfFieldMember   000000018000ded8 f   dmutils.obj
 0001:0000cef4       AcpiDmDisassemble          000000018000def4 f   dmwalk.obj
 0001:0000cf60       AcpiDmWalkParseTree        000000018000df60 f   dmwalk.obj
 0001:0000d02c       AcpiDmListType             000000018000e02c f   dmwalk.obj
 0001:0000d0c0       AcpiDmEmitExternals        000000018000e0c0 f   dmwalk.obj
 0001:0000d0cc       AcpiDmEmitExternal         000000018000e0cc f   dmwalk.obj
 0001:0000d0d8       AcpiDmBlockType            000000018000e0d8 f   dmwalk.obj
 0001:0000da20       AcpiDsGetBufferFieldArguments 000000018000ea20 f   dsargs.obj
 0001:0000db3c       AcpiDsGetBankFieldArguments 000000018000eb3c f   dsargs.obj
 0001:0000dc58       AcpiDsGetRegionArguments   000000018000ec58 f   dsargs.obj
 0001:0000ddc0       AcpiDsGetBufferArguments   000000018000edc0 f   dsargs.obj
 0001:0000dedc       AcpiDsGetPackageArguments  000000018000eedc f   dsargs.obj
 0001:0000e1b0       AcpiDsExecBeginControlOp   000000018000f1b0 f   dscontrol.obj
 0001:0000e2dc       AcpiDsExecEndControlOp     000000018000f2dc f   dscontrol.obj
 0001:0000e68c       AcpiDsDumpMethodStack      000000018000f68c f   dsdebug.obj
 0001:0000eac0       AcpiDsCreateField          000000018000fac0 f   dsfield.obj
 0001:0000ec58       AcpiDsCreateBankField      000000018000fc58 f   dsfield.obj
 0001:0000ee04       AcpiDsCreateIndexField     000000018000fe04 f   dsfield.obj
 0001:0000ef80       AcpiDsCreateBufferField    000000018000ff80 f   dsfield.obj
 0001:0000f188       AcpiDsInitFieldObjects     0000000180010188 f   dsfield.obj
 0001:0000f6c4       AcpiDsInitializeObjects    00000001800106c4 f   dsinit.obj
 0001:0000fa28       AcpiDsAutoSerializeMethod  0000000180010a28 f   dsmethod.obj
 0001:0000fbb8       AcpiDsCallControlMethod    0000000180010bb8 f   dsmethod.obj
 0001:0000fef4       AcpiDsRestartControlMethod 0000000180010ef4 f   dsmethod.obj
 0001:0001008c       AcpiDsTerminateControlMethod 000000018001108c f   dsmethod.obj
 0001:00010260       AcpiDsBeginMethodExecution 0000000180011260 f   dsmethod.obj
 0001:000104c8       AcpiDsMethodError          00000001800114c8 f   dsmethod.obj
 0001:00010724       AcpiDsStoreObjectToLocal   0000000180011724 f   dsmthdat.obj
 0001:000109d0       AcpiDsMethodDataDeleteAll  00000001800119d0 f   dsmthdat.obj
 0001:00010b38       AcpiDsMethodDataGetValue   0000000180011b38 f   dsmthdat.obj
 0001:00010cb0       AcpiDsMethodDataInitArgs   0000000180011cb0 f   dsmthdat.obj
 0001:00010e04       AcpiDsMethodDataGetNode    0000000180011e04 f   dsmthdat.obj
 0001:00010f50       AcpiDsMethodDataInit       0000000180011f50 f   dsmthdat.obj
 0001:000111c0       AcpiDsBuildInternalObject  00000001800121c0 f   dsobject.obj
 0001:000113a4       AcpiDsBuildInternalBufferObj 00000001800123a4 f   dsobject.obj
 0001:00011558       AcpiDsInitObjectFromOp     0000000180012558 f   dsobject.obj
 0001:00011864       AcpiDsCreateNode           0000000180012864 f   dsobject.obj
 0001:0001196c       AcpiDsEvalBufferFieldOperands 000000018001296c f   dsopcode.obj
 0001:00011ad4       AcpiDsEvalRegionOperands   0000000180012ad4 f   dsopcode.obj
 0001:00011ca4       AcpiDsEvalTableRegionOperands 0000000180012ca4 f   dsopcode.obj
 0001:00011eb8       AcpiDsEvalDataObjectOperands 0000000180012eb8 f   dsopcode.obj
 0001:00012094       AcpiDsEvalBankFieldOperands 0000000180013094 f   dsopcode.obj
 0001:000121f8       AcpiDsInitializeRegion     00000001800131f8 f   dsopcode.obj
 0001:000124b4       AcpiDsBuildInternalPackageObj 00000001800134b4 f   dspkginit.obj
 0001:000128e0       AcpiDsInitPackageElement   00000001800138e0 f   dspkginit.obj
 0001:00012bc4       AcpiDsClearImplicitReturn  0000000180013bc4 f   dsutils.obj
 0001:00012c48       AcpiDsDoImplicitReturn     0000000180013c48 f   dsutils.obj
 0001:00012d10       AcpiDsIsResultUsed         0000000180013d10 f   dsutils.obj
 0001:00012fd0       AcpiDsDeleteResultIfNotUsed 0000000180013fd0 f   dsutils.obj
 0001:00013098       AcpiDsCreateOperand        0000000180014098 f   dsutils.obj
 0001:00013444       AcpiDsCreateOperands       0000000180014444 f   dsutils.obj
 0001:00013634       AcpiDsResolveOperands      0000000180014634 f   dsutils.obj
 0001:000136cc       AcpiDsClearOperands        00000001800146cc f   dsutils.obj
 0001:00013760       AcpiDsEvaluateNamePath     0000000180014760 f   dsutils.obj
 0001:000138bc       AcpiDsGetPredicateValue    00000001800148bc f   dswexec.obj
 0001:00013b10       AcpiDsExecBeginOp          0000000180014b10 f   dswexec.obj
 0001:00013d78       AcpiDsExecEndOp            0000000180014d78 f   dswexec.obj
 0001:00014530       AcpiDsInitCallbacks        0000000180015530 f   dswload.obj
 0001:000145b0       AcpiDsLoad1BeginOp         00000001800155b0 f   dswload.obj
 0001:00014b20       AcpiDsLoad1EndOp           0000000180015b20 f   dswload.obj
 0001:00014e44       AcpiDsLoad2BeginOp         0000000180015e44 f   dswload2.obj
 0001:00015428       AcpiDsLoad2EndOp           0000000180016428 f   dswload2.obj
 0001:00015a74       AcpiDsScopeStackPush       0000000180016a74 f   dswscope.obj
 0001:00015cc8       AcpiDsScopeStackPop        0000000180016cc8 f   dswscope.obj
 0001:00015e94       AcpiDsScopeStackClear      0000000180016e94 f   dswscope.obj
 0001:00015f28       AcpiDsObjStackPush         0000000180016f28 f   dswstate.obj
 0001:00016000       AcpiDsObjStackPop          0000000180017000 f   dswstate.obj
 0001:000160c0       AcpiDsCreateWalkState      00000001800170c0 f   dswstate.obj
 0001:000161d0       AcpiDsInitAmlWalk          00000001800171d0 f   dswstate.obj
 0001:000163a4       AcpiDsObjStackPopAndDelete 00000001800173a4 f   dswstate.obj
 0001:00016478       AcpiDsDeleteWalkState      0000000180017478 f   dswstate.obj
 0001:000165a0       AcpiDsPopWalkState         00000001800175a0 f   dswstate.obj
 0001:00016614       AcpiDsPushWalkState        0000000180017614 f   dswstate.obj
 0001:0001667c       AcpiDsGetCurrentWalkState  000000018001767c f   dswstate.obj
 0001:000166e4       AcpiDsResultPop            00000001800176e4 f   dswstate.obj
 0001:00016840       AcpiDsResultPush           0000000180017840 f   dswstate.obj
 0001:00016b78       AcpiEvInitializeEvents     0000000180017b78 f   evevent.obj
 0001:00016c60       AcpiEvInstallXruptHandlers 0000000180017c60 f   evevent.obj
 0001:00016d50       AcpiEvFixedEventDetect     0000000180017d50 f   evevent.obj
 0001:00016f40       AcpiEvInitGlobalLockHandler 0000000180017f40 f   evglock.obj
 0001:00017038       AcpiEvAcquireGlobalLock    0000000180018038 f   evglock.obj
 0001:00017208       AcpiEvReleaseGlobalLock    0000000180018208 f   evglock.obj
 0001:00017310       AcpiEvRemoveGlobalLockHandler 0000000180018310 f   evglock.obj
 0001:00017400       AcpiAcquireGlobalLockX8664 0000000180018400 f   evglock.obj
 0001:00017448       AcpiReleaseGlobalLockX8664 0000000180018448 f   evglock.obj
 0001:00017470       AcpiEvGpeDetect            0000000180018470 f   evgpe.obj
 0001:00017604       AcpiEvUpdateGpeEnableMask  0000000180018604 f   evgpe.obj
 0001:000176bc       AcpiEvEnableGpe            00000001800186bc f   evgpe.obj
 0001:00017720       AcpiEvMaskGpe              0000000180018720 f   evgpe.obj
 0001:00017830       AcpiEvAddGpeReference      0000000180018830 f   evgpe.obj
 0001:00017900       AcpiEvRemoveGpeReference   0000000180018900 f   evgpe.obj
 0001:000179b8       AcpiEvGetGpeEventInfo      00000001800189b8 f   evgpe.obj
 0001:00017a30       AcpiEvLowGetGpeInfo        0000000180018a30 f   evgpe.obj
 0001:00017a60       AcpiEvFinishGpe            0000000180018a60 f   evgpe.obj
 0001:00017a98       AcpiEvDetectGpe            0000000180018a98 f   evgpe.obj
 0001:00017c6c       AcpiEvGpeDispatch          0000000180018c6c f   evgpe.obj
 0001:00017f8c       AcpiEvCreateGpeBlock       0000000180018f8c f   evgpeblk.obj
 0001:0001822c       AcpiEvInitializeGpeBlock   000000018001922c f   evgpeblk.obj
 0001:00018390       AcpiEvDeleteGpeBlock       0000000180019390 f   evgpeblk.obj
 0001:00018828       AcpiEvGpeInitialize        0000000180019828 f   evgpeinit.obj
 0001:00018a98       AcpiEvUpdateGpes           0000000180019a98 f   evgpeinit.obj
 0001:00018b8c       AcpiEvMatchGpeMethod       0000000180019b8c f   evgpeinit.obj
 0001:00018dfc       AcpiEvWalkGpeList          0000000180019dfc f   evgpeutil.obj
 0001:00018ee8       AcpiEvGetGpeDevice         0000000180019ee8 f   evgpeutil.obj
 0001:00018f1c       AcpiEvGetGpeXruptBlock     0000000180019f1c f   evgpeutil.obj
 0001:000190a8       AcpiEvDeleteGpeXrupt       000000018001a0a8 f   evgpeutil.obj
 0001:000191c4       AcpiEvDeleteGpeHandlers    000000018001a1c4 f   evgpeutil.obj
 0001:000192dc       AcpiEvFindRegionHandler    000000018001a2dc f   evhandler.obj
 0001:000192fc       AcpiEvHasDefaultHandler    000000018001a2fc f   evhandler.obj
 0001:0001933c       AcpiEvInstallRegionHandlers 000000018001a33c f   evhandler.obj
 0001:00019404       AcpiEvInstallSpaceHandler  000000018001a404 f   evhandler.obj
 0001:0001985c       AcpiEvIsNotifyObject       000000018001a85c f   evmisc.obj
 0001:0001987c       AcpiEvQueueNotifyRequest   000000018001a87c f   evmisc.obj
 0001:00019a30       AcpiEvTerminate            000000018001aa30 f   evmisc.obj
 0001:00019bf0       AcpiEvInitializeOpRegions  000000018001abf0 f   evregion.obj
 0001:00019cc4       AcpiEvAddressSpaceDispatch 000000018001acc4 f   evregion.obj
 0001:0001a070       AcpiEvAttachRegion         000000018001b070 f   evregion.obj
 0001:0001a198       AcpiEvDetachRegion         000000018001b198 f   evregion.obj
 0001:0001a400       AcpiEvExecuteRegMethods    000000018001b400 f   evregion.obj
 0001:0001a57c       AcpiEvExecuteRegMethod     000000018001b57c f   evregion.obj
 0001:0001a900       AcpiEvSystemMemoryRegionSetup 000000018001b900 f   evrgnini.obj
 0001:0001aa2c       AcpiEvIoSpaceRegionSetup   000000018001ba2c f   evrgnini.obj
 0001:0001aaa8       AcpiEvPciConfigRegionSetup 000000018001baa8 f   evrgnini.obj
 0001:0001ad6c       AcpiEvCmosRegionSetup      000000018001bd6c f   evrgnini.obj
 0001:0001adc0       AcpiEvPciBarRegionSetup    000000018001bdc0 f   evrgnini.obj
 0001:0001ae14       AcpiEvDataTableRegionSetup 000000018001be14 f   evrgnini.obj
 0001:0001af08       AcpiEvDefaultRegionSetup   000000018001bf08 f   evrgnini.obj
 0001:0001af84       AcpiEvInitializeRegion     000000018001bf84 f   evrgnini.obj
 0001:0001b190       AcpiEvIsPciRootBridge      000000018001c190 f   evrgnini.obj
 0001:0001b268       AcpiEvGpeXruptHandler      000000018001c268 f   evsci.obj
 0001:0001b2cc       AcpiEvSciDispatch          000000018001c2cc f   evsci.obj
 0001:0001b33c       AcpiEvInstallSciHandler    000000018001c33c f   evsci.obj
 0001:0001b3ac       AcpiEvRemoveAllSciHandlers 000000018001c3ac f   evsci.obj
 0001:0001b4f4       AcpiInstallSciHandler      000000018001c4f4 f   evxface.obj
 0001:0001b660       AcpiRemoveSciHandler       000000018001c660 f   evxface.obj
 0001:0001b788       AcpiInstallGlobalEventHandler 000000018001c788 f   evxface.obj
 0001:0001b848       AcpiInstallFixedEventHandler 000000018001c848 f   evxface.obj
 0001:0001b9e8       AcpiRemoveFixedEventHandler 000000018001c9e8 f   evxface.obj
 0001:0001bb3c       AcpiInstallGpeHandler      000000018001cb3c f   evxface.obj
 0001:0001bbdc       AcpiInstallGpeRawHandler   000000018001cbdc f   evxface.obj
 0001:0001bc7c       AcpiRemoveGpeHandler       000000018001cc7c f   evxface.obj
 0001:0001be18       AcpiInstallNotifyHandler   000000018001ce18 f   evxface.obj
 0001:0001c038       AcpiRemoveNotifyHandler    000000018001d038 f   evxface.obj
 0001:0001c2c0       AcpiInstallExceptionHandler 000000018001d2c0 f   evxface.obj
 0001:0001c35c       AcpiAcquireGlobalLock      000000018001d35c f   evxface.obj
 0001:0001c3bc       AcpiReleaseGlobalLock      000000018001d3bc f   evxface.obj
 0001:0001c5d8       AcpiEnable                 000000018001d5d8 f   evxfevnt.obj
 0001:0001c714       AcpiDisable                000000018001d714 f   evxfevnt.obj
 0001:0001c83c       AcpiEnableEvent            000000018001d83c f   evxfevnt.obj
 0001:0001c964       AcpiDisableEvent           000000018001d964 f   evxfevnt.obj
 0001:0001ca8c       AcpiClearEvent             000000018001da8c f   evxfevnt.obj
 0001:0001cb40       AcpiGetEventStatus         000000018001db40 f   evxfevnt.obj
 0001:0001cc7c       AcpiUpdateAllGpes          000000018001dc7c f   evxfgpe.obj
 0001:0001cd3c       AcpiEnableGpe              000000018001dd3c f   evxfgpe.obj
 0001:0001ce00       AcpiDisableGpe             000000018001de00 f   evxfgpe.obj
 0001:0001ceb4       AcpiClearGpe               000000018001deb4 f   evxfgpe.obj
 0001:0001cf60       AcpiSetGpe                 000000018001df60 f   evxfgpe.obj
 0001:0001d03c       AcpiFinishGpe              000000018001e03c f   evxfgpe.obj
 0001:0001d0e8       AcpiMaskGpe                000000018001e0e8 f   evxfgpe.obj
 0001:0001d1a4       AcpiMarkGpeForWake         000000018001e1a4 f   evxfgpe.obj
 0001:0001d254       AcpiSetupGpeForWake        000000018001e254 f   evxfgpe.obj
 0001:0001d3f4       AcpiSetGpeWakeMask         000000018001e3f4 f   evxfgpe.obj
 0001:0001d504       AcpiGetGpeStatus           000000018001e504 f   evxfgpe.obj
 0001:0001d5c0       AcpiDispatchGpe            000000018001e5c0 f   evxfgpe.obj
 0001:0001d60c       AcpiDisableAllGpes         000000018001e60c f   evxfgpe.obj
 0001:0001d688       AcpiEnableAllRuntimeGpes   000000018001e688 f   evxfgpe.obj
 0001:0001d704       AcpiEnableAllWakeupGpes    000000018001e704 f   evxfgpe.obj
 0001:0001d780       AcpiAnyGpeStatusSet        000000018001e780 f   evxfgpe.obj
 0001:0001d7d8       AcpiGetGpeDevice           000000018001e7d8 f   evxfgpe.obj
 0001:0001d8d4       AcpiInstallGpeBlock        000000018001e8d4 f   evxfgpe.obj
 0001:0001da6c       AcpiRemoveGpeBlock         000000018001ea6c f   evxfgpe.obj
 0001:0001db6c       AcpiInstallAddressSpaceHandler 000000018001eb6c f   evxfregn.obj
 0001:0001db90       AcpiInstallAddressSpaceHandlerNo_Reg 000000018001eb90 f   evxfregn.obj
 0001:0001dbb4       AcpiExecuteRegMethods      000000018001ebb4 f   evxfregn.obj
 0001:0001dc78       AcpiRemoveAddressSpaceHandler 000000018001ec78 f   evxfregn.obj
 0001:0001dfc0       AcpiExConcatTemplate       000000018001efc0 f   exconcat.obj
 0001:0001e110       AcpiExDoConcatenate        000000018001f110 f   exconcat.obj
 0001:0001e458       AcpiExLoadOp               000000018001f458 f   exconfig.obj
 0001:0001e808       AcpiExLoadTableOp          000000018001f808 f   exconfig.obj
 0001:0001ea34       AcpiExUnloadTable          000000018001fa34 f   exconfig.obj
 0001:0001ec1c       AcpiExConvertToInteger     000000018001fc1c f   exconvrt.obj
 0001:0001edd0       AcpiExConvertToBuffer      000000018001fdd0 f   exconvrt.obj
 0001:0001ef18       AcpiExConvertToString      000000018001ff18 f   exconvrt.obj
 0001:0001f1b0       AcpiExConvertToTargetType  00000001800201b0 f   exconvrt.obj
 0001:0001f4c0       AcpiExCreateMutex          00000001800204c0 f   excreate.obj
 0001:0001f5a8       AcpiExCreateProcessor      00000001800205a8 f   excreate.obj
 0001:0001f684       AcpiExCreatePowerResource  0000000180020684 f   excreate.obj
 0001:0001f754       AcpiExCreateRegion         0000000180020754 f   excreate.obj
 0001:0001f92c       AcpiExCreateEvent          000000018002092c f   excreate.obj
 0001:0001f9f0       AcpiExCreateAlias          00000001800209f0 f   excreate.obj
 0001:0001fa8c       AcpiExCreateMethod         0000000180020a8c f   excreate.obj
 0001:0001fb88       AcpiExDoDebugObject        0000000180020b88 f   exdebug.obj
 0001:0001ffc8       AcpiExDumpOperand          0000000180020fc8 f   exdump.obj
 0001:00020578       AcpiExDumpOperands         0000000180021578 f   exdump.obj
 0001:000206b4       AcpiExDumpObjectDescriptor 00000001800216b4 f   exdump.obj
 0001:00020848       AcpiExDumpNamespaceNode    0000000180021848 f   exdump.obj
 0001:00021000       AcpiExGetProtocolBufferLength 0000000180022000 f   exfield.obj
 0001:00021050       AcpiExReadDataFromField    0000000180022050 f   exfield.obj
 0001:0002137c       AcpiExWriteDataToField     000000018002237c f   exfield.obj
 0001:00021680       AcpiExWriteWithUpdateRule  0000000180022680 f   exfldio.obj
 0001:00021878       AcpiExExtractFromField     0000000180022878 f   exfldio.obj
 0001:00021b20       AcpiExInsertIntoField      0000000180022b20 f   exfldio.obj
 0001:00021dbc       AcpiExAccessRegion         0000000180022dbc f   exfldio.obj
 0001:0002261c       AcpiExGetObjectReference   000000018002361c f   exmisc.obj
 0001:000227c4       AcpiExDoLogicalNumericOp   00000001800237c4 f   exmisc.obj
 0001:000228ac       AcpiExDoLogicalOp          00000001800238ac f   exmisc.obj
 0001:00022a94       AcpiExDoMathOp             0000000180023a94 f   exmisc.obj
 0001:00022b58       AcpiExAcquireMutex         0000000180023b58 f   exmutex.obj
 0001:00022d80       AcpiExAcquireMutexObject   0000000180023d80 f   exmutex.obj
 0001:00022e98       AcpiExReleaseMutex         0000000180023e98 f   exmutex.obj
 0001:0002314c       AcpiExReleaseMutexObject   000000018002414c f   exmutex.obj
 0001:00023264       AcpiExReleaseAllMutexes    0000000180024264 f   exmutex.obj
 0001:0002338c       AcpiExUnlinkMutex          000000018002438c f   exmutex.obj
 0001:000233e8       AcpiExGetNameString        00000001800243e8 f   exnames.obj
 0001:00023ad0       AcpiExOpcode_0A_0T_1R      0000000180024ad0 f   exoparg1.obj
 0001:00023bb4       AcpiExOpcode_1A_0T_0R      0000000180024bb4 f   exoparg1.obj
 0001:00023cc4       AcpiExOpcode_1A_0T_1R      0000000180024cc4 f   exoparg1.obj
 0001:000241d4       AcpiExOpcode_1A_1T_1R      00000001800251d4 f   exoparg1.obj
 0001:0002471c       AcpiExOpcode_2A_0T_0R      000000018002571c f   exoparg2.obj
 0001:0002480c       AcpiExOpcode_2A_0T_1R      000000018002580c f   exoparg2.obj
 0001:000249a0       AcpiExOpcode_2A_1T_1R      00000001800259a0 f   exoparg2.obj
 0001:00024d94       AcpiExOpcode_2A_2T_1R      0000000180025d94 f   exoparg2.obj
 0001:00024f00       AcpiExOpcode_3A_0T_0R      0000000180025f00 f   exoparg3.obj
 0001:000250a4       AcpiExOpcode_3A_1T_1R      00000001800260a4 f   exoparg3.obj
 0001:00025278       AcpiExOpcode_6A_0T_1R      0000000180026278 f   exoparg6.obj
 0001:000254ec       AcpiExPrepCommonFieldObject 00000001800264ec f   exprep.obj
 0001:000255c8       AcpiExPrepFieldValue       00000001800265c8 f   exprep.obj
 0001:00025b74       AcpiExSystemMemorySpaceHandler 0000000180026b74 f   exregion.obj
 0001:00025ea4       AcpiExSystemIoSpaceHandler 0000000180026ea4 f   exregion.obj
 0001:00025fb8       AcpiExPciConfigSpaceHandler 0000000180026fb8 f   exregion.obj
 0001:000260fc       AcpiExCmosSpaceHandler     00000001800270fc f   exregion.obj
 0001:00026150       AcpiExPciBarSpaceHandler   0000000180027150 f   exregion.obj
 0001:000261a4       AcpiExDataTableSpaceHandler 00000001800271a4 f   exregion.obj
 0001:0002626c       AcpiExResolveNodeToValue   000000018002726c f   exresnte.obj
 0001:00026680       AcpiExResolveToValue       0000000180027680 f   exresolv.obj
 0001:00026800       AcpiExResolveMultiple      0000000180027800 f   exresolv.obj
 0001:00026dd8       AcpiExResolveOperands      0000000180027dd8 f   exresop.obj
 0001:00027710       AcpiExReadSerialBus        0000000180028710 f   exserial.obj
 0001:000278c0       AcpiExWriteSerialBus       00000001800288c0 f   exserial.obj
 0001:00027acc       AcpiExReadGpio             0000000180028acc f   exserial.obj
 0001:00027ba8       AcpiExWriteGpio            0000000180028ba8 f   exserial.obj
 0001:00027cc4       AcpiExStore                0000000180028cc4 f   exstore.obj
 0001:00027f18       AcpiExStoreObjectToNode    0000000180028f18 f   exstore.obj
 0001:0002852c       AcpiExResolveObject        000000018002952c f   exstoren.obj
 0001:00028678       AcpiExStoreObjectToObject  0000000180029678 f   exstoren.obj
 0001:00028814       AcpiExStoreBufferToBuffer  0000000180029814 f   exstorob.obj
 0001:00028980       AcpiExStoreStringToString  0000000180029980 f   exstorob.obj
 0001:00028ac0       AcpiExSystemDoSleep        0000000180029ac0 f   exsystem.obj
 0001:00028af8       AcpiExSystemDoStall        0000000180029af8 f   exsystem.obj
 0001:00028b90       AcpiExSystemSignalEvent    0000000180029b90 f   exsystem.obj
 0001:00028c08       AcpiExSystemWaitEvent      0000000180029c08 f   exsystem.obj
 0001:00028c8c       AcpiExSystemResetEvent     0000000180029c8c f   exsystem.obj
 0001:00028cd8       AcpiExSystemWaitSemaphore  0000000180029cd8 f   exsystem.obj
 0001:00028df4       AcpiExSystemWaitMutex      0000000180029df4 f   exsystem.obj
 0001:00028f0c       AcpiExStartTraceMethod     0000000180029f0c f   extrace.obj
 0001:00028fe0       AcpiExStopTraceMethod      0000000180029fe0 f   extrace.obj
 0001:00029090       AcpiExStartTraceOpcode     000000018002a090 f   extrace.obj
 0001:000290cc       AcpiExStopTraceOpcode      000000018002a0cc f   extrace.obj
 0001:00029108       AcpiExTracePoint           000000018002a108 f   extrace.obj
 0001:00029290       AcpiExEnterInterpreter     000000018002a290 f   exutils.obj
 0001:00029324       AcpiExExitInterpreter      000000018002a324 f   exutils.obj
 0001:000293b8       AcpiExTruncateFor32bitTable 000000018002a3b8 f   exutils.obj
 0001:00029400       AcpiExAcquireGlobalLock    000000018002a400 f   exutils.obj
 0001:00029494       AcpiExReleaseGlobalLock    000000018002a494 f   exutils.obj
 0001:0002951c       AcpiExEisaIdToString       000000018002a51c f   exutils.obj
 0001:000295e4       AcpiExIntegerToString      000000018002a5e4 f   exutils.obj
 0001:00029650       AcpiExPciClsToString       000000018002a650 f   exutils.obj
 0001:000296d4       AcpiIsValidSpaceId         000000018002a6d4 f   exutils.obj
 0001:000297ac       AcpiHwSetMode              000000018002a7ac f   hwacpi.obj
 0001:00029a08       AcpiHwGetMode              000000018002aa08 f   hwacpi.obj
 0001:00029acc       AcpiHwExecuteSleepMethod   000000018002aacc f   hwesleep.obj
 0001:00029b80       AcpiHwExtendedSleep        000000018002ab80 f   hwesleep.obj
 0001:00029d18       AcpiHwExtendedWakePrep     000000018002ad18 f   hwesleep.obj
 0001:00029d8c       AcpiHwExtendedWake         000000018002ad8c f   hwesleep.obj
 0001:00029e30       AcpiHwGetGpeRegisterBit    000000018002ae30 f   hwgpe.obj
 0001:00029e4c       AcpiHwLowSetGpe            000000018002ae4c f   hwgpe.obj
 0001:00029f14       AcpiHwDisableGpeBlock      000000018002af14 f   hwgpe.obj
 0001:00029f58       AcpiHwClearGpe             000000018002af58 f   hwgpe.obj
 0001:00029f98       AcpiHwClearGpeBlock        000000018002af98 f   hwgpe.obj
 0001:00029fe0       AcpiHwGetGpeStatus         000000018002afe0 f   hwgpe.obj
 0001:0002a0ac       AcpiHwDisableAllGpes       000000018002b0ac f   hwgpe.obj
 0001:0002a110       AcpiHwEnableAllRuntimeGpes 000000018002b110 f   hwgpe.obj
 0001:0002a174       AcpiHwEnableAllWakeupGpes  000000018002b174 f   hwgpe.obj
 0001:0002a1d8       AcpiHwCheckAllGpes         000000018002b1d8 f   hwgpe.obj
 0001:0002a224       AcpiHwEnableRuntimeGpeBlock 000000018002b224 f   hwgpe.obj
 0001:0002a334       AcpiHwDerivePciId          000000018002b334 f   hwpci.obj
 0001:0002a718       AcpiHwValidateRegister     000000018002b718 f   hwregs.obj
 0001:0002a7dc       AcpiHwRead                 000000018002b7dc f   hwregs.obj
 0001:0002a994       AcpiHwWrite                000000018002b994 f   hwregs.obj
 0001:0002ab1c       AcpiHwGetBitRegisterInfo   000000018002bb1c f   hwregs.obj
 0001:0002ab64       AcpiHwWritePm1Control      000000018002bb64 f   hwregs.obj
 0001:0002abfc       AcpiHwRegisterRead         000000018002bbfc f   hwregs.obj
 0001:0002ad4c       AcpiHwRegisterWrite        000000018002bd4c f   hwregs.obj
 0001:0002aed0       AcpiHwClearAcpiStatus      000000018002bed0 f   hwregs.obj
 0001:0002b16c       AcpiHwLegacySleep          000000018002c16c f   hwsleep.obj
 0001:0002b3c8       AcpiHwLegacyWakePrep       000000018002c3c8 f   hwsleep.obj
 0001:0002b4a4       AcpiHwLegacyWake           000000018002c4a4 f   hwsleep.obj
 0001:0002b5cc       AcpiGetTimerResolution     000000018002c5cc f   hwtimer.obj
 0001:0002b658       AcpiGetTimer               000000018002c658 f   hwtimer.obj
 0001:0002b6fc       AcpiGetTimerDuration       000000018002c6fc f   hwtimer.obj
 0001:0002b808       AcpiHwReadPort             000000018002c808 f   hwvalid.obj
 0001:0002b8bc       AcpiHwWritePort            000000018002c8bc f   hwvalid.obj
 0001:0002bba8       AcpiReset                  000000018002cba8 f   hwxface.obj
 0001:0002bc54       AcpiRead                   000000018002cc54 f   hwxface.obj
 0001:0002bc60       AcpiWrite                  000000018002cc60 f   hwxface.obj
 0001:0002bc6c       AcpiReadBitRegister        000000018002cc6c f   hwxface.obj
 0001:0002bd98       AcpiWriteBitRegister       000000018002cd98 f   hwxface.obj
 0001:0002bf0c       AcpiGetSleepTypeData       000000018002cf0c f   hwxface.obj
 0001:0002c0f8       AcpiEnterSleepStatePrep    000000018002d0f8 f   hwxfsleep.obj
 0001:0002c260       AcpiEnterSleepState        000000018002d260 f   hwxfsleep.obj
 0001:0002c308       AcpiEnterSleepStateS4bios  000000018002d308 f   hwxfsleep.obj
 0001:0002c43c       AcpiLeaveSleepStatePrep    000000018002d43c f   hwxfsleep.obj
 0001:0002c4a0       AcpiLeaveSleepState        000000018002d4a0 f   hwxfsleep.obj
 0001:0002c504       AcpiSetFirmwareWakingVector 000000018002d504 f   hwxfsleep.obj
 0001:0002c620       AcpiNsRootInitialize       000000018002d620 f   nsaccess.obj
 0001:0002c924       AcpiNsLookup               000000018002d924 f   nsaccess.obj
 0001:0002d138       AcpiNsCreateNode           000000018002e138 f   nsalloc.obj
 0001:0002d1f8       AcpiNsDeleteNode           000000018002e1f8 f   nsalloc.obj
 0001:0002d2f4       AcpiNsRemoveNode           000000018002e2f4 f   nsalloc.obj
 0001:0002d37c       AcpiNsDeleteNamespaceSubtree 000000018002e37c f   nsalloc.obj
 0001:0002d454       AcpiNsDeleteNamespaceByOwner 000000018002e454 f   nsalloc.obj
 0001:0002d584       AcpiNsDeleteChildren       000000018002e584 f   nsalloc.obj
 0001:0002d630       AcpiNsInstallNode          000000018002e630 f   nsalloc.obj
 0001:0002d7a4       AcpiNsCheckArgumentCount   000000018002e7a4 f   nsarguments.obj
 0001:0002d8b4       AcpiNsCheckAcpiCompliance  000000018002e8b4 f   nsarguments.obj
 0001:0002d9ac       AcpiNsCheckArgumentTypes   000000018002e9ac f   nsarguments.obj
 0001:0002daac       AcpiNsConvertToInteger     000000018002eaac f   nsconvert.obj
 0001:0002db4c       AcpiNsConvertToString      000000018002eb4c f   nsconvert.obj
 0001:0002dc08       AcpiNsConvertToBuffer      000000018002ec08 f   nsconvert.obj
 0001:0002dcfc       AcpiNsConvertToUnicode     000000018002ecfc f   nsconvert.obj
 0001:0002dd90       AcpiNsConvertToResource    000000018002ed90 f   nsconvert.obj
 0001:0002ddfc       AcpiNsConvertToReference   000000018002edfc f   nsconvert.obj
 0001:0002df40       AcpiNsDumpEntry            000000018002ef40 f   nsdump.obj
 0001:0002df8c       AcpiNsPrintPathname        000000018002ef8c f   nsdump.obj
 0001:0002e05c       AcpiNsDumpOneObject        000000018002f05c f   nsdump.obj
 0001:0002e72c       AcpiNsDumpObjects          000000018002f72c f   nsdump.obj
 0001:0002e7f0       AcpiNsDumpObjectPaths      000000018002f7f0 f   nsdump.obj
 0001:0002e98c       AcpiNsEvaluate             000000018002f98c f   nseval.obj
 0001:0002ef2c       AcpiNsInitializeObjects    000000018002ff2c f   nsinit.obj
 0001:0002f120       AcpiNsInitializeDevices    0000000180030120 f   nsinit.obj
 0001:0002f454       AcpiNsInitOnePackage       0000000180030454 f   nsinit.obj
 0001:0002f82c       AcpiNsLoadTable            000000018003082c f   nsload.obj
 0001:0002f9c8       AcpiNsGetExternalPathname  00000001800309c8 f   nsnames.obj
 0001:0002fa34       AcpiNsBuildNormalizedPath  0000000180030a34 f   nsnames.obj
 0001:0002fb68       AcpiNsNormalizePathname    0000000180030b68 f   nsnames.obj
 0001:0002fc4c       AcpiNsGetNormalizedPathname 0000000180030c4c f   nsnames.obj
 0001:0002fd9c       AcpiNsBuildPrefixedPathname 0000000180030d9c f   nsnames.obj
 0001:0002fed0       AcpiNsHandleToName         0000000180030ed0 f   nsnames.obj
 0001:0002fff8       AcpiNsHandleToPathname     0000000180030ff8 f   nsnames.obj
 0001:00030144       AcpiNsGetPathnameLength    0000000180031144 f   nsnames.obj
 0001:0003018c       AcpiNsDetachObject         000000018003118c f   nsobject.obj
 0001:000302d8       AcpiNsAttachObject         00000001800312d8 f   nsobject.obj
 0001:00030504       AcpiNsGetAttachedObject    0000000180031504 f   nsobject.obj
 0001:000305c8       AcpiNsGetSecondaryObject   00000001800315c8 f   nsobject.obj
 0001:00030668       AcpiNsAttachData           0000000180031668 f   nsobject.obj
 0001:00030704       AcpiNsDetachData           0000000180031704 f   nsobject.obj
 0001:00030750       AcpiNsGetAttachedData      0000000180031750 f   nsobject.obj
 0001:0003077c       AcpiNsParseTable           000000018003177c f   nsparse.obj
 0001:00030838       AcpiNsExecuteTable         0000000180031838 f   nsparse.obj
 0001:00030af8       AcpiNsOneCompleteParse     0000000180031af8 f   nsparse.obj
 0001:00030d18       AcpiNsCheckReturnValue     0000000180031d18 f   nspredef.obj
 0001:00030e6c       AcpiNsCheckObjectType      0000000180031e6c f   nspredef.obj
 0001:00031088       AcpiNsCheckPackage         0000000180032088 f   nsprepkg.obj
 0001:00031ad0       AcpiNsSimpleRepair         0000000180032ad0 f   nsrepair.obj
 0001:00031dd0       AcpiNsWrapWithPackage      0000000180032dd0 f   nsrepair.obj
 0001:00031e8c       AcpiNsRepairNullElement    0000000180032e8c f   nsrepair.obj
 0001:00031f84       AcpiNsRemoveNullElements   0000000180032f84 f   nsrepair.obj
 0001:000320a4       AcpiNsComplexRepairs       00000001800330a4 f   nsrepair2.obj
 0001:00032b04       AcpiNsSearchAndEnter       0000000180033b04 f   nssearch.obj
 0001:00032e00       AcpiNsSearchOneScope       0000000180033e00 f   nssearch.obj
 0001:00033230       AcpiNsOpensScope           0000000180034230 f   nsutils.obj
 0001:0003327c       AcpiNsGetNodeUnlocked      000000018003427c f   nsutils.obj
 0001:00033438       AcpiNsGetNode              0000000180034438 f   nsutils.obj
 0001:000334f8       AcpiNsGetType              00000001800344f8 f   nsutils.obj
 0001:00033598       AcpiNsLocal                0000000180034598 f   nsutils.obj
 0001:00033650       AcpiNsPrintNodePathname    0000000180034650 f   nsutils.obj
 0001:000336d4       AcpiNsBuildInternalName    00000001800346d4 f   nsutils.obj
 0001:000338c0       AcpiNsGetInternalNameLength 00000001800348c0 f   nsutils.obj
 0001:00033948       AcpiNsInternalizeName      0000000180034948 f   nsutils.obj
 0001:00033a7c       AcpiNsExternalizeName      0000000180034a7c f   nsutils.obj
 0001:00033cb8       AcpiNsValidateHandle       0000000180034cb8 f   nsutils.obj
 0001:00033cf4       AcpiNsTerminate            0000000180034cf4 f   nsutils.obj
 0001:00033db4       AcpiNsWalkNamespace        0000000180034db4 f   nswalk.obj
 0001:0003403c       AcpiNsGetNextNode          000000018003503c f   nswalk.obj
 0001:00034074       AcpiNsGetNextNodeTyped     0000000180035074 f   nswalk.obj
 0001:000340d0       AcpiWalkNamespace          00000001800350d0 f   nsxfeval.obj
 0001:0003421c       AcpiGetDevices             000000018003521c f   nsxfeval.obj
 0001:00034310       AcpiAttachData             0000000180035310 f   nsxfeval.obj
 0001:00034394       AcpiDetachData             0000000180035394 f   nsxfeval.obj
 0001:00034404       AcpiGetData                0000000180035404 f   nsxfeval.obj
 0001:00034488       AcpiEvaluateObject         0000000180035488 f   nsxfeval.obj
 0001:00034808       AcpiEvaluateObjectTyped    0000000180035808 f   nsxfeval.obj
 0001:00034b7c       AcpiGetName                0000000180035b7c f   nsxfname.obj
 0001:00034bfc       AcpiGetHandle              0000000180035bfc f   nsxfname.obj
 0001:00034cb0       AcpiGetObjectInfo          0000000180035cb0 f   nsxfname.obj
 0001:00034ffc       AcpiInstallMethod          0000000180035ffc f   nsxfname.obj
 0001:00035244       AcpiGetNextObject          0000000180036244 f   nsxfobj.obj
 0001:00035308       AcpiGetType                0000000180036308 f   nsxfobj.obj
 0001:00035374       AcpiGetParent              0000000180036374 f   nsxfobj.obj
 0001:000353f4       AcpiPsGetNextPackageEnd    00000001800363f4 f   psargs.obj
 0001:00035468       AcpiPsGetNextNamestring    0000000180036468 f   psargs.obj
 0001:00035528       AcpiPsGetNextSimpleArg     0000000180036528 f   psargs.obj
 0001:00035680       AcpiPsGetNextNamepath      0000000180036680 f   psargs.obj
 0001:0003599c       AcpiPsGetNextArg           000000018003699c f   psargs.obj
 0001:000361a8       AcpiPsParseLoop            00000001800371a8 f   psloop.obj
 0001:00036a38       AcpiPsBuildNamedOp         0000000180037a38 f   psobject.obj
 0001:00036c1c       AcpiPsCreateOp             0000000180037c1c f   psobject.obj
 0001:00036e64       AcpiPsCompleteOp           0000000180037e64 f   psobject.obj
 0001:0003722c       AcpiPsCompleteFinalOp      000000018003822c f   psobject.obj
 0001:000375ac       AcpiPsGetOpcodeInfo        00000001800385ac f   psopinfo.obj
 0001:00037674       AcpiPsGetOpcodeName        0000000180038674 f   psopinfo.obj
 0001:0003768c       AcpiPsGetArgumentCount     000000018003868c f   psopinfo.obj
 0001:000376a4       AcpiPsParseAml             00000001800386a4 f   psparse.obj
 0001:00037bd0       AcpiPsGetOpcodeSize        0000000180038bd0 f   psparse.obj
 0001:00037be4       AcpiPsPeekOpcode           0000000180038be4 f   psparse.obj
 0001:00037c00       AcpiPsCompleteThisOp       0000000180038c00 f   psparse.obj
 0001:00037e44       AcpiPsNextParseState       0000000180038e44 f   psparse.obj
 0001:00037fcc       AcpiPsInitScope            0000000180038fcc f   psscope.obj
 0001:0003807c       AcpiPsGetParentScope       000000018003907c f   psscope.obj
 0001:0003808c       AcpiPsHasCompletedScope    000000018003908c f   psscope.obj
 0001:000380ac       AcpiPsPopScope             00000001800390ac f   psscope.obj
 0001:000381bc       AcpiPsPushScope            00000001800391bc f   psscope.obj
 0001:000382b4       AcpiPsCleanupScope         00000001800392b4 f   psscope.obj
 0001:00038328       AcpiPsAppendArg            0000000180039328 f   pstree.obj
 0001:00038410       AcpiPsGetArg               0000000180039410 f   pstree.obj
 0001:00038468       AcpiPsGetDepthNext         0000000180039468 f   pstree.obj
 0001:000384f0       AcpiPsCreateScopeOp        00000001800394f0 f   psutils.obj
 0001:00038518       AcpiPsInitOp               0000000180039518 f   psutils.obj
 0001:00038560       AcpiPsAllocOp              0000000180039560 f   psutils.obj
 0001:00038604       AcpiPsFreeOp               0000000180039604 f   psutils.obj
 0001:00038684       AcpiPsIsLeadingChar        0000000180039684 f   psutils.obj
 0001:000386a0       AcpiPsGetName              00000001800396a0 f   psutils.obj
 0001:000386b4       AcpiPsSetName              00000001800396b4 f   psutils.obj
 0001:000386c0       AcpiPsDeleteParseTree      00000001800396c0 f   pswalk.obj
 0001:00038860       AcpiDebugTrace             0000000180039860 f   psxface.obj
 0001:000388cc       AcpiPsExecuteMethod        00000001800398cc f   psxface.obj
 0001:00038b74       AcpiPsExecuteTable         0000000180039b74 f   psxface.obj
 0001:00038d18       AcpiRsSetAddressCommon     0000000180039d18 f   rsaddr.obj
 0001:00038d80       AcpiRsGetAddressCommon     0000000180039d80 f   rsaddr.obj
 0001:00038e08       AcpiRsGetListLength        0000000180039e08 f   rscalc.obj
 0001:000391d4       AcpiRsGetAmlLength         000000018003a1d4 f   rscalc.obj
 0001:0003944c       AcpiRsGetPciRoutingTableLength 000000018003a44c f   rscalc.obj
 0001:00039630       AcpiBufferToResource       000000018003a630 f   rscreate.obj
 0001:00039760       AcpiRsCreateResourceList   000000018003a760 f   rscreate.obj
 0001:00039938       AcpiRsCreateAmlResources   000000018003a938 f   rscreate.obj
 0001:00039af8       AcpiRsCreatePciRoutingTable 000000018003aaf8 f   rscreate.obj
 0001:00039f6c       AcpiRsDumpResourceList     000000018003af6c f   rsdump.obj
 0001:0003a058       AcpiRsDumpIrqList          000000018003b058 f   rsdump.obj
 0001:0003a5ec       AcpiRsConvertAmlToResources 000000018003b5ec f   rslist.obj
 0001:0003a7ec       AcpiRsConvertResourcesToAml 000000018003b7ec f   rslist.obj
 0001:0003a9d8       AcpiRsConvertAmlToResource 000000018003b9d8 f   rsmisc.obj
 0001:0003af20       AcpiRsConvertResourceToAml 000000018003bf20 f   rsmisc.obj
 0001:0003b304       AcpiRsGetPrtMethodData     000000018003c304 f   rsutils.obj
 0001:0003b3a8       AcpiRsGetCrsMethodData     000000018003c3a8 f   rsutils.obj
 0001:0003b44c       AcpiRsGetPrsMethodData     000000018003c44c f   rsutils.obj
 0001:0003b4f0       AcpiRsGetMethodData        000000018003c4f0 f   rsutils.obj
 0001:0003b59c       AcpiRsSetSrsMethodData     000000018003c59c f   rsutils.obj
 0001:0003b708       AcpiRsGetAeiMethodData     000000018003c708 f   rsutils.obj
 0001:0003b7ac       AcpiRsMoveData             000000018003c7ac f   rsutils.obj
 0001:0003b858       AcpiRsDecodeBitmask        000000018003c858 f   rsutils.obj
 0001:0003b8a0       AcpiRsEncodeBitmask        000000018003c8a0 f   rsutils.obj
 0001:0003b8e4       AcpiRsGetResourceSource    000000018003c8e4 f   rsutils.obj
 0001:0003b998       AcpiRsSetResourceSource    000000018003c998 f   rsutils.obj
 0001:0003ba00       AcpiRsSetResourceHeader    000000018003ca00 f   rsutils.obj
 0001:0003ba3c       AcpiRsSetResourceLength    000000018003ca3c f   rsutils.obj
 0001:0003bacc       AcpiGetVendorResource      000000018003cacc f   rsxface.obj
 0001:0003bb1c       AcpiGetCurrentResources    000000018003cb1c f   rsxface.obj
 0001:0003bbac       AcpiGetPossibleResources   000000018003cbac f   rsxface.obj
 0001:0003bc3c       AcpiGetEventResources      000000018003cc3c f   rsxface.obj
 0001:0003bccc       AcpiWalkResourceBuffer     000000018003cccc f   rsxface.obj
 0001:0003bde4       AcpiWalkResources          000000018003cde4 f   rsxface.obj
 0001:0003bef4       AcpiSetCurrentResources    000000018003cef4 f   rsxface.obj
 0001:0003bfc0       AcpiGetIrqRoutingTable     000000018003cfc0 f   rsxface.obj
 0001:0003c050       AcpiResourceToAddress64    000000018003d050 f   rsxface.obj
 0001:0003c2f0       AcpiTbGetNextTableDescriptor 000000018003d2f0 f   tbdata.obj
 0001:0003c35c       AcpiTbInitTableDescriptor  000000018003d35c f   tbdata.obj
 0001:0003c3c4       AcpiTbAcquireTempTable     000000018003d3c4 f   tbdata.obj
 0001:0003c478       AcpiTbReleaseTempTable     000000018003d478 f   tbdata.obj
 0001:0003c484       AcpiTbValidateTempTable    000000018003d484 f   tbdata.obj
 0001:0003c4a8       AcpiTbVerifyTempTable      000000018003d4a8 f   tbdata.obj
 0001:0003c64c       AcpiTbIsTableLoaded        000000018003d64c f   tbdata.obj
 0001:0003c6a0       AcpiTbSetTableLoadedFlag   000000018003d6a0 f   tbdata.obj
 0001:0003c6fc       AcpiTbResizeRootTableList  000000018003d6fc f   tbdata.obj
 0001:0003c898       AcpiTbValidateTable        000000018003d898 f   tbdata.obj
 0001:0003c92c       AcpiTbInvalidateTable      000000018003d92c f   tbdata.obj
 0001:0003c9ac       AcpiTbAcquireTable         000000018003d9ac f   tbdata.obj
 0001:0003ca2c       AcpiTbReleaseTable         000000018003da2c f   tbdata.obj
 0001:0003ca50       AcpiTbLoadTable            000000018003da50 f   tbdata.obj
 0001:0003cb14       AcpiTbInstallAndLoadTable  000000018003db14 f   tbdata.obj
 0001:0003cbd4       AcpiTbUnloadTable          000000018003dbd4 f   tbdata.obj
 0001:0003ccac       AcpiTbNotifyTable          000000018003dcac f   tbdata.obj
 0001:0003ccd0       AcpiTbTerminate            000000018003dcd0 f   tbdata.obj
 0001:0003cdd8       AcpiTbDeleteNamespaceByOwner 000000018003ddd8 f   tbdata.obj
 0001:0003cee8       AcpiTbAllocateOwnerId      000000018003dee8 f   tbdata.obj
 0001:0003cf84       AcpiTbReleaseOwnerId       000000018003df84 f   tbdata.obj
 0001:0003d020       AcpiTbGetOwnerId           000000018003e020 f   tbdata.obj
 0001:0003d234       AcpiTbParseFadt            000000018003e234 f   tbfadt.obj
 0001:0003d314       AcpiTbCreateLocalFadt      000000018003e314 f   tbfadt.obj
 0001:0003d834       AcpiTbFindTable            000000018003e834 f   tbfind.obj
 0001:0003dab0       AcpiTbOverrideTable        000000018003eab0 f   tbinstal.obj
 0001:0003dbb4       AcpiTbInstallStandardTable 000000018003ebb4 f   tbinstal.obj
 0001:0003dd64       AcpiTbUninstallTable       000000018003ed64 f   tbinstal.obj
 0001:0003ddf8       AcpiTbInstallTableWithOverride 000000018003edf8 f   tbinstal.obj
 0001:0003de84       AcpiTbPrintTableHeader     000000018003ee84 f   tbprint.obj
 0001:0003e040       AcpiTbInitializeFacs       000000018003f040 f   tbutils.obj
 0001:0003e098       AcpiTbCheckDsdtHeader      000000018003f098 f   tbutils.obj
 0001:0003e114       AcpiTbCopyDsdt             000000018003f114 f   tbutils.obj
 0001:0003e1c8       AcpiTbParseRootTable       000000018003f1c8 f   tbutils.obj
 0001:0003e424       AcpiTbGetTable             000000018003f424 f   tbutils.obj
 0001:0003e518       AcpiTbPutTable             000000018003f518 f   tbutils.obj
 0001:0003e5b8       AcpiInitializeTables       000000018003f5b8 f   tbxface.obj
 0001:0003e690       AcpiReallocateRootTable    000000018003f690 f   tbxface.obj
 0001:0003e7d0       AcpiGetTableHeader         000000018003f7d0 f   tbxface.obj
 0001:0003e8ac       AcpiGetTable               000000018003f8ac f   tbxface.obj
 0001:0003e958       AcpiPutTable               000000018003f958 f   tbxface.obj
 0001:0003e9fc       AcpiGetTableByIndex        000000018003f9fc f   tbxface.obj
 0001:0003eab0       AcpiInstallTableHandler    000000018003fab0 f   tbxface.obj
 0001:0003eb70       AcpiRemoveTableHandler     000000018003fb70 f   tbxface.obj
 0001:0003ec10       AcpiAllocateRootTable      000000018003fc10 f   tbxface.obj
 0001:0003ec24       AcpiInstallTable           000000018003fc24 f   tbxfload.obj
 0001:0003ec9c       AcpiInstallPhysicalTable   000000018003fc9c f   tbxfload.obj
 0001:0003ed14       AcpiLoadTable              000000018003fd14 f   tbxfload.obj
 0001:0003edc4       AcpiUnloadTable            000000018003fdc4 f   tbxfload.obj
 0001:0003ee54       AcpiUnloadParentTable      000000018003fe54 f   tbxfload.obj
 0001:0003ef98       AcpiLoadTables             000000018003ff98 f   tbxfload.obj
 0001:0003f05c       AcpiTbLoadNamespace        000000018004005c f   tbxfload.obj
 0001:0003f364       AcpiFindRootPointer        0000000180040364 f   tbxfroot.obj
 0001:0003f560       AcpiTbGetRsdpLength        0000000180040560 f   tbxfroot.obj
 0001:0003f5a0       AcpiTbValidateRsdp         00000001800405a0 f   tbxfroot.obj
 0001:0003f60c       AcpiTbScanMemoryForRsdp    000000018004060c f   tbxfroot.obj
 0001:0003f738       AcpiUtAddAddressRange      0000000180040738 f   utaddress.obj
 0001:0003f8a4       AcpiUtRemoveAddressRange   00000001800408a4 f   utaddress.obj
 0001:0003f9ec       AcpiUtCheckAddressRange    00000001800409ec f   utaddress.obj
 0001:0003fba0       AcpiUtDeleteAddressLists   0000000180040ba0 f   utaddress.obj
 0001:0003fc00       AcpiOsAllocateZeroed       0000000180040c00 f   utalloc.obj
 0001:0003fc44       AcpiUtCreateCaches         0000000180040c44 f   utalloc.obj
 0001:0003fd24       AcpiUtDeleteCaches         0000000180040d24 f   utalloc.obj
 0001:0003fdf0       AcpiUtValidateBuffer       0000000180040df0 f   utalloc.obj
 0001:0003fe18       AcpiUtInitializeBuffer     0000000180040e18 f   utalloc.obj
 0001:0003feac       AcpiUtValidNameseg         0000000180040eac f   utascii.obj
 0001:0003feec       AcpiUtValidNameChar        0000000180040eec f   utascii.obj
 0001:0003ff1c       AcpiUtCheckAndRepairAscii  0000000180040f1c f   utascii.obj
 0001:0003ff7c       AcpiUtDebugDumpBuffer      0000000180040f7c f   utbuffer.obj
 0001:0003ffa8       AcpiUtDumpBuffer           0000000180040fa8 f   utbuffer.obj
 0001:00040174       AcpiUtDumpBufferToFile     0000000180041174 f   utbuffer.obj
 0001:0004034c       AcpiOsCreateCache          000000018004134c f   utcache.obj
 0001:000403e4       AcpiOsDeleteCache          00000001800413e4 f   utcache.obj
 0001:00040414       AcpiOsPurgeCache           0000000180041414 f   utcache.obj
 0001:00040498       AcpiOsAcquireObject        0000000180041498 f   utcache.obj
 0001:00040634       AcpiOsReleaseObject        0000000180041634 f   utcache.obj
 0001:000406dc       AcpiUtCopyIobjectToEobject 00000001800416dc f   utcopy.obj
 0001:00040768       AcpiUtCopyEobjectToIobject 0000000180041768 f   utcopy.obj
 0001:000407e4       AcpiUtCopyIobjectToIobject 00000001800417e4 f   utcopy.obj
 0001:00041234       AcpiDebugPrint             0000000180042234 f   utdebug.obj
 0001:0004134c       AcpiDebugPrintRaw          000000018004234c f   utdebug.obj
 0001:00041380       AcpiTracePoint             0000000180042380 f   utdebug.obj
 0001:000413d0       AcpiUtInitStackPtrTrace    00000001800423d0 f   utdebug.obj
 0001:000413e4       AcpiUtTrackStackPtr        00000001800423e4 f   utdebug.obj
 0001:00041420       AcpiUtTrace                0000000180042420 f   utdebug.obj
 0001:000414a4       AcpiUtTracePtr             00000001800424a4 f   utdebug.obj
 0001:00041534       AcpiUtTraceU32             0000000180042534 f   utdebug.obj
 0001:000415c0       AcpiUtTraceStr             00000001800425c0 f   utdebug.obj
 0001:00041650       AcpiUtExit                 0000000180042650 f   utdebug.obj
 0001:000416b8       AcpiUtStatusExit           00000001800426b8 f   utdebug.obj
 0001:00041778       AcpiUtValueExit            0000000180042778 f   utdebug.obj
 0001:000417fc       AcpiUtPtrExit              00000001800427fc f   utdebug.obj
 0001:0004186c       AcpiUtStrExit              000000018004286c f   utdebug.obj
 0001:000418f8       AcpiUtGetMutexName         00000001800428f8 f   utdecode.obj
 0001:0004191c       AcpiUtGetNotifyName        000000018004291c f   utdecode.obj
 0001:000419bc       AcpiUtGetTypeName          00000001800429bc f   utdecode.obj
 0001:000419e0       AcpiUtGetNodeName          00000001800429e0 f   utdecode.obj
 0001:00041a38       AcpiUtGetDescriptorName    0000000180042a38 f   utdecode.obj
 0001:00041a6c       AcpiUtGetReferenceName     0000000180042a6c f   utdecode.obj
 0001:00041abc       AcpiUtGetObjectTypeName    0000000180042abc f   utdecode.obj
 0001:00041bfc       AcpiUtGetRegionName        0000000180042bfc f   utdecode.obj
 0001:00041c48       AcpiUtGetEventName         0000000180042c48 f   utdecode.obj
 0001:00041c6c       AcpiUtGetArgumentTypeName  0000000180042c6c f   utdecode.obj
 0001:00041c90       AcpiUtValidObjectType      0000000180042c90 f   utdecode.obj
 0001:00041c98       AcpiUtUpdateObjectReference 0000000180042c98 f   utdelete.obj
 0001:00041eec       AcpiUtAddReference         0000000180042eec f   utdelete.obj
 0001:00041f64       AcpiUtRemoveReference      0000000180042f64 f   utdelete.obj
 0001:00041ff0       AcpiUtDeleteInternalObjectList 0000000180042ff0 f   utdelete.obj
 0001:0004281c       AcpiUtPredefinedWarning    000000018004381c f   uterror.obj
 0001:00042870       AcpiUtPredefinedInfo       0000000180043870 f   uterror.obj
 0001:000428c4       AcpiUtPredefinedBiosError  00000001800438c4 f   uterror.obj
 0001:00042918       AcpiUtPrefixedNamespaceError 0000000180043918 f   uterror.obj
 0001:00042a04       AcpiUtMethodError          0000000180043a04 f   uterror.obj
 0001:00042ab0       AcpiUtEvaluateObject       0000000180043ab0 f   uteval.obj
 0001:00042d14       AcpiUtEvaluateNumericObject 0000000180043d14 f   uteval.obj
 0001:00042dd8       AcpiUtExecute_STA          0000000180043dd8 f   uteval.obj
 0001:00042ef4       AcpiUtExecutePowerMethods  0000000180043ef4 f   uteval.obj
 0001:00043034       AcpiFormatException        0000000180044034 f   utexcep.obj
 0001:00043080       AcpiUtValidateException    0000000180044080 f   utexcep.obj
 0001:00043160       AcpiUtHexToAsciiChar       0000000180044160 f   uthex.obj
 0001:0004318c       AcpiUtAsciiToHexByte       000000018004418c f   uthex.obj
 0001:000431f4       AcpiUtAsciiCharToHex       00000001800441f4 f   uthex.obj
 0001:00043214       AcpiUtExecute_HID          0000000180044214 f   utids.obj
 0001:0004331c       AcpiUtExecute_UID          000000018004431c f   utids.obj
 0001:00043424       AcpiUtExecute_CID          0000000180044424 f   utids.obj
 0001:000435cc       AcpiUtExecute_CLS          00000001800445cc f   utids.obj
 0001:000436fc       AcpiUtInitGlobals          00000001800446fc f   utinit.obj
 0001:00043930       AcpiUtSubsystemShutdown    0000000180044930 f   utinit.obj
 0001:00043b1c       AcpiUtCreateRwLock         0000000180044b1c f   utlock.obj
 0001:00043b58       AcpiUtDeleteRwLock         0000000180044b58 f   utlock.obj
 0001:00043b8c       AcpiUtAcquireReadLock      0000000180044b8c f   utlock.obj
 0001:00043bf0       AcpiUtReleaseReadLock      0000000180044bf0 f   utlock.obj
 0001:00043c40       AcpiUtAcquireWriteLock     0000000180044c40 f   utlock.obj
 0001:00043c5c       AcpiUtReleaseWriteLock     0000000180044c5c f   utlock.obj
 0001:00043c6c       AcpiUtDivide               0000000180044c6c f   utmath.obj
 0001:00043d50       AcpiUtShortDivide          0000000180044d50 f   utmath.obj
 0001:00043e34       AcpiUtShortMultiply        0000000180044e34 f   utmath.obj
 0001:00043eb0       AcpiUtShortShiftLeft       0000000180044eb0 f   utmath.obj
 0001:00043f30       AcpiUtShortShiftRight      0000000180044f30 f   utmath.obj
 0001:00043fa8       AcpiUtCreateUpdateStateAndPush 0000000180044fa8 f   utmisc.obj
 0001:00044004       AcpiUtIsPciRootBridge      0000000180045004 f   utmisc.obj
 0001:00044044       AcpiUtIsAmlTable           0000000180045044 f   utmisc.obj
 0001:000440a4       AcpiUtWalkPackageTree      00000001800450a4 f   utmisc.obj
 0001:000442a0       AcpiUtDwordByteSwap        00000001800452a0 f   utmisc.obj
 0001:000442dc       AcpiUtSetIntegerWidth      00000001800452dc f   utmisc.obj
 0001:00044310       AcpiUtDisplayInitPathname  0000000180045310 f   utmisc.obj
 0001:000443dc       AcpiUtMutexInitialize      00000001800453dc f   utmutex.obj
 0001:00044528       AcpiUtMutexTerminate       0000000180045528 f   utmutex.obj
 0001:000445c4       AcpiUtAcquireMutex         00000001800455c4 f   utmutex.obj
 0001:000447ac       AcpiUtReleaseMutex         00000001800457ac f   utmutex.obj
 0001:00044a00       AcpiUtStrupr               0000000180045a00 f   utnonansi.obj
 0001:00044a34       AcpiUtStrlwr               0000000180045a34 f   utnonansi.obj
 0001:00044a68       AcpiUtStricmp              0000000180045a68 f   utnonansi.obj
 0001:00044ab8       AcpiUtSafeStrcpy           0000000180045ab8 f   utnonansi.obj
 0001:00044b04       AcpiUtSafeStrncpy          0000000180045b04 f   utnonansi.obj
 0001:00044b30       AcpiUtSafeStrcat           0000000180045b30 f   utnonansi.obj
 0001:00044b94       AcpiUtSafeStrncat          0000000180045b94 f   utnonansi.obj
 0001:00044c18       AcpiUtCreateInternalObjectDbg 0000000180045c18 f   utobject.obj
 0001:00044d2c       AcpiUtAllocateObjectDescDbg 0000000180045d2c f   utobject.obj
 0001:00044e38       AcpiUtDeleteObjectDesc     0000000180045e38 f   utobject.obj
 0001:00044ed4       AcpiUtValidInternalObject  0000000180045ed4 f   utobject.obj
 0001:00044f94       AcpiUtCreatePackageObject  0000000180045f94 f   utobject.obj
 0001:00045084       AcpiUtCreateIntegerObject  0000000180046084 f   utobject.obj
 0001:00045128       AcpiUtCreateBufferObject   0000000180046128 f   utobject.obj
 0001:00045240       AcpiUtCreateStringObject   0000000180046240 f   utobject.obj
 0001:0004533c       AcpiUtGetObjectSize        000000018004633c f   utobject.obj
 0001:00045644       AcpiUtInitializeInterfaces 0000000180046644 f   utosi.obj
 0001:000456b4       AcpiUtInterfaceTerminate   00000001800466b4 f   utosi.obj
 0001:00045758       AcpiUtInstallInterface     0000000180046758 f   utosi.obj
 0001:00045808       AcpiUtRemoveInterface      0000000180046808 f   utosi.obj
 0001:000458bc       AcpiUtUpdateInterfaces     00000001800468bc f   utosi.obj
 0001:000458fc       AcpiUtGetInterface         00000001800468fc f   utosi.obj
 0001:00045944       AcpiUtOsiImplementation    0000000180046944 f   utosi.obj
 0001:00045b38       AcpiUtAllocateOwnerId      0000000180046b38 f   utownerid.obj
 0001:00045cdc       AcpiUtReleaseOwnerId       0000000180046cdc f   utownerid.obj
 0001:00045dec       AcpiUtGetNextPredefinedMethod 0000000180046dec f   utpredef.obj
 0001:00045e08       AcpiUtMatchPredefinedMethod 0000000180046e08 f   utpredef.obj
 0001:00045e44       AcpiUtGetExpectedReturnTypes 0000000180046e44 f   utpredef.obj
 0001:00045ec4       AcpiUtWalkAmlResources     0000000180046ec4 f   utresrc.obj
 0001:000460a4       AcpiUtValidateResource     00000001800470a4 f   utresrc.obj
 0001:00046220       AcpiUtGetDescriptorLength  0000000180047220 f   utresrc.obj
 0001:0004625c       AcpiUtGetResourceLength    000000018004725c f   utresrc.obj
 0001:00046288       AcpiUtGetResourceHeaderLength 0000000180047288 f   utresrc.obj
 0001:000462b0       AcpiUtGetResourceType      00000001800472b0 f   utresrc.obj
 0001:000462d8       AcpiUtGetResourceEndTag    00000001800472d8 f   utresrc.obj
 0001:00046380       AcpiUtPushGenericState     0000000180047380 f   utstate.obj
 0001:000463b0       AcpiUtPopGenericState      00000001800473b0 f   utstate.obj
 0001:000463d8       AcpiUtCreateGenericState   00000001800473d8 f   utstate.obj
 0001:00046404       AcpiUtCreateThreadState    0000000180047404 f   utstate.obj
 0001:00046460       AcpiUtCreateUpdateState    0000000180047460 f   utstate.obj
 0001:0004649c       AcpiUtCreatePkgState       000000018004749c f   utstate.obj
 0001:000464f0       AcpiUtCreateControlState   00000001800474f0 f   utstate.obj
 0001:00046518       AcpiUtDeleteGenericState   0000000180047518 f   utstate.obj
 0001:00046540       AcpiUtPrintString          0000000180047540 f   utstring.obj
 0001:0004668c       UtConvertBackslashes       000000018004768c f   utstring.obj
 0001:000466ac       AcpiUtRepairName           00000001800476ac f   utstring.obj
 0001:00046798       AcpiUtConvertOctalString   0000000180047798 f   utstrsuppt.obj
 0001:00046800       AcpiUtConvertDecimalString 0000000180047800 f   utstrsuppt.obj
 0001:00046878       AcpiUtConvertHexString     0000000180047878 f   utstrsuppt.obj
 0001:000468f0       AcpiUtRemoveWhitespace     00000001800478f0 f   utstrsuppt.obj
 0001:00046924       AcpiUtRemoveLeadingZeros   0000000180047924 f   utstrsuppt.obj
 0001:0004693c       AcpiUtDetectHexPrefix      000000018004793c f   utstrsuppt.obj
 0001:00046968       AcpiUtRemoveHexPrefix      0000000180047968 f   utstrsuppt.obj
 0001:00046998       AcpiUtDetectOctalPrefix    0000000180047998 f   utstrsuppt.obj
 0001:00046a9c       AcpiUtStrtoul64            0000000180047a9c f   utstrtoul64.obj
 0001:00046be0       AcpiUtExplicitStrtoul64    0000000180047be0 f   utstrtoul64.obj
 0001:00046cbc       AcpiUtImplicitStrtoul64    0000000180047cbc f   utstrtoul64.obj
 0001:00046d84       AcpiUtAllocateAndTrack     0000000180047d84 f   uttrack.obj
 0001:00046e6c       AcpiUtAllocateZeroedAndTrack 0000000180047e6c f   uttrack.obj
 0001:00046f54       AcpiUtFreeAndTrack         0000000180047f54 f   uttrack.obj
 0001:00047098       AcpiUtDumpAllocationInfo   0000000180048098 f   uttrack.obj
 0001:000470e4       AcpiUtDumpAllocations      00000001800480e4 f   uttrack.obj
 0001:00047340       AcpiUtCreateList           0000000180048340 f   uttrack.obj
 0001:00047640       AcpiUtConvertStringToUuid  0000000180048640 f   utuuid.obj
 0001:000476b0       AcpiUtConvertUuidToString  00000001800486b0 f   utuuid.obj
 0001:00047748       AcpiTerminate              0000000180048748 f   utxface.obj
 0001:000477b0       AcpiSubsystemStatus        00000001800487b0 f   utxface.obj
 0001:000477c4       AcpiGetSystemInfo          00000001800487c4 f   utxface.obj
 0001:000478b8       AcpiGetStatistics          00000001800488b8 f   utxface.obj
 0001:00047970       AcpiPurgeCachedObjects     0000000180048970 f   utxface.obj
 0001:000479f4       AcpiInstallInterface       00000001800489f4 f   utxface.obj
 0001:00047a84       AcpiRemoveInterface        0000000180048a84 f   utxface.obj
 0001:00047ae8       AcpiUpdateInterfaces       0000000180048ae8 f   utxface.obj
 0001:00047b34       AcpiCheckAddressRange      0000000180048b34 f   utxface.obj
 0001:00047ba0       AcpiDecodePldBuffer        0000000180048ba0 f   utxface.obj
 0001:00047d10       AcpiInstallInitializationHandler 0000000180048d10 f   utxface.obj
 0001:00047d3c       AcpiInstallInterfaceHandler 0000000180048d3c f   utxface.obj
 0001:00047da0       AcpiError                  0000000180048da0 f   utxferror.obj
 0001:00047df4       AcpiException              0000000180048df4 f   utxferror.obj
 0001:00047e64       AcpiWarning                0000000180048e64 f   utxferror.obj
 0001:00047eb8       AcpiInfo                   0000000180048eb8 f   utxferror.obj
 0001:00047f04       AcpiBiosError              0000000180048f04 f   utxferror.obj
 0001:00047f58       AcpiBiosException          0000000180048f58 f   utxferror.obj
 0001:00047fc8       AcpiBiosWarning            0000000180048fc8 f   utxferror.obj
 0001:00048018       AcpiInitializeSubsystem    0000000180049018 f   utxfinit.obj
 0001:0004817c       AcpiEnableSubsystem        000000018004917c f   utxfinit.obj
 0001:00048338       AcpiInitializeObjects      0000000180049338 f   utxfinit.obj
 0001:000483b0       AcpiAcquireMutex           00000001800493b0 f   utxfmutex.obj
 0001:000483ec       AcpiReleaseMutex           00000001800493ec f   utxfmutex.obj
 0001:00048484       AcpiOsInitializeDebugger   0000000180049484 f   osgendbg.obj
 0001:00048528       AcpiOsTerminateDebugger    0000000180049528 f   osgendbg.obj
 0001:00048558       AcpiOsWaitCommandReady     0000000180049558 f   osgendbg.obj
 0001:00048608       AcpiOsNotifyCommandComplete 0000000180049608 f   osgendbg.obj
 0001:00048634       AcpiRunDebugger            0000000180049634 f   osgendbg.obj
 0001:00048734       AcpiOsOpenDirectory        0000000180049734 f   oswindir.obj
 0001:0004884c       AcpiOsGetNextFilename      000000018004984c f   oswindir.obj
 0001:000488c0       AcpiOsCloseDirectory       00000001800498c0 f   oswindir.obj
 0001:000488f0       AcpiOsInitialize           00000001800498f0 f   oswinxf.obj
 0001:00048940       AcpiOsTerminate            0000000180049940 f   oswinxf.obj
 0001:0004894c       AcpiOsPredefinedOverride   000000018004994c f   oswinxf.obj
 0001:0004896c       AcpiOsTableOverride        000000018004996c f   oswinxf.obj
 0001:00048998       AcpiOsPhysicalTableOverride 0000000180049998 f   oswinxf.obj
 0001:000489a4       AcpiOsCreateLock           00000001800499a4 f   oswinxf.obj
 0001:000489bc       AcpiOsDeleteLock           00000001800499bc f   oswinxf.obj
 0001:000489c8       AcpiOsAcquireLock          00000001800499c8 f   oswinxf.obj
 0001:000489d4       AcpiOsReleaseLock          00000001800499d4 f   oswinxf.obj
 0001:000489e0       AcpiOsCreateSemaphore      00000001800499e0 f   oswinxf.obj
 0001:000489f0       AcpiOsDeleteSemaphore      00000001800499f0 f   oswinxf.obj
 0001:000489fc       AcpiOsWaitSemaphore        00000001800499fc f   oswinxf.obj
 0001:00048a08       AcpiOsSignalSemaphore      0000000180049a08 f   oswinxf.obj
 0001:00048a14       AcpiOsAllocate             0000000180049a14 f   oswinxf.obj
 0001:00048a20       AcpiOsFree                 0000000180049a20 f   oswinxf.obj
 0001:00048a2c       AcpiOsMapMemory            0000000180049a2c f   oswinxf.obj
 0001:00048a38       AcpiOsUnmapMemory          0000000180049a38 f   oswinxf.obj
 0001:00048a44       AcpiOsInstallInterruptHandler 0000000180049a44 f   oswinxf.obj
 0001:00048a50       AcpiOsRemoveInterruptHandler 0000000180049a50 f   oswinxf.obj
 0001:00048a5c       AcpiOsGetThreadId          0000000180049a5c f   oswinxf.obj
 0001:00048a68       AcpiOsExecute              0000000180049a68 f   oswinxf.obj
 0001:00048a80       AcpiOsWaitEventsComplete   0000000180049a80 f   oswinxf.obj
 0001:00048a8c       AcpiOsSleep                0000000180049a8c f   oswinxf.obj
 0001:00048a9c       AcpiOsStall                0000000180049a9c f   oswinxf.obj
 0001:00048ab4       AcpiOsReadPort             0000000180049ab4 f   oswinxf.obj
 0001:00048b0c       AcpiOsWritePort            0000000180049b0c f   oswinxf.obj
 0001:00048b50       AcpiOsReadMemory           0000000180049b50 f   oswinxf.obj
 0001:00048b80       AcpiOsWriteMemory          0000000180049b80 f   oswinxf.obj
 0001:00048b8c       AcpiOsReadPciConfiguration 0000000180049b8c f   oswinxf.obj
 0001:00048b9c       AcpiOsWritePciConfiguration 0000000180049b9c f   oswinxf.obj
 0001:00048ba8       AcpiOsReadable             0000000180049ba8 f   oswinxf.obj
 0001:00048bc4       AcpiOsWritable             0000000180049bc4 f   oswinxf.obj
 0001:00048be0       AcpiOsGetTimer             0000000180049be0 f   oswinxf.obj
 0001:00048c28       AcpiOsSignal               0000000180049c28 f   oswinxf.obj
 0001:00048c34       AcpiOsEnterSleep           0000000180049c34 f   oswinxf.obj
 0001:00048c40       AcpiOsPrintf               0000000180049c40 f   oswinxf.obj
 0001:00048ca8       AcpiOsVprintf              0000000180049ca8 f   oswinxf.obj
 0001:00048d0c       AcpiOsRedirectOutput       0000000180049d0c f   oswinxf.obj
 0001:00048d1c       AcpiOsGetLine              0000000180049d1c f   oswinxf.obj
 0001:00048d9c       AeSignalHandler            0000000180049d9c f   aeexception.obj
 0001:00048e74       AeExceptionHandler         0000000180049e74 f   aeexception.obj
 0001:00049140       AeTestBufferArgument       000000018004a140 f   aeexec.obj
 0001:000491a4       AeTestPackageArgument      000000018004a1a4 f   aeexec.obj
 0001:0004929c       AeGetDevices               000000018004a29c f   aeexec.obj
 0001:000492a8       AeSetupConfiguration       000000018004a2a8 f   aeexec.obj
 0001:000492f0       ExecuteOSI                 000000018004a2f0 f   aeexec.obj
 0001:000493f4       AeGenericRegisters         000000018004a3f4 f   aeexec.obj
 0001:0004953c       AfInstallGpeBlock          000000018004a53c f   aeexec.obj
 0001:00049830       AeInstallEarlyHandlers     000000018004a830 f   aehandlers.obj
 0001:00049c4c       AeInstallLateHandlers      000000018004ac4c f   aehandlers.obj
 0001:00049f78       AeGpeHandler               000000018004af78 f   aehandlers.obj
 0001:00049fac       AeGlobalEventHandler       000000018004afac f   aehandlers.obj
 0001:0004a448       AeOpenInitializationFile   000000018004b448 f   aeinitfile.obj
 0001:0004a4a8       AeProcessInitFile          000000018004b4a8 f   aeinitfile.obj
 0001:0004a760       AeLookupInitFileEntry      000000018004b760 f   aeinitfile.obj
 0001:0004a934       AeDisplayUnusedInitFileItems 000000018004b934 f   aeinitfile.obj
 0001:0004a998       AeDeleteInitFileList       000000018004b998 f   aeinitfile.obj
 0001:0004a9f4       AeInstallDeviceHandlers    000000018004b9f4 f   aeinstall.obj
 0001:0004aa50       AeInstallRegionHandlers    000000018004ba50 f   aeinstall.obj
 0001:0004aaf4       AeOverrideRegionHandlers   000000018004baf4 f   aeinstall.obj
 0001:0004addc       MpSaveGpioInfo             000000018004bddc f   aemain.obj
 0001:0004ade8       MpSaveSerialInfo           000000018004bde8 f   aemain.obj
 0001:0004adf4       main                       000000018004bdf4 f   aemain.obj
 0001:0004b830       AeRegionHandler            000000018004c830 f   aeregion.obj
 0001:0004c0c8       AcpiOsGetRootPointer       000000018004d0c8 f   aetables.obj
 0001:0004c0d8       AeBuildLocalTables         000000018004d0d8 f   aetables.obj
 0001:0004c518       AeInstallTables            000000018004d518 f   aetables.obj
 0001:0004c748       AeLoadTables               000000018004d748 f   aetables.obj
 0001:0004c808       AeTableOverride            000000018004d808 f   aetables.obj
 0001:0004c8a8       AeMiscellaneousTests       000000018004d8a8 f   aetests.obj
 0001:0004d5a8       AeLateTest                 000000018004e5a8 f   aetests.obj
 0001:0004d934       AcpiUtGenerateChecksum     000000018004e934 f   utcksum.obj
 0001:0004d954       AcpiUtChecksum             000000018004e954 f   utcksum.obj
 0001:0004d970       AcpiUtVerifyCdatChecksum   000000018004e970 f   utcksum.obj
 0001:0004d9d8       AcpiUtVerifyChecksum       000000018004e9d8 f   utcksum.obj
 0001:0004da40       QueryPerformanceCounter4UEFI 000000018004ea40 f   LibWin324UEFI:QueryPerformanceCounter.obj
 0001:0004da70       _w4uQueryPerformanceCounter 000000018004ea70 f   LibWin324UEFI:QueryPerformanceCounter.obj
 0001:0004da90       QueryPerformanceFrequency4UEFI 000000018004ea90 f   LibWin324UEFI:QueryPerformanceFrequency.obj
 0001:0004dbc0       _w4uQueryPerformanceFrequency 000000018004ebc0 f   LibWin324UEFI:QueryPerformanceFrequency.obj
 0001:0004dbe0       GetTickCount644UEFI        000000018004ebe0 f   LibWin324UEFI:GetTickCount64.obj
 0001:0004dbf0       Sleep4UEFI                 000000018004ebf0 f   LibWin324UEFI:Sleep.obj
 0001:0004dc30       _w4uSleep                  000000018004ec30 f   LibWin324UEFI:Sleep.obj
 0001:0004dc50       IsBadReadPtr4UEFI          000000018004ec50 f   LibWin324UEFI:IsBadReadPtr.obj
 0001:0004dc60       IsBadWritePtr4UEFI         000000018004ec60 f   LibWin324UEFI:IsBadWritePtr.obj
 0001:0004dc70       __cdeGetAppIf              000000018004ec70 f   toroC64:osifUefiShellEntryPoint.obj
 0001:0004dcf4       _MainEntryPointShell       000000018004ecf4 f   toroC64:osifUefiShellEntryPoint.obj
 0001:0004e3b8       _cdeCRT0UefiShell          000000018004f3b8 f   toroC64:osifUefiShellEntryPoint.obj
 0001:0004e41c       _errno                     000000018004f41c f   toroC64:errno.obj
 0001:0004e440       isspace                    000000018004f440 f   toroC64:isspace.obj
 0001:0004e458       isprint                    000000018004f458 f   toroC64:isprint.obj
 0001:0004e478       __acrt_iob_func            000000018004f478 f   toroC64:__acrt_iob_func.obj
 0001:0004e4b4       fclose                     000000018004f4b4 f   toroC64:Fclose.obj
 0001:0004e580       fopen                      000000018004f580 f   toroC64:Fopen.obj
 0001:0004e7c4       fread                      000000018004f7c4 f   toroC64:Fread.obj
 0001:0004e81c       fseek                      000000018004f81c f   toroC64:Fseek.obj
 0001:0004e824       ftell                      000000018004f824 f   toroC64:Ftell.obj
 0001:0004e82c       fprintf                    000000018004f82c f   toroC64:Fprintf.obj
 0001:0004e850       strcmp                     000000018004f850 f   toroC64:StrCmp.obj
 0001:0004e88c       memcmp                     000000018004f88c f   toroC64:MemCmpCDEINTRINABI.obj
 0001:0004e8d4       strchr                     000000018004f8d4 f   toroC64:StrChr.obj
 0001:0004e904       strtoul                    000000018004f904 f   toroC64:strtoul.obj
 0001:0004e9bc       strstr                     000000018004f9bc f   toroC64:StrStr.obj
 0001:0004ea00       strcpy                     000000018004fa00 f   toroC64:StrCpy.obj
 0001:0004ea38       strlen                     000000018004fa38 f   toroC64:StrLen.obj
 0001:0004ea4c       isxdigit                   000000018004fa4c f   toroC64:isxdigit.obj
 0001:0004ea78       toupper                    000000018004fa78 f   toroC64:toupper.obj
 0001:0004ea98       memset                     000000018004fa98 f   toroC64:MemSetCDEINTRINABI.obj
 0001:0004eabc       strncmp                    000000018004fabc f   toroC64:StrNCmp.obj
 0001:0004eb04       tolower                    000000018004fb04 f   toroC64:tolower.obj
 0001:0004eb24       memcpy                     000000018004fb24 f   toroC64:MemCpy.obj
 0001:0004eb44       isalpha                    000000018004fb44 f   toroC64:isalpha.obj
 0001:0004eb6c       strcat                     000000018004fb6c f   toroC64:StrCat.obj
 0001:0004eb9c       strncpy                    000000018004fb9c f   toroC64:StrNCpy.obj
 0001:0004ebe0       strnlen                    000000018004fbe0 f   toroC64:StrNLen.obj
 0001:0004ebf8       strncat                    000000018004fbf8 f   toroC64:StrNCat.obj
 0001:0004ec60       isdigit                    000000018004fc60 f   toroC64:isdigit.obj
 0001:0004ec74       _findclose                 000000018004fc74 f   toroC64:_findclose.obj
 0001:0004ec88       _findfirst64i32            000000018004fc88 f   toroC64:_findfirst.obj
 0001:0004ef20       _findnext64i32             000000018004ff20 f   toroC64:_findnext.obj
 0001:0004f068       calloc                     0000000180050068 f   toroC64:Calloc.obj
 0001:0004f0a8       free                       00000001800500a8 f   toroC64:Free.obj
 0001:0004f0c0       printf                     00000001800500c0 f   toroC64:Printf.obj
 0001:0004f0fc       malloc                     00000001800500fc f   toroC64:Malloc.obj
 0001:0004f108       getchar                    0000000180050108 f   toroC64:Getchar.obj
 0001:0004f120       vfprintf                   0000000180050120 f   toroC64:Vfprintf.obj
 0001:0004f240       exit                       0000000180050240 f   toroC64:exit.obj
 0001:0004f264       fflush                     0000000180050264 f   toroC64:Fflush.obj
 0001:0004f288       signal                     0000000180050288 f   toroC64:signal.obj
 0001:0004f30c       fgets                      000000018005030c f   toroC64:Fgets.obj
 0001:0004f3b4       rewind                     00000001800503b4 f   toroC64:Rewind.obj
 0001:0004f3d0       clock                      00000001800503d0 f   toroC64:clock.obj
 0001:0004f424       _CdeDbgPutChar             0000000180050424 f   toroC64:_CdeDbgPutChar.obj
 0001:0004f630       _cdeCoreVwxPrintf          0000000180050630 f   toroC64:_cdeCoreVwxPrintf.obj
 0001:00050a48       ComputeFieldSize           0000000180051a48 f   toroC64:_cdeCoreVwxPrintf.obj
 0001:00050a84       ydes                       0000000180051a84 f   toroC64:_cdeCoreVwxPrintf.obj
 0001:0005146c       _cdeCoreVwxScanf           000000018005246c f   toroC64:_cdeCoreVwxScanf.obj
 0001:00052874       _cdeCoreWcsStrTok          0000000180053874 f   toroC64:_cdeCoreWcsStrTok.obj
 0001:00052970       _cdeWcsStrPbrkSpn          0000000180053970 f   toroC64:_cdeWcsStrPbrkSpn.obj
 0001:00052ab0       _cdeCoreMemRealloc         0000000180053ab0 f   toroC64:_cdeCoreMemRealloc.obj
 0001:00052e84       _cdeMemStrxCpy             0000000180053e84 f   toroC64:_cdeMemStrxCpy.obj
 0001:00052f78       _cdeMemStrxCmp             0000000180053f78 f   toroC64:_cdeMemStrxCmp.obj
 0001:000530b8       _osifIbmAtGetTime          00000001800540b8 f   toroC64:osifIbmAtGetTime.obj
 0001:00053270       _osifUefiShellGetTscPerSec 0000000180054270 f   toroC64:osifUefiShellGetTscPerSec.obj
 0001:00053318       _osifIbmAtGetTsc           0000000180054318 f   toroC64:osifIbmAtGetTsc.obj
 0001:00053324       _osifUefiShellMemAlloc     0000000180054324 f   toroC64:osifUefiShellMemAlloc.obj
 0001:00053368       _osifUefiShellMemFree      0000000180054368 f   toroC64:osifUefiShellMemFree.obj
 0001:00053380       _osifUefiShellFileWrite    0000000180054380 f   toroC64:osifUefiShellFileWrite.obj
 0001:00053508       _osifUefiShellFileRead     0000000180054508 f   toroC64:osifUefiShellFileRead.obj
 0001:00053734       _osifUefiShellFileSetPos   0000000180054734 f   toroC64:osifUefiShellFileSetPos.obj
 0001:00053840       _osifUefiShellFileOpen     0000000180054840 f   toroC64:osifUefiShellFileOpen.obj
 0001:00053f00       _osifUefiShellFileClose    0000000180054f00 f   toroC64:osifUefiShellFileClose.obj
 0001:00053f60       _osifUefiShellFileDelete   0000000180054f60 f   toroC64:osifUefiShellFileDelete.obj
 0001:00053f88       _osifUefiShellFileRename   0000000180054f88 f   toroC64:osifUefiShellFileRename.obj
 0001:000540e8       _osifUefiShellFileFindAll  00000001800550e8 f   toroC64:osifUefiShellFileFindAll.obj
 0001:00054508       _osifUefiShellFileGetStatus 0000000180055508 f   toroC64:osifUefiShellFileGetStatus.obj
 0001:00054680       _osifUefiShellDirectoryCreate 0000000180055680 f   toroC64:osifUefiShellDirectoryCreate.obj
 0001:0005492c       _osifUefiShellCmdExec      000000018005592c f   toroC64:osifUefiShellCmdExec.obj
 0001:00054a48       _osifUefiShellGetEnv       0000000180055a48 f   toroC64:osifUefiShellGetEnv.obj
 0001:00054af8       _osifUefiShellGetDrvCwd    0000000180055af8 f   toroC64:osifUefiShellGetDrvCwd.obj
 0001:00054b44       _cdeCoreFread              0000000180055b44 f   toroC64:_cdeCoreFread.obj
 0001:00054e90       _cdeCoreFwrite             0000000180055e90 f   toroC64:_cdeCoreFwrite.obj
 0001:0005510c       _cdeCoreFsetpos            000000018005610c f   toroC64:_cdeCoreFsetpos.obj
 0001:00055284       _cdeCoreFflush             0000000180056284 f   toroC64:_cdeCoreFflush.obj
 0001:0005530c       _cdeSigDflt                000000018005630c f   toroC64:_cdeSigDfl.obj
 0001:00055314       __cdeGetIOBuffer           0000000180056314 f   toroC64:__cdsGetIOBuffer.obj
 0001:00055320       _setjmp                    0000000180056320 f   toroC64:setjmp64CDEINTRINABI.obj
 0001:000553c5       __imp_setjmp               00000001800563c5     toroC64:setjmp64CDEINTRINABI.obj
 0001:000553cd       __cdeSETJMPCDEINTRINABIAnchor 00000001800563cd     toroC64:setjmp64CDEINTRINABI.obj
 0001:000553d0       _CdeLocateProtocol         00000001800563d0 f   toroC64:_CdeLocateProtocol.obj
 0001:00055400       _cdeStr2Argcv              0000000180056400 f   toroC64:_cdeStr2Argcv.obj
 0001:00055630       __cdeGetCurrentPrivilegeLevel 0000000180056630 f   toroC64:CdeGetCurrentPrivilegeLevel64.obj
 0001:000558c8       isgraph                    00000001800568c8 f   toroC64:isgraph.obj
 0001:000558f0       remove                     00000001800568f0 f   toroC64:Remove.obj
 0001:00055968       __cdeIsFilePointer         0000000180056968 f   toroC64:__cdeIsFilePointer.obj
 0001:000559d8       _stricmp                   00000001800569d8 f   toroC64:_StrICmp.obj
 0001:00055a14       _fseeki64                  0000000180056a14 f   toroC64:_Fseeki64.obj
 0001:00055acc       _ftelli64                  0000000180056acc f   toroC64:_Ftelli64.obj
 0001:00055af4       strpbrk                    0000000180056af4 f   toroC64:StrPbrk.obj
 0001:00055b34       _cdeSscanf                 0000000180056b34 f   toroC64:_cdeSscanf.obj
 0001:00055ba4       islower                    0000000180056ba4 f   toroC64:islower.obj
 0001:00055bb8       isupper                    0000000180056bb8 f   toroC64:isupper.obj
 0001:00055bc4       abort                      0000000180056bc4 f   toroC64:abort.obj
 0001:00055c2c       strrchr                    0000000180056c2c f   toroC64:StrRChr.obj
 0001:00055c7c       __cdeSplitSearchNameExt2Upcase 0000000180056c7c f   toroC64:__cdeSplitSearchNameExt2Upcase.obj
 0001:00055d44       strspn                     0000000180056d44 f   toroC64:StrSpn.obj
 0001:00055d88       __cdeStrMatch              0000000180056d88 f   toroC64:__cdeStrMatch.obj
 0001:00055ee0       realloc                    0000000180056ee0 f   toroC64:Realloc.obj
 0001:00055f18       fgetc                      0000000180056f18 f   toroC64:Fgetc.obj
 0001:00055f68       fputc                      0000000180056f68 f   toroC64:Fputc.obj
 0001:00055fa0       longjmp                    0000000180056fa0 f   toroC64:longjmp64CDEINTRINABI.obj
 0001:00056049       __imp_longjmp              0000000180057049     toroC64:longjmp64CDEINTRINABI.obj
 0001:00056051       __cdeLONGJMPCDEINTRINABIAnchor 0000000180057051     toroC64:longjmp64CDEINTRINABI.obj
 0001:00056054       _cdeSig2idx                0000000180057054 f   toroC64:_cdeSig2idx.obj
 0001:0005607c       _cdeSigIgn                 000000018005707c f   toroC64:_cdeSigIgn.obj
 0001:000560f0       fsetpos                    00000001800570f0 f   toroC64:Fsetpos.obj
 0001:00056124       _CdeDbgCOMInit             0000000180057124 f   toroC64:_CdeDbgCOMInit.obj
 0001:00056240       _CdeDbgCOMReady2Send       0000000180057240 f   toroC64:_CdeDbgCOMReady2Send.obj
 0001:00056270       _CdeDbgCOMSend             0000000180057270 f   toroC64:_CdeDbgCOMSend.obj
 0001:000562c0       _cdeCoreSprintf            00000001800572c0 f   toroC64:_cdeCoreSprintf.obj
 0001:00056368       _cdeUMUL128                0000000180057368 f   toroC64:_cdeUMUL128.obj
 0001:00056468       _cdeGmltime                0000000180057468 f   toroC64:_cdeGmltime.obj
 0001:00056580       __cdeOnErrSet_status       0000000180057580 f   toroC64:__cdeOnErrSet_status.obj
 0001:000565a0       __cdeOffsetCdeFposType     00000001800575a0 f   toroC64:__cdeGetOffsetCdeFposType.obj
 0001:000565e0       __cdeBiasCdeFposType       00000001800575e0 f   toroC64:__cdeGetBiasCdeFposType.obj
 0001:00056808       _CdeLocateHandleBuffer     0000000180057808 f   toroC64:_CdeLocateHandleBuffer.obj
 0001:00056894       _cdeConvertDevicePathToText 0000000180057894 f   toroC64:_cdeConvertDevicePathToText.obj
 0001:000568b0       _CdeGetMapFromDevicePath   00000001800578b0 f   toroC64:_CdeGetMapFromDevicePath.obj
 0001:000568d0       _CdeGetCurDir              00000001800578d0 f   toroC64:_CdeGetCurDir.obj
 0001:00056fe8       _cdeEfiTime2TimeT          0000000180057fe8 f   toroC64:_cdeEfiTime2TimeT.obj
 0001:00057088       __cdeIsFilePointerCORE     0000000180058088 f   toroC64:__cdeIsFilePointerCORE.obj
 0001:0005710c       __cdereallocCORE           000000018005810c f   toroC64:__cdereallocCORE.obj
 0001:0005711c       __cderewindCORE            000000018005811c f   toroC64:__cderewindCORE.obj
 0001:00057138       __cdeGetIOBufferCORE       0000000180058138 f   toroC64:__cdsGetIOBufferCORE.obj
 0001:00057140       _cdeAbort                  0000000180058140 f   toroC64:_cdeAbort.obj
 0001:000574a8       ispunct                    00000001800584a8 f   toroC64:ispunct.obj
 0001:000574d4       isalnum                    00000001800584d4 f   toroC64:isalnum.obj
 0001:000574fc       __cdeOnErrSet_errno        00000001800584fc f   toroC64:__cdeOnErrSet_errno.obj
 0001:0005751c       fsetposCDEABI              000000018005851c f   toroC64:FsetposCDEABI.obj
 0001:00057550       fgetpos                    0000000180058550 f   toroC64:Fgetpos.obj
 0001:000575b0       _cdeMemGetChar             00000001800585b0 f   toroC64:_cdeMemGetChar.obj
 0001:000575c0       _cdeMemUngetChar           00000001800585c0 f   toroC64:_cdeMemUngetChar.obj
 0001:000575c8       raise                      00000001800585c8 f   toroC64:raise.obj
 0001:0005764c       strcspn                    000000018005864c f   toroC64:StrCSpn.obj
 0001:00057690       _strnicmp                  0000000180058690 f   toroC64:_StrNICmp.obj
 0001:000576d8       fwrite                     00000001800586d8 f   toroC64:Fwrite.obj
 0001:00057730       _CdeMemPutChar             0000000180058730 f   toroC64:_CdeMemPutChar.obj
 0001:0005773c       _cdeGreg2Day               000000018005873c f   toroC64:_cdeGreg2Day.obj
 0001:000577b8       _cdeDay2Greg               00000001800587b8 f   toroC64:_cdeDay2Greg.obj
 0001:000578bc       _efierrno                  00000001800588bc f   toroC64:_efierrno.obj
 0001:000578e0       __cdeIsCdeFposType         00000001800588e0 f   toroC64:__cdeIsCdeFposType.obj
 0001:00057958       _cdePoolWcs2AppWcs         0000000180058958 f   toroC64:_CdePoolWcs2AppWcs.obj
 0001:00057a48       __cdeOnErrSet_errnoCORE    0000000180058a48 f   toroC64:__cdeOnErrSet_errnoCORE.obj
 0001:00057a68       __acrt_iob_funcCORE        0000000180058a68 f   toroC64:__acrt_iob_funcCORE.obj
 0001:00057a88       _CdeMemPutNada             0000000180058a88 f   toroC64:_CdeMemPutNada.obj
 0001:00057ac4       _errnoCORE                 0000000180058ac4 f   toroC64:errnoCORE.obj
 0002:00000000       __xc_a                     0000000180059000     toroC64:osifUefiShellEntryPoint.obj
 0002:00000008       __xc_z                     0000000180059008     toroC64:osifUefiShellEntryPoint.obj
 0002:00000010       __xi_a                     0000000180059010     toroC64:osifUefiShellEntryPoint.obj
 0002:00000018       __xi_z                     0000000180059018     toroC64:osifUefiShellEntryPoint.obj
 0002:00000020       __xp_a                     0000000180059020     toroC64:osifUefiShellEntryPoint.obj
 0002:00000028       __xp_z                     0000000180059028     toroC64:osifUefiShellEntryPoint.obj
 0002:00000030       __xt_a                     0000000180059030     toroC64:osifUefiShellEntryPoint.obj
 0002:00000038       __xt_z                     0000000180059038     toroC64:osifUefiShellEntryPoint.obj
 0002:00000068       ??_C@_02JDPG@rb@           0000000180059068     acfileio.obj
 0002:00000070       ??_C@_0BP@FKIGAPLC@Could?5not?5open?5input?5file?3?5?$CFs?6@ 0000000180059070     acfileio.obj
 0002:00000090       ??_C@_0CH@NEDKPAKE@Input?5file?5?$CFs?0?5Length?50x?$CFX?5?$CI?$CFu?$CJ@ 0000000180059090     acfileio.obj
 0002:000000b8       ??_C@_0DL@OIGFDGMB@?5?5?5?5?$CFs?3?5File?5does?5not?5appear?5to@ 00000001800590b8     acfileio.obj
 0002:000000f8       ??_C@_0DG@EDJMELLK@?5?5?5?5?$CFs?3?5Table?5?$FL?$CF4?44s?$FN?5is?5not?5an@ 00000001800590f8     acfileio.obj
 0002:00000130       ??_C@_0M@GHFLPIGP@SEEK?5error?6@ 0000000180059130     acfileio.obj
 0002:00000140       ??_C@_0DN@CBLEKMKN@Could?5not?5read?5entire?5table?5hea@ 0000000180059140     acfileio.obj
 0002:00000180       ??_C@_0OB@DOOMFGPN@?6Table?5appears?5to?5be?5a?5CDAT?5tab@ 0000000180059180     acfileio.obj
 0002:00000270       ??_C@_0EP@GKPNPCHD@Table?5?$FL?$CF4?44s?$FN?5is?5too?5long?5for?5f@ 0000000180059270     acfileio.obj
 0002:000002c0       ??_C@_0EO@DJAABGIL@Table?5?$FLCDAT?$FN?5is?5too?5long?5for?5fi@ 00000001800592c0     acfileio.obj
 0002:00000310       ??_C@_0DI@HMHFJLCB@Table?5header?5for?5?$FL?$CF4?44s?$FN?5has?5in@ 0000000180059310     acfileio.obj
 0002:00000348       ??_C@_0DC@HBBIHPGJ@Table?5has?5been?5corrupted?5by?5tex@ 0000000180059348     acfileio.obj
 0002:00000380       ??_C@_0CK@KFGPNEOI@All?5LFs?5?$CI?$CFu?$CJ?5were?5changed?5to?5CR@ 0000000180059380     acfileio.obj
 0002:000003b0       ??_C@_0BL@DIECLLAA@Table?5cannot?5be?5repaired?$CB?6@ 00000001800593b0     acfileio.obj
 0002:000003d0       AslDeviceIds               00000001800593d0     ahids.obj
 0002:00000dd0       ??_C@_08HKCLKFJF@10EC5640@ 0000000180059dd0     ahids.obj
 0002:00000de0       ??_C@_0BI@DCOACFJG@Realtek?5I2S?5Audio?5Codec@ 0000000180059de0     ahids.obj
 0002:00000df8       ??_C@_08HFMMACCO@80860F09@ 0000000180059df8     ahids.obj
 0002:00000e08       ??_C@_0BF@KENLPBJO@Intel?5PWM?5Controller@ 0000000180059e08     ahids.obj
 0002:00000e20       ??_C@_08JCCKPBNA@80860F0A@ 0000000180059e20     ahids.obj
 0002:00000e30       ??_C@_0BL@NMCJOMCL@Intel?5Atom?5UART?5Controller@ 0000000180059e30     ahids.obj
 0002:00000e50       ??_C@_08PGEGDENE@80860F0E@ 0000000180059e50     ahids.obj
 0002:00000e60       ??_C@_0BF@BANCFLLB@Intel?5SPI?5Controller@ 0000000180059e60     ahids.obj
 0002:00000e78       ??_C@_08MBKABGFE@80860F14@ 0000000180059e78     ahids.obj
 0002:00000e88       ??_C@_0CI@EMKCNGGA@Intel?5Baytrail?5SDIO?1MMC?5Host?5Co@ 0000000180059e88     ahids.obj
 0002:00000eb0       ??_C@_08GPFDOHAB@80860F28@ 0000000180059eb0     ahids.obj
 0002:00000ec0       ??_C@_0BE@LOOOLLFF@Intel?5SST?5Audio?5DSP@ 0000000180059ec0     ahids.obj
 0002:00000ed8       ??_C@_08LKBMCAPK@80860F41@ 0000000180059ed8     ahids.obj
 0002:00000ee8       ??_C@_0CD@KGBEPOKE@Intel?5Baytrail?5I2C?5Host?5Control@ 0000000180059ee8     ahids.obj
 0002:00000f10       ??_C@_08MPLDCJAN@ACPI0001@ 0000000180059f10     ahids.obj
 0002:00000f20       ??_C@_0BK@MCBLEEBM@SMBus?51?40?5Host?5Controller@ 0000000180059f20     ahids.obj
 0002:00000f40       ??_C@_08OEJOHKMO@ACPI0002@ 0000000180059f40     ahids.obj
 0002:00000f50       ??_C@_0BI@JBKFIMCE@Smart?5Battery?5Subsystem@ 0000000180059f50     ahids.obj
 0002:00000f68       ??_C@_08PNIFELIP@ACPI0003@ 0000000180059f68     ahids.obj
 0002:00000f78       ??_C@_0BE@EFMPIDDC@Power?5Source?5Device@ 0000000180059f78     ahids.obj
 0002:00000f90       ??_C@_08LCMENNEI@ACPI0004@ 0000000180059f90     ahids.obj
 0002:00000fa0       ??_C@_0O@PLCGGNIC@Module?5Device@ 0000000180059fa0     ahids.obj
 0002:00000fb0       ??_C@_08KLNPOMAJ@ACPI0005@ 0000000180059fb0     ahids.obj
 0002:00000fc0       ??_C@_0BK@GNLCAJNG@SMBus?52?40?5Host?5Controller@ 0000000180059fc0     ahids.obj
 0002:00000fe0       ??_C@_08IAPCLPMK@ACPI0006@ 0000000180059fe0     ahids.obj
 0002:00000ff0       ??_C@_0BB@BDGKEPIC@GPE?5Block?5Device@ 0000000180059ff0     ahids.obj
 0002:00001008       ??_C@_08JJOJIOIL@ACPI0007@ 000000018005a008     ahids.obj
 0002:00001018       ??_C@_0BB@GIBGBIIA@Processor?5Device@ 000000018005a018     ahids.obj
 0002:00001030       ??_C@_08BOHBJCEE@ACPI0008@ 000000018005a030     ahids.obj
 0002:00001040       ??_C@_0BM@MGDPGGJE@Ambient?5Light?5Sensor?5Device@ 000000018005a040     ahids.obj
 0002:00001060       ??_C@_08HGKKDAF@ACPI0009@  000000018005a060     ahids.obj
 0002:00001070       ??_C@_0BB@FLBEDEG@I?1O?5xAPIC?5Device@ 000000018005a070     ahids.obj
 0002:00001088       ??_C@_08OAIMFAPL@ACPI000A@ 000000018005a088     ahids.obj
 0002:00001098       ??_C@_0BA@LNDLGGME@I?1O?5APIC?5Device@ 000000018005a098     ahids.obj
 0002:000010a8       ??_C@_08MLKBADDI@ACPI000B@ 000000018005a0a8     ahids.obj
 0002:000010b8       ??_C@_0BB@FBAGLHBA@I?1O?5SAPIC?5Device@ 000000018005a0b8     ahids.obj
 0002:000010d0       ??_C@_08NCLKDCHJ@ACPI000C@ 000000018005a0d0     ahids.obj
 0002:000010e0       ??_C@_0BM@JFNELCAF@Processor?5Aggregator?5Device@ 000000018005a0e0     ahids.obj
 0002:00001100       ??_C@_08JNPLKELO@ACPI000D@ 000000018005a100     ahids.obj
 0002:00001110       ??_C@_0BD@JABFHJLF@Power?5Meter?5Device@ 000000018005a110     ahids.obj
 0002:00001128       ??_C@_08IEOAJFPP@ACPI000E@ 000000018005a128     ahids.obj
 0002:00001138       ??_C@_0BG@DIFJEJMG@Time?5and?5Alarm?5Device@ 000000018005a138     ahids.obj
 0002:00001150       ??_C@_08KPMNMGDM@ACPI000F@ 000000018005a150     ahids.obj
 0002:00001160       ??_C@_0BP@KJKELAGN@User?5Presence?5Detection?5Device@ 000000018005a160     ahids.obj
 0002:00001180       ??_C@_08NHGKHCHL@ACPI0010@ 000000018005a180     ahids.obj
 0002:00001190       ??_C@_0BL@IANBIBOF@Processor?5Container?5Device@ 000000018005a190     ahids.obj
 0002:000011b0       ??_C@_08MOHBEDDK@ACPI0011@ 000000018005a1b0     ahids.obj
 0002:000011c0       ??_C@_0BH@IANOKACP@Generic?5Buttons?5Device@ 000000018005a1c0     ahids.obj
 0002:000011d8       ??_C@_08OFFMBAPJ@ACPI0012@ 000000018005a1d8     ahids.obj
 0002:000011e8       ??_C@_0BD@CFDAKCAD@NVDIMM?5Root?5Device@ 000000018005a1e8     ahids.obj
 0002:00001200       ??_C@_08PMEHCBLI@ACPI0013@ 000000018005a200     ahids.obj
 0002:00001210       ??_C@_0BF@EKLNAOAJ@Generic?5Event?5Device@ 000000018005a210     ahids.obj
 0002:00001228       ??_C@_08LDAGLHHP@ACPI0014@ 000000018005a228     ahids.obj
 0002:00001238       ??_C@_0CC@LGJIFPIF@Wireless?5Power?5Calibration?5Devi@ 000000018005a238     ahids.obj
 0002:00001260       ??_C@_08KKBNIGDO@ACPI0015@ 000000018005a260     ahids.obj
 0002:00001270       ??_C@_0BL@KABGMHJN@USB4?5host?5interface?5device@ 000000018005a270     ahids.obj
 0002:00001290       ??_C@_08IBDANFPN@ACPI0016@ 000000018005a290     ahids.obj
 0002:000012a0       ??_C@_0CB@OGJPDKHD@Compute?5Express?5Link?5Host?5Bridg@ 000000018005a2a0     ahids.obj
 0002:000012c8       ??_C@_08LDDOMPBA@ADMA0F28@ 000000018005a2c8     ahids.obj
 0002:000012d8       ??_C@_0BA@DICBJKBA@Intel?5Audio?5DMA@ 000000018005a2d8     ahids.obj
 0002:000012e8       ??_C@_08HJAMNPFD@AMCR0F28@ 000000018005a2e8     ahids.obj
 0002:000012f8       ??_C@_0BL@KDLKCHLB@Intel?5Audio?5Machine?5Driver@ 000000018005a2f8     ahids.obj
 0002:00001318       ??_C@_07ILFDNBCL@ATK4001@  000000018005a318     ahids.obj
 0002:00001320       ??_C@_0BK@EDAKBAEK@Asus?5Radio?5Control?5Button@ 000000018005a320     ahids.obj
 0002:00001340       ??_C@_08MLHCGFHD@ATML1000@ 000000018005a340     ahids.obj
 0002:00001350       ??_C@_0BN@OMEPJPNI@Atmel?5Touchscreen?5Controller@ 000000018005a350     ahids.obj
 0002:00001370       ??_C@_08LCLDHOGE@AUTH2750@ 000000018005a370     ahids.obj
 0002:00001380       ??_C@_0BC@LDJACLMH@AuthenTec?5AES2750@ 000000018005a380     ahids.obj
 0002:00001398       ??_C@_07GIMCAGMK@BCM2E39@  000000018005a398     ahids.obj
 0002:000013a0       ??_C@_0DH@KKCAJFMD@Broadcom?5BT?5Serial?5Bus?5Driver?5o@ 000000018005a3a0     ahids.obj
 0002:000013d8       ??_C@_08IKKCLCGH@BCM4752E@ 000000018005a3d8     ahids.obj
 0002:000013e8       ??_C@_0BI@BBEGIDCE@Broadcom?5GPS?5Controller@ 000000018005a3e8     ahids.obj
 0002:00001400       ??_C@_07NAPCEDPI@BMG0160@  000000018005a400     ahids.obj
 0002:00001408       ??_C@_0BC@DJEHMKGK@Bosch?5Gyro?5Sensor@ 000000018005a408     ahids.obj
 0002:00001420       ??_C@_08BFDHOAMK@CPLM3218@ 000000018005a420     ahids.obj
 0002:00001430       ??_C@_0CL@DIELNO@Capella?5Micro?5CM3218x?5Ambient?5L@ 000000018005a430     ahids.obj
 0002:00001460       ??_C@_08KLJIMJFP@DELLABCE@ 000000018005a460     ahids.obj
 0002:00001470       ??_C@_0CB@IFOHLOBF@Dell?5Airplane?5Mode?5Switch?5Drive@ 000000018005a470     ahids.obj
 0002:00001498       ??_C@_08FALLODOB@DLAC3002@ 000000018005a498     ahids.obj
 0002:000014a8       ??_C@_0CK@BBCAIAND@Qualcomm?5Atheros?5Bluetooth?5UART@ 000000018005a4a8     ahids.obj
 0002:000014d8       ??_C@_08FCMAGCMF@FTTH5506@ 000000018005a4d8     ahids.obj
 0002:000014e8       ??_C@_0CA@JCJMGDCK@FocalTech?55506?5Touch?5Controller@ 000000018005a4e8     ahids.obj
 0002:00001508       ??_C@_07DJDOPNBL@HAD0F28@  000000018005a508     ahids.obj
 0002:00001510       ??_C@_0BI@IBIKOPBI@Intel?5HDMI?5Audio?5Driver@ 000000018005a510     ahids.obj
 0002:00001528       ??_C@_08KHKPABAE@INBC0000@ 000000018005a528     ahids.obj
 0002:00001538       ??_C@_0O@KBLOPEJO@GPIO?5Expander@ 000000018005a538     ahids.obj
 0002:00001548       ??_C@_07LHDFEMFD@INT0002@  000000018005a548     ahids.obj
 0002:00001550       ??_C@_0BI@EEBGCEOF@Virtual?5GPIO?5Controller@ 000000018005a550     ahids.obj
 0002:00001568       ??_C@_07EALHAGDO@INT0800@  000000018005a568     ahids.obj
 0002:00001570       ??_C@_0CA@BFALGHEL@Intel?582802?5Firmware?5Hub?5Device@ 000000018005a570     ahids.obj
 0002:00001590       ??_C@_07LLKLAFGE@INT3394@  000000018005a590     ahids.obj
 0002:00001598       ??_C@_0BA@OHPDIMPD@ACPI?5System?5Fan@ 000000018005a598     ahids.obj
 0002:000015a8       ??_C@_07IJJNGHOG@INT3396@  000000018005a5a8     ahids.obj
 0002:000015b0       ??_C@_0CF@BLAKBIPK@Standard?5Power?5Management?5Contr@ 000000018005a5b0     ahids.obj
 0002:000015d8       ??_C@_07IFCFPJII@INT33A0@  000000018005a5d8     ahids.obj
 0002:000015e0       ??_C@_0CG@BKGDGCKH@Intel?5Smart?5Connect?5Technology?5@ 000000018005a5e0     ahids.obj
 0002:00001608       ??_C@_07JMDOMIMJ@INT33A1@  000000018005a608     ahids.obj
 0002:00001610       ??_C@_0BD@FBNLCLOP@Intel?5Power?5Engine@ 000000018005a610     ahids.obj
 0002:00001628       ??_C@_07JKGKFMKF@INT33BB@  000000018005a628     ahids.obj
 0002:00001630       ??_C@_0CC@DPHMPFNL@Intel?5Baytrail?5SD?5Host?5Controll@ 000000018005a630     ahids.obj
 0002:00001658       ??_C@_07MMDAPLCD@INT33BD@  000000018005a658     ahids.obj
 0002:00001660       ??_C@_0BO@HHKDFDHM@Intel?5Baytrail?5Mailbox?5Device@ 000000018005a660     ahids.obj
 0002:00001680       ??_C@_07NFCLMKGC@INT33BE@  000000018005a680     ahids.obj
 0002:00001688       ??_C@_0BF@GJILPOHM@Camera?5Sensor?5OV5693@ 000000018005a688     ahids.obj
 0002:000016a0       ??_C@_07IGKBCNOG@INT33C0@  000000018005a6a0     ahids.obj
 0002:000016a8       ??_C@_0CF@HJHCJCCA@Intel?5Serial?5I?1O?5SPI?5Host?5Contr@ 000000018005a6a8     ahids.obj
 0002:000016d0       ??_C@_07JPLKBMKH@INT33C1@  000000018005a6d0     ahids.obj
 0002:000016d8       ??_C@_07LEJHEPGE@INT33C2@  000000018005a6d8     ahids.obj
 0002:000016e0       ??_C@_0CF@MDBMMAHJ@Intel?5Serial?5I?1O?5I2C?5Host?5Contr@ 000000018005a6e0     ahids.obj
 0002:00001708       ??_C@_07KNIMHOCF@INT33C3@  000000018005a708     ahids.obj
 0002:00001710       ??_C@_07OCMNOIOC@INT33C4@  000000018005a710     ahids.obj
 0002:00001718       ??_C@_0CG@NLFIBJJG@Intel?5Serial?5I?1O?5UART?5Host?5Cont@ 000000018005a718     ahids.obj
 0002:00001740       ??_C@_07PLNGNJKD@INT33C5@  000000018005a740     ahids.obj
 0002:00001748       ??_C@_07NAPLIKGA@INT33C6@  000000018005a748     ahids.obj
 0002:00001750       ??_C@_0BJ@CNJMGLGP@Intel?5SD?5Host?5Controller@ 000000018005a750     ahids.obj
 0002:00001770       ??_C@_07MJOALLCB@INT33C7@  000000018005a770     ahids.obj
 0002:00001778       ??_C@_0CG@JLBIBFDE@Intel?5Serial?5I?1O?5GPIO?5Host?5Cont@ 000000018005a778     ahids.obj
 0002:000017a0       ??_C@_07EOHIKHOO@INT33C8@  000000018005a7a0     ahids.obj
 0002:000017a8       ??_C@_0CN@KAHFBPHJ@Intel?5Smart?5Sound?5Technology?5Ho@ 000000018005a7a8     ahids.obj
 0002:000017d8       ??_C@_07FHGDJGKP@INT33C9@  000000018005a7d8     ahids.obj
 0002:000017e0       ??_C@_0CG@EDIGABHN@Wolfson?5Microelectronics?5Audio?5@ 000000018005a7e0     ahids.obj
 0002:00001808       ??_C@_07LAIFGFFB@INT33CA@  000000018005a808     ahids.obj
 0002:00001810       ??_C@_0BF@JOGDLHMB@Intel?5SPB?5Peripheral@ 000000018005a810     ahids.obj
 0002:00001828       ??_C@_07JLKIDGJC@INT33CB@  000000018005a828     ahids.obj
 0002:00001830       ??_C@_0CJ@NGAJNIDJ@Intel?5Smart?5Sound?5Technology?5Au@ 000000018005a830     ahids.obj
 0002:00001860       ??_C@_07JKPFAKCC@INT33D1@  000000018005a860     ahids.obj
 0002:00001868       ??_C@_0BD@GIGJMNL@Intel?5GPIO?5Buttons@ 000000018005a868     ahids.obj
 0002:00001880       ??_C@_07LBNIFJOB@INT33D2@  000000018005a880     ahids.obj
 0002:00001888       ??_C@_07KIMDGIKA@INT33D3@  000000018005a888     ahids.obj
 0002:00001890       ??_C@_07OHICPOGH@INT33D4@  000000018005a890     ahids.obj
 0002:00001898       ??_C@_07NFLEJMOF@INT33D6@  000000018005a898     ahids.obj
 0002:000018a0       ??_C@_0BN@IJEJAJHF@Intel?5Virtual?5Buttons?5Device@ 000000018005a8a0     ahids.obj
 0002:000018c0       ??_C@_07IAGKOPAN@INT33F0@  000000018005a8c0     ahids.obj
 0002:000018c8       ??_C@_0BG@ILKLOGO@Camera?5Sensor?5MT9M114@ 000000018005a8c8     ahids.obj
 0002:000018e0       ??_C@_07OEAGCKAJ@INT33F4@  000000018005a8e0     ahids.obj
 0002:000018e8       ??_C@_0BH@IMAIKDDI@XPOWER?5PMIC?5Controller@ 000000018005a8e8     ahids.obj
 0002:00001900       ??_C@_07PNBNBLEI@INT33F5@  000000018005a900     ahids.obj
 0002:00001908       ??_C@_0BD@NIECAAJE@TI?5PMIC?5Controller@ 000000018005a908     ahids.obj
 0002:00001920       ??_C@_07JNGDPEHJ@INT33FB@  000000018005a920     ahids.obj
 0002:00001928       ??_C@_0BO@JHGJLLKH@MIPI?9CSI?5Camera?5Sensor?5OV2722@ 000000018005a928     ahids.obj
 0002:00001948       ??_C@_07IEHIMFDI@INT33FC@  000000018005a948     ahids.obj
 0002:00001950       ??_C@_0BP@BGOAFBPF@Intel?5Baytrail?5GPIO?5Controller@ 000000018005a950     ahids.obj
 0002:00001970       ??_C@_07MLDJFDPP@INT33FD@  000000018005a970     ahids.obj
 0002:00001978       ??_C@_0CD@LOLOFCCI@Intel?5Baytrail?5Power?5Management@ 000000018005a978     ahids.obj
 0002:000019a0       ??_C@_07NCCCGCLO@INT33FE@  000000018005a9a0     ahids.obj
 0002:000019a8       ??_C@_0BG@GKGECMLN@XPOWER?5Battery?5Device@ 000000018005a9a8     ahids.obj
 0002:000019c0       ??_C@_07ENMBMDFG@INT3400@  000000018005a9c0     ahids.obj
 0002:000019c8       ??_C@_0CL@DFEKGEMJ@Intel?5Dynamic?5Power?5Performance@ 000000018005a9c8     ahids.obj
 0002:000019f8       ??_C@_07FENKPCBH@INT3401@  000000018005a9f8     ahids.obj
 0002:00001a00       ??_C@_0CB@OMHEPCLK@Intel?5Extended?5Thermal?5Model?5CP@ 000000018005aa00     ahids.obj
 0002:00001a28       ??_C@_07GGOMJAJF@INT3403@  000000018005aa28     ahids.obj
 0002:00001a30       ??_C@_0BI@GNJOBMAM@DPTF?5Temperature?5Sensor@ 000000018005aa30     ahids.obj
 0002:00001a48       ??_C@_07BLJLGENA@INT3406@  000000018005aa48     ahids.obj
 0002:00001a50       ??_C@_0DP@FLAAFFOE@Intel?5Dynamic?5Platform?5?$CG?5Therma@ 000000018005aa50     ahids.obj
 0002:00001a90       ??_C@_07CIAFFJB@INT3407@   000000018005aa90     ahids.obj
 0002:00001a98       ??_C@_0BK@PMILPJEL@DPTF?5Platform?5Power?5Meter@ 000000018005aa98     ahids.obj
 0002:00001ab8       ??_C@_07BPIJEOOF@INT340E@  000000018005aab8     ahids.obj
 0002:00001ac0       ??_C@_0BG@JBGEKGEB@Motherboard?5Resources@ 000000018005aac0     ahids.obj
 0002:00001ad8       ??_C@_07EOEFBHDI@INT3420@  000000018005aad8     ahids.obj
 0002:00001ae0       ??_C@_0BI@JFMPGOJN@Intel?5Bluetooth?5RF?5Kill@ 000000018005aae0     ahids.obj
 0002:00001af8       ??_C@_07MHKEBHLD@INT3F0D@  000000018005aaf8     ahids.obj
 0002:00001b00       ??_C@_0BL@ENLOGMLO@ACPI?5Motherboard?5Resources@ 000000018005ab00     ahids.obj
 0002:00001b20       ??_C@_07ECMDGJAO@INTCF1A@  000000018005ab20     ahids.obj
 0002:00001b28       ??_C@_0BK@OEGBHIEG@Sony?5IMX175?5Camera?5Sensor@ 000000018005ab28     ahids.obj
 0002:00001b48       ??_C@_07PHBPDAEL@INTCFD9@  000000018005ab48     ahids.obj
 0002:00001b50       ??_C@_0CD@NBLGANGD@Intel?5Baytrail?5SOC?5GPIO?5Control@ 000000018005ab50     ahids.obj
 0002:00001b78       ??_C@_08CCOAALJE@INTL9C60@ 000000018005ab78     ahids.obj
 0002:00001b88       ??_C@_0CC@IEKMEPJP@Intel?5Baytrail?5SOC?5DMA?5Controll@ 000000018005ab88     ahids.obj
 0002:00001bb0       ??_C@_08DADOKPJF@INVN6500@ 000000018005abb0     ahids.obj
 0002:00001bc0       ??_C@_0DJ@BCNGPNIK@InvenSense?5MPU?96500?5Six?5Axis?5Gy@ 000000018005abc0     ahids.obj
 0002:00001bfc       ??_C@_06PONIKAOI@LNXCPU@   000000018005abfc     ahids.obj
 0002:00001c08       ??_C@_0BC@LAKONDKB@Linux?5Logical?5CPU@ 000000018005ac08     ahids.obj
 0002:00001c20       ??_C@_08HDFGOMME@LNXPOWER@ 000000018005ac20     ahids.obj
 0002:00001c30       ??_C@_0CD@PLJDKOCA@ACPI?5Power?5Resource?5?$CIpower?5gati@ 000000018005ac30     ahids.obj
 0002:00001c58       ??_C@_08PHCAILGN@LNXPWRBN@ 000000018005ac58     ahids.obj
 0002:00001c68       ??_C@_0BE@GEBHCHML@System?5Power?5Button@ 000000018005ac68     ahids.obj
 0002:00001c80       ??_C@_08HIJIMJNE@LNXSYBUS@ 000000018005ac80     ahids.obj
 0002:00001c90       ??_C@_0L@FFFMHLOE@System?5Bus@ 000000018005ac90     ahids.obj
 0002:00001ca0       ??_C@_08EFLOKMMG@LNXSYSTM@ 000000018005aca0     ahids.obj
 0002:00001cb0       ??_C@_0P@LPIBBNBK@ACPI?5Root?5Node@ 000000018005acb0     ahids.obj
 0002:00001cc0       ??_C@_08HEMEFGLN@LNXTHERM@ 000000018005acc0     ahids.obj
 0002:00001cd0       ??_C@_0BC@PPPDJAKF@ACPI?5Thermal?5Zone@ 000000018005acd0     ahids.obj
 0002:00001ce8       ??_C@_08JHIPGOBE@LNXVIDEO@ 000000018005ace8     ahids.obj
 0002:00001cf8       ??_C@_0BG@MJGEIAPJ@ACPI?5Video?5Controller@ 000000018005acf8     ahids.obj
 0002:00001d10       ??_C@_08FMEPMPOF@MAX17047@ 000000018005ad10     ahids.obj
 0002:00001d20       ??_C@_0BG@IKFOHHIJ@Fuel?5Gauge?5Controller@ 000000018005ad20     ahids.obj
 0002:00001d38       ??_C@_08FGMGDEOG@MSFT0101@ 000000018005ad38     ahids.obj
 0002:00001d48       ??_C@_0BI@OMJJLCNA@TPM?52?40?5Security?5Device@ 000000018005ad48     ahids.obj
 0002:00001d60       ??_C@_07GCOEBOFD@NXP5442@  000000018005ad60     ahids.obj
 0002:00001d68       ??_C@_0CO@IABHPJHP@NXP?55442?5Near?5Field?5Communicati@ 000000018005ad68     ahids.obj
 0002:00001d98       ??_C@_07GAKCKAAK@NXP5472@  000000018005ad98     ahids.obj
 0002:00001da0       ??_C@_07KPDHLCNA@NXP?5NFC@ 000000018005ada0     ahids.obj
 0002:00001da8       ??_C@_07HNGGEGMH@PNP0000@  000000018005ada8     ahids.obj
 0002:00001db0       ??_C@_0DC@BNNPDEOD@8259?9compatible?5Programmable?5In@ 000000018005adb0     ahids.obj
 0002:00001de8       ??_C@_07GEHNHHIG@PNP0001@  000000018005ade8     ahids.obj
 0002:00001df0       ??_C@_0BK@OMMJDBKM@EISA?5Interrupt?5Controller@ 000000018005adf0     ahids.obj
 0002:00001e10       ??_C@_07EPFACEEF@PNP0002@  000000018005ae10     ahids.obj
 0002:00001e18       ??_C@_0BJ@CHGPODLN@MCA?5Interrupt?5Controller@ 000000018005ae18     ahids.obj
 0002:00001e38       ??_C@_07FGELBFAE@PNP0003@  000000018005ae38     ahids.obj
 0002:00001e40       ??_C@_0BN@IEKMCKFK@IO?9APIC?5Interrupt?5Controller@ 000000018005ae40     ahids.obj
 0002:00001e60       ??_C@_07MFNKCBKC@PNP0100@  000000018005ae60     ahids.obj
 0002:00001e68       ??_C@_0BG@GCHPJLCC@PC?9class?5System?5Timer@ 000000018005ae68     ahids.obj
 0002:00001e80       ??_C@_07OOPHHCGB@PNP0103@  000000018005ae80     ahids.obj
 0002:00001e88       ??_C@_0BC@HMILBLFJ@HPET?5System?5Timer@ 000000018005ae88     ahids.obj
 0002:00001ea0       ??_C@_07NHGPIOEM@PNP0200@  000000018005aea0     ahids.obj
 0002:00001ea8       ??_C@_0BI@LGAGBKEJ@PC?9class?5DMA?5Controller@ 000000018005aea8     ahids.obj
 0002:00001ec0       ??_C@_07GPNDOJCJ@PNP0300@  000000018005aec0     ahids.obj
 0002:00001ec8       ??_C@_0CH@LCCGEFBD@IBM?5PC?1XT?5Keyboard?5Controller?5?$CI@ 000000018005aec8     ahids.obj
 0002:00001ef0       ??_C@_07HGMINIGI@PNP0301@  000000018005aef0     ahids.obj
 0002:00001ef8       ??_C@_0CH@OABOGKLE@IBM?5PC?1XT?5Keyboard?5Controller?5?$CI@ 000000018005aef8     ahids.obj
 0002:00001f20       ??_C@_07FNOFILKL@PNP0302@  000000018005af20     ahids.obj
 0002:00001f28       ??_C@_0CH@HHIBHLJN@IBM?5PC?1XT?5Keyboard?5Controller?5?$CI@ 000000018005af28     ahids.obj
 0002:00001f50       ??_C@_07EEPOLKOK@PNP0303@  000000018005af50     ahids.obj
 0002:00001f58       ??_C@_0DA@KCMPNCAI@IBM?5Enhanced?5Keyboard?5?$CI101?1102?9@ 000000018005af58     ahids.obj
 0002:00001f88       ??_C@_07PCAENBJA@PNP0400@  000000018005af88     ahids.obj
 0002:00001f90       ??_C@_0BL@JMJFCAMJ@Standard?5LPT?5Parallel?5Port@ 000000018005af90     ahids.obj
 0002:00001fb0       ??_C@_07OLBPOANB@PNP0401@  000000018005afb0     ahids.obj
 0002:00001fb8       ??_C@_0BC@MANLEEAO@ECP?5Parallel?5Port@ 000000018005afb8     ahids.obj
 0002:00001fd0       ??_C@_07EKLILGPF@PNP0500@  000000018005afd0     ahids.obj
 0002:00001fd8       ??_C@_0BM@MNEOBBOO@Standard?5PC?5COM?5Serial?5Port@ 000000018005afd8     ahids.obj
 0002:00001ff8       ??_C@_07FDKDIHLE@PNP0501@  000000018005aff8     ahids.obj
 0002:00002000       ??_C@_0CC@JANOAGBF@16550A?9compatible?5COM?5Serial?5Po@ 000000018005b000     ahids.obj
 0002:00002028       ??_C@_07ELHKNMMC@PNP0510@  000000018005b028     ahids.obj
 0002:00002030       ??_C@_0BP@GACLOANC@Generic?5IRDA?9compatible?5Device@ 000000018005b030     ahids.obj
 0002:00002050       ??_C@_07LINCGOCI@PNP0800@  000000018005b050     ahids.obj
 0002:00002058       ??_C@_0CJ@LJCKCDAA@Microsoft?5Sound?5System?5Compatib@ 000000018005b058     ahids.obj
 0002:00002088       ??_C@_07IFMINCPN@PNP0A03@  000000018005b088     ahids.obj
 0002:00002090       ??_C@_07DELLNICM@PCI?5Bus@ 000000018005b090     ahids.obj
 0002:00002098       ??_C@_07NDJCHFHL@PNP0A05@  000000018005b098     ahids.obj
 0002:000020a0       ??_C@_0BJ@CFLPFKOE@Generic?5Container?5Device@ 000000018005b0a0     ahids.obj
 0002:000020c0       ??_C@_07PILPCGLI@PNP0A06@  000000018005b0c0     ahids.obj
 0002:000020c8       ??_C@_07GGDMALDG@PNP0A08@  000000018005b0c8     ahids.obj
 0002:000020d0       ??_C@_0BA@PGPOBHCJ@PCI?5Express?5Bus@ 000000018005b0d0     ahids.obj
 0002:000020e0       ??_C@_07LMFACONA@PNP0B00@  000000018005b0e0     ahids.obj
 0002:000020e8       ??_C@_0BD@FGKBOAIF@AT?5Real?9Time?5Clock@ 000000018005b0e8     ahids.obj
 0002:00002100       ??_C@_07KFELBPJB@PNP0B01@  000000018005b100     ahids.obj
 0002:00002108       ??_C@_0CH@DGIPJCPO@Intel?5PIIX4?9compatible?5RTC?1CMOS@ 000000018005b108     ahids.obj
 0002:00002130       ??_C@_07IOGGEMFC@PNP0B02@  000000018005b130     ahids.obj
 0002:00002138       ??_C@_0DA@GHGMNOJI@Dallas?5Semiconductor?9compatible@ 000000018005b138     ahids.obj
 0002:00002168       ??_C@_07BNPHHIPE@PNP0C01@  000000018005b168     ahids.obj
 0002:00002170       ??_C@_0N@HLGBMJKK@System?5Board@ 000000018005b170     ahids.obj
 0002:00002180       ??_C@_07DGNKCLDH@PNP0C02@  000000018005b180     ahids.obj
 0002:00002188       ??_C@_0BK@FPIGHIDA@PNP?5Motherboard?5Resources@ 000000018005b188     ahids.obj
 0002:000021a8       ??_C@_07GAIAIMLB@PNP0C04@  000000018005b1a8     ahids.obj
 0002:000021b0       ??_C@_0CO@GPGFBND@x87?9compatible?5Floating?5Point?5P@ 000000018005b1b0     ahids.obj
 0002:000021e0       ??_C@_07MMDFMDLN@PNP0C08@  000000018005b1e0     ahids.obj
 0002:000021e8       ??_C@_0BD@HKDLDEEA@ACPI?5Core?5Hardware@ 000000018005b1e8     ahids.obj
 0002:00002200       ??_C@_07NFCOPCPM@PNP0C09@  000000018005b200     ahids.obj
 0002:00002208       ??_C@_0BL@DPMADKJG@Embedded?5Controller?5Device@ 000000018005b208     ahids.obj
 0002:00002228       ??_C@_07DCMIABAC@PNP0C0A@  000000018005b228     ahids.obj
 0002:00002230       ??_C@_0BH@DBFPFLPI@Control?5Method?5Battery@ 000000018005b230     ahids.obj
 0002:00002248       ??_C@_07BJOFFCMB@PNP0C0B@  000000018005b248     ahids.obj
 0002:00002250       ??_C@_0BH@JIJIENLK@Fan?5?$CIThermal?5Solution?$CJ@ 000000018005b250     ahids.obj
 0002:00002268       ??_C@_07POGDIA@PNP0C0C@    000000018005b268     ahids.obj
 0002:00002270       ??_C@_0BE@NLFDGGKL@Power?5Button?5Device@ 000000018005b270     ahids.obj
 0002:00002288       ??_C@_07EPLPPFEH@PNP0C0D@  000000018005b288     ahids.obj
 0002:00002290       ??_C@_0L@BHPLNAIB@Lid?5Device@ 000000018005b290     ahids.obj
 0002:000022a0       ??_C@_07FGKEMEAG@PNP0C0E@  000000018005b2a0     ahids.obj
 0002:000022a8       ??_C@_0BE@HLHLLPDA@Sleep?5Button?5Device@ 000000018005b2a8     ahids.obj
 0002:000022c0       ??_C@_07HNIJJHMF@PNP0C0F@  000000018005b2c0     ahids.obj
 0002:000022c8       ??_C@_0BK@CEAOKMFI@PCI?5Interrupt?5Link?5Device@ 000000018005b2c8     ahids.obj
 0002:000022e8       ??_C@_07FCOCDIC@PNP0C10@   000000018005b2e8     ahids.obj
 0002:000022f0       ??_C@_0BI@CBNPLKEP@System?5Indicator?5Device@ 000000018005b2f0     ahids.obj
 0002:00002308       ??_C@_07BMDFBCMD@PNP0C11@  000000018005b308     ahids.obj
 0002:00002310       ??_C@_0N@HFCLDNDF@Thermal?5Zone@ 000000018005b310     ahids.obj
 0002:00002320       ??_C@_07DHBIEBAA@PNP0C12@  000000018005b320     ahids.obj
 0002:00002328       ??_C@_0BG@DFFEFFLI@Device?5Bay?5Controller@ 000000018005b328     ahids.obj
 0002:00002340       ??_C@_07GBECOGIG@PNP0C14@  000000018005b340     ahids.obj
 0002:00002348       ??_C@_0CK@OABDNIEK@Windows?5Management?5Instrumentat@ 000000018005b348     ahids.obj
 0002:00002378       ??_C@_07HIFJNHMH@PNP0C15@  000000018005b378     ahids.obj
 0002:00002380       ??_C@_0BA@BCAHNJPL@Docking?5Station@ 000000018005b380     ahids.obj
 0002:00002390       ??_C@_07CNIHKECP@PNP0C33@  000000018005b390     ahids.obj
 0002:00002398       ??_C@_0N@LDADDBJK@Error?5Device@ 000000018005b398     ahids.obj
 0002:000023a8       ??_C@_07DOFOBGJ@PNP0C40@   000000018005b3a8     ahids.obj
 0002:000023b0       ??_C@_0BL@BNIFNEOI@Standard?5Button?5Controller@ 000000018005b3b0     ahids.obj
 0002:000023d0       ??_C@_07CCHILFO@PNP0C50@   000000018005b3d0     ahids.obj
 0002:000023d8       ??_C@_0BO@PILGHBCB@HID?5Protocol?5Device?5?$CII2C?5bus?$CJ@ 000000018005b3d8     ahids.obj
 0002:000023f8       ??_C@_07GBDFAH@PNP0C60@    000000018005b3f8     ahids.obj
 0002:00002400       ??_C@_0BG@OGDEFHHK@Display?5Sensor?5Device@ 000000018005b400     ahids.obj
 0002:00002418       ??_C@_07BKDFPDA@PNP0C70@   000000018005b418     ahids.obj
 0002:00002420       ??_C@_0BD@DIADHNKF@Dock?5Sensor?5Device@ 000000018005b420     ahids.obj
 0002:00002438       ??_C@_07KPPBIAN@PNP0C80@   000000018005b438     ahids.obj
 0002:00002440       ??_C@_0O@GDBKKNEE@Memory?5Device@ 000000018005b440     ahids.obj
 0002:00002450       ??_C@_07JIPJBLDL@PNP0D10@  000000018005b450     ahids.obj
 0002:00002458       ??_C@_0BP@EHDECEKL@XHCI?5USB?5Controller?5with?5debug@ 000000018005b458     ahids.obj
 0002:00002478       ??_C@_07OFIOOPHO@PNP0D15@  000000018005b478     ahids.obj
 0002:00002480       ??_C@_0CC@OJBNBCCC@XHCI?5USB?5Controller?5without?5deb@ 000000018005b480     ahids.obj
 0002:000024a8       ??_C@_07JKLPKFGC@PNP0D20@  000000018005b4a8     ahids.obj
 0002:000024b0       ??_C@_0CC@IFEDJBJO@EHCI?5USB?5Controller?5without?5deb@ 000000018005b4b0     ahids.obj
 0002:000024d8       ??_C@_07OHMIFBCH@PNP0D25@  000000018005b4d8     ahids.obj
 0002:000024e0       ??_C@_0BP@OLANKEKG@EHCI?5USB?5Controller?5with?5debug@ 000000018005b4e0     ahids.obj
 0002:00002500       ??_C@_07JODCNJNA@PNP0D40@  000000018005b500     ahids.obj
 0002:00002508       ??_C@_0CK@DGLALCHI@SDA?5Standard?5Compliant?5SD?5Host?5@ 000000018005b508     ahids.obj
 0002:00002538       ??_C@_07JHCICALE@PNP0D80@  000000018005b538     ahids.obj
 0002:00002540       ??_C@_0DG@JKPPCMNB@Windows?9compatible?5System?5Power@ 000000018005b540     ahids.obj
 0002:00002578       ??_C@_07BIBPOKEE@PNP0F03@  000000018005b578     ahids.obj
 0002:00002580       ??_C@_0BL@FBKHCBNK@Microsoft?5PS?12?9style?5Mouse@ 000000018005b580     ahids.obj
 0002:000025a0       ??_C@_07BJNNIAHD@PNP0F13@  000000018005b5a0     ahids.obj
 0002:000025a8       ??_C@_0L@FBIAGOPJ@PS?12?5Mouse@ 000000018005b5a8     ahids.obj
 0002:000025b8       ??_C@_07NPHLEAP@RTL8723@   000000018005b5b8     ahids.obj
 0002:000025c0       ??_C@_0BM@OPLHPPDM@Realtek?5Wireless?5Controller@ 000000018005b5c0     ahids.obj
 0002:000025e0       ??_C@_07EIGBEEFC@SMB0349@  000000018005b5e0     ahids.obj
 0002:000025e8       ??_C@_07DAMIFFEP@Charger@  000000018005b5e8     ahids.obj
 0002:000025f0       ??_C@_07NGNFCOGP@SMO91D0@  000000018005b5f0     ahids.obj
 0002:000025f8       ??_C@_0L@FFBAJKMJ@Sensor?5Hub@ 000000018005b5f8     ahids.obj
 0002:00002608       ??_C@_08NNLNJPA@SMSC3750@  000000018005b608     ahids.obj
 0002:00002618       ??_C@_0BC@MKDLJKKH@SMSC?53750?5USB?5MUX@ 000000018005b618     ahids.obj
 0002:00002630       ??_C@_08OAKPJCKO@SSPX0000@ 000000018005b630     ahids.obj
 0002:00002640       ??_C@_0BB@KJIEFPCB@Intel?5SSP?5Device@ 000000018005b640     ahids.obj
 0002:00002658       ??_C@_08DNMFBLBI@TBQ24296@ 000000018005b658     ahids.obj
 0002:00002670       Gbl_AcpiUuids              000000018005b670     ahuuids.obj
 0002:00002940       ??_C@_0O@MMAODFEG@?$FLControllers?$FN@ 000000018005b940     ahuuids.obj
 0002:00002950       ??_C@_0BA@MPGJAEK@GPIO?5Controller@ 000000018005b950     ahuuids.obj
 0002:00002960       ??_C@_0CF@IMGMMEOL@4f248f40?9d5e2?9499f?9834c?927758ea@ 000000018005b960     ahuuids.obj
 0002:00002988       ??_C@_0P@CEDHOOHF@USB?5Controller@ 000000018005b988     ahuuids.obj
 0002:00002998       ??_C@_0CF@IICIHDN@ce2ee385?900e6?948cb?99f05?92edb927@ 000000018005b998     ahuuids.obj
 0002:000029c0       ??_C@_0BA@OINHOGHD@SATA?5Controller@ 000000018005b9c0     ahuuids.obj
 0002:000029d0       ??_C@_0CF@MFKDBIPC@e4db149b?9fcfe?9425b?9a6d8?992357d7@ 000000018005b9d0     ahuuids.obj
 0002:000029f8       ??_C@_09GNHPFCNN@?$FLDevices?$FN@ 000000018005b9f8     ahuuids.obj
 0002:00002a08       ??_C@_0BH@LGKPOMMK@PCI?5Host?5Bridge?5Device@ 000000018005ba08     ahuuids.obj
 0002:00002a20       ??_C@_0CF@PCHFAOAH@33db4d5b?91ff7?9401c?99657?97441c03@ 000000018005ba20     ahuuids.obj
 0002:00002a48       ??_C@_0P@PCAEMDJD@HID?5I2C?5Device@ 000000018005ba48     ahuuids.obj
 0002:00002a58       ??_C@_0CF@LHPOFJJI@3cdff6f7?94267?94555?9ad05?9b30a3d8@ 000000018005ba58     ahuuids.obj
 0002:00002a80       ??_C@_0CF@HBKLFPDP@dfbcf3c5?9e7a5?944e6?99c1f?929c76f6@ 000000018005ba80     ahuuids.obj
 0002:00002aa8       ??_C@_0CF@GGOLKHPB@03b19910?9f473?911dd?987af?90800200@ 000000018005baa8     ahuuids.obj
 0002:00002ad0       ??_C@_0CF@EEMEHGMB@fa6bd625?99ce8?9470d?9a2c7?9b3ca36c@ 000000018005bad0     ahuuids.obj
 0002:00002af8       ??_C@_0CF@CAEENAAG@2f10e7a4?99e91?911e4?989d3?9123b93f@ 000000018005baf8     ahuuids.obj
 0002:00002b20       ??_C@_0CF@BIFFOCCH@f18fc78b?90f15?94978?9b793?953f833a@ 000000018005bb20     ahuuids.obj
 0002:00002b48       ??_C@_0N@BGIFCMII@?$FLInterfaces?$FN@ 000000018005bb48     ahuuids.obj
 0002:00002b58       ??_C@_0BK@CDJHACID@Device?5Labeling?5Interface@ 000000018005bb58     ahuuids.obj
 0002:00002b78       ??_C@_0CF@EBGGLILD@e5c937d0?93553?94d7a?99117?9ea4d19c@ 000000018005bb78     ahuuids.obj
 0002:00002ba0       ??_C@_0BM@NHADKODC@Physical?5Presence?5Interface@ 000000018005bba0     ahuuids.obj
 0002:00002bc0       ??_C@_0CF@BIEOOKBK@3dddfaa6?9361b?94eb4?9a424?98d10089@ 000000018005bbc0     ahuuids.obj
 0002:00002be8       ??_C@_0CD@MKDIJJOP@?$FLNon?9volatile?5DIMM?5and?5NFIT?5tab@ 000000018005bbe8     ahuuids.obj
 0002:00002c10       ??_C@_0O@KEFMOFOI@NVDIMM?5Device@ 000000018005bc10     ahuuids.obj
 0002:00002c20       ??_C@_0CF@FOJFOPPC@4309ac30?90d11?911e4?99191?90800200@ 000000018005bc20     ahuuids.obj
 0002:00002c48       ??_C@_0BH@LJFHAAGK@Volatile?5Memory?5Region@ 000000018005bc48     ahuuids.obj
 0002:00002c60       ??_C@_0CF@LFDGLJPN@7305944f?9fdda?944e3?9b16c?93f22d25@ 000000018005bc60     ahuuids.obj
 0002:00002c88       ??_C@_0BJ@JICGCHIF@Persistent?5Memory?5Region@ 000000018005bc88     ahuuids.obj
 0002:00002ca8       ??_C@_0CF@EPANFJMI@66f0d379?9b4f3?94074?9ac43?90d3318b@ 000000018005bca8     ahuuids.obj
 0002:00002cd0       ??_C@_0BG@MIACCOCJ@NVDIMM?5Control?5Region@ 000000018005bcd0     ahuuids.obj
 0002:00002ce8       ??_C@_0CF@DJAGLAOI@92f701f6?913b4?9405d?9910b?9299367e@ 000000018005bce8     ahuuids.obj
 0002:00002d10       ??_C@_0BD@BOBKILFB@NVDIMM?5Data?5Region@ 000000018005bd10     ahuuids.obj
 0002:00002d28       ??_C@_0CF@PHAEAHMG@91af0530?95d86?9470e?9a6b0?90a2db94@ 000000018005bd28     ahuuids.obj
 0002:00002d50       ??_C@_0BG@EIIHFHHG@Volatile?5Virtual?5Disk@ 000000018005bd50     ahuuids.obj
 0002:00002d68       ??_C@_0CF@JCKNPAHA@77ab535a?945fc?9624b?95560?9f7b281d@ 000000018005bd68     ahuuids.obj
 0002:00002d90       ??_C@_0BE@DIPMDBKP@Volatile?5Virtual?5CD@ 000000018005bd90     ahuuids.obj
 0002:00002da8       ??_C@_0CF@LDHLHBCK@3d5abd30?94175?987ce?96d64?9d2ade52@ 000000018005bda8     ahuuids.obj
 0002:00002dd0       ??_C@_0BI@INFEANEC@Persistent?5Virtual?5Disk@ 000000018005bdd0     ahuuids.obj
 0002:00002de8       ??_C@_0CF@NADFIEDE@5cea02c9?94d07?969d3?9269f?94496fbe@ 000000018005bde8     ahuuids.obj
 0002:00002e10       ??_C@_0BG@FPLEHHDM@Persistent?5Virtual?5CD@ 000000018005be10     ahuuids.obj
 0002:00002e28       ??_C@_0CF@JDAFDALG@08018188?942cd?9bb48?9100f?95387d53@ 000000018005be28     ahuuids.obj
 0002:00002e50       ??_C@_0BN@GILFELKF@Microsoft?5NVDIMM?5Command?5set@ 000000018005be50     ahuuids.obj
 0002:00002e70       ??_C@_0CF@DHBICKHO@1ee68b36?9d4bd?94a1a?99a16?94f8e53d@ 000000018005be70     ahuuids.obj
 0002:00002e98       ??_C@_0O@KPCLDBBJ@HP?5NDIMM?5HPE1@ 000000018005be98     ahuuids.obj
 0002:00002ea8       ??_C@_0CF@NANPKBEO@9002c334?9acf3?94c0e?99642?9a235f0d@ 000000018005bea8     ahuuids.obj
 0002:00002ed0       ??_C@_0O@IEAGGCNK@HP?5NDIMM?5HPE2@ 000000018005bed0     ahuuids.obj
 0002:00002ee0       ??_C@_0CF@HMNDNCIG@5008664b?9b758?941a0?9a03c?927c2f2d@ 000000018005bee0     ahuuids.obj
 0002:00002f08       ??_C@_0P@BBEIGNMH@Virtual?5NVDIMM@ 000000018005bf08     ahuuids.obj
 0002:00002f18       ??_C@_0CF@CKHGNPNP@5746c5f2?9a9a2?94264?9ad0e?9e4ddc9e@ 000000018005bf18     ahuuids.obj
 0002:00002f40       ??_C@_0BH@FPHPNLIC@?$FLProcessor?5Properties?$FN@ 000000018005bf40     ahuuids.obj
 0002:00002f58       ??_C@_0BB@HCFBGFIA@Cache?5Properties@ 000000018005bf58     ahuuids.obj
 0002:00002f70       ??_C@_0CF@HGABIAMH@6DC63E77?9257E?94E78?9A973?9A21F279@ 000000018005bf70     ahuuids.obj
 0002:00002f98       ??_C@_0BK@IOHMODPA@Physical?5Package?5Property@ 000000018005bf98     ahuuids.obj
 0002:00002fb8       ??_C@_0CF@IIEKLMAP@DDE4D59A?9AA42?94349?9B407?9EA40F57@ 000000018005bfb8     ahuuids.obj
 0002:00002fe0       ??_C@_0BA@BMJFGALL@?$FLMiscellaneous?$FN@ 000000018005bfe0     ahuuids.obj
 0002:00002ff0       ??_C@_0BL@LLPDJMPG@Platform?9wide?5Capabilities@ 000000018005bff0     ahuuids.obj
 0002:00003010       ??_C@_0CF@KOCEKGCL@0811b06e?94a27?944f9?98d60?93cbbc22@ 000000018005c010     ahuuids.obj
 0002:00003038       ??_C@_0BE@KFGBPLHG@Dynamic?5Enumeration@ 000000018005c038     ahuuids.obj
 0002:00003050       ??_C@_0CF@IBCFPMC@d8c1a3a6?9be9b?94c9b?991bf?9c3cb81f@ 000000018005c050     ahuuids.obj
 0002:00003078       ??_C@_0BG@BEGCLAHI@Battery?5Thermal?5Limit@ 000000018005c078     ahuuids.obj
 0002:00003090       ??_C@_0CF@GNEJINAL@4c2067e3?9887d?9475c?99720?94af1d3e@ 000000018005c090     ahuuids.obj
 0002:000030b8       ??_C@_0BD@OJOHMHP@Thermal?5Extensions@ 000000018005c0b8     ahuuids.obj
 0002:000030d0       ??_C@_0CF@PKDOOHFA@14d399cd?97a27?94b18?98fb4?97cb7b9f@ 000000018005c0d0     ahuuids.obj
 0002:000030f8       ??_C@_0BL@FBCKPAKB@Device?5Properties?5for?5_DSD@ 000000018005c0f8     ahuuids.obj
 0002:00003118       ??_C@_0CF@GCOOJOCA@daffd814?96eba?94d8c?98a91?9bc9bbf4@ 000000018005c118     ahuuids.obj
 0002:00003140       ??_C@_0BH@LDBKJJMG@Device?5Graphs?5for?5_DSD@ 000000018005c140     ahuuids.obj
 0002:00003158       ??_C@_0CF@NKPIOJDG@ab02a46b?974c7?945a2?9bd68?9f7d344e@ 000000018005c158     ahuuids.obj
 0002:00003180       ??_C@_0BM@CPBIFNHM@Hierarchical?5Data?5Extension@ 000000018005c180     ahuuids.obj
 0002:000031a0       ??_C@_0CF@EFJKBGCK@dbb8e3e6?95886?94ba6?98795?91319f52@ 000000018005c1a0     ahuuids.obj
 0002:000031c8       ??_C@_0BE@EEHJIIEL@ARM?5Coresight?5Graph@ 000000018005c1c8     ahuuids.obj
 0002:000031e0       ??_C@_0CF@GFNBPMML@3ecbc8b6?91d0e?94fb3?98107?9e627f80@ 000000018005c1e0     ahuuids.obj
 0002:00003208       ??_C@_0BC@HOMFOCKF@USB4?5Capabilities@ 000000018005c208     ahuuids.obj
 0002:00003220       ??_C@_0CF@DJIAKBIB@23a0d13a?926ab?9486c?99c5f?90ffa525@ 000000018005c220     ahuuids.obj
 0002:00003248       ??_C@_0BL@OOAANKBA@First?5Function?5ID?5for?5_DSM@ 000000018005c248     ahuuids.obj
 0002:00003268       ??_C@_0CF@CBAHBNDO@893f00a6?9660c?9494e?9bcfd?93043f4f@ 000000018005c268     ahuuids.obj
 0002:00003290       ??_C@_0BM@CBPHCDNM@Second?5Function?5ID?5for?5_DSM@ 000000018005c290     ahuuids.obj
 0002:000032b0       ??_C@_0CF@DEAPHKP@107ededd?9d381?94fd7?98da9?908e9a6c@ 000000018005c2b0     ahuuids.obj
 0002:000032d8       ??_C@_0BL@HNKPMGKN@Could?5not?5get?5file?5offset?6@ 000000018005c2d8     cmfsize.obj
 0002:000032f8       ??_C@_0BL@BJPGHIBP@Could?5not?5set?5file?5offset?6@ 000000018005c2f8     cmfsize.obj
 0002:00003318       ??_C@_0BN@NGLHEDOF@?6Option?5requires?5an?5argument@ 000000018005c318     getopt.obj
 0002:00003338       ??_C@_05IALMJCDJ@?$CFs?$CFc?6@ 000000018005c338     getopt.obj
 0002:00003340       ??_C@_02BAABKJLB@?9?9@     000000018005c340     getopt.obj
 0002:00003348       ??_C@_0BC@PMNGDADG@Illegal?5option?3?5?9@ 000000018005c348     getopt.obj
 0002:00003360       ??_C@_0BP@NFLOMOC@Option?5requires?5an?5argument?3?5?9@ 000000018005c360     getopt.obj
 0002:00003380       ??_C@_01JKBOJNNK@?$FO@     000000018005c380     getopt.obj
 0002:00003388       ??_C@_0DA@IHKJENBL@Option?5requires?5a?5single?9charac@ 000000018005c388     getopt.obj
 0002:000033d0       ??_C@_0BG@NJPAFDMO@Address?5?$CFp?5is?5invalid@ 000000018005c3d0     dbcmds.obj
 0002:000033e8       ??_C@_0CP@CKOFDNDG@Address?5?$CFp?5is?5not?5a?5valid?5names@ 000000018005c3e8     dbcmds.obj
 0002:00003418       ??_C@_0DL@IACKOKLI@Could?5not?5find?5?$FL?$CFs?$FN?5in?5namespac@ 000000018005c418     dbcmds.obj
 0002:00003458       ??_C@_0CK@PEIOEMEA@Invoking?5all?5possible?5sleep?5sta@ 000000018005c458     dbcmds.obj
 0002:00003488       ??_C@_0CG@LHHCLLKI@Sleep?5state?5?$CFd?5out?5of?5range?5?$CI?$CFd@ 000000018005c488     dbcmds.obj
 0002:000034b0       ??_C@_0CG@OIPHJJPJ@?6?9?9?9?9?5Invoking?5sleep?5state?5S?$CFd?5@ 000000018005c4b0     dbcmds.obj
 0002:000034d8       ??_C@_0CE@KHJDKCGP@Could?5not?5evaluate?5?$FL?$CFs?$FN?5method?0@ 000000018005c4d8     dbcmds.obj
 0002:00003500       ??_C@_0ED@BGMNFNCB@Register?5values?5for?5sleep?5state@ 000000018005c500     dbcmds.obj
 0002:00003548       ??_C@_0CJ@JKLEJEKM@?$CK?$CK?$CK?$CK?5Sleep?3?5Prepare?5to?5sleep?5?$CIS@ 000000018005c548     dbcmds.obj
 0002:00003578       ??_C@_0CH@POLJGPBD@?$CK?$CK?$CK?$CK?5Sleep?3?5Going?5to?5sleep?5?$CIS?$CFd@ 000000018005c578     dbcmds.obj
 0002:000035a0       ??_C@_0DE@ONKILJHN@?$CK?$CK?$CK?$CK?5Wake?3?5Prepare?5to?5return?5fr@ 000000018005c5a0     dbcmds.obj
 0002:000035d8       ??_C@_0CJ@HMBLDIAI@?$CK?$CK?$CK?$CK?5Wake?3?5Return?5from?5sleep?5?$CIS@ 000000018005c5d8     dbcmds.obj
 0002:00003608       ??_C@_0CF@FBODLHLF@During?5invocation?5of?5sleep?5stat@ 000000018005c608     dbcmds.obj
 0002:00003630       ??_C@_06GFKCFIPE@Locked@   000000018005c630     dbcmds.obj
 0002:00003638       ??_C@_08CMNOBMAI@Unlocked@ 000000018005c638     dbcmds.obj
 0002:00003648       ??_C@_0L@OAGIEDHE@?$CF26s?5?3?5?$CFs?6@ 000000018005c648     dbcmds.obj
 0002:00003660       ??_C@_0FD@EIBEHMFK@Idx?5ID?5?5?5?5Status?5Type?5?5?5?5?5?5?5?5?5?5@ 000000018005c660     dbcmds.obj
 0002:000036b8       ??_C@_09DNLMLOLB@?$CF3u?5?$CF?42u?5@ 000000018005c6b8     dbcmds.obj
 0002:000036c8       ??_C@_0L@OHJBBHGN@NotLoaded?5@ 000000018005c6c8     dbcmds.obj
 0002:000036d8       ??_C@_0L@KFDMOGAE@?5?5?5Loaded?5@ 000000018005c6d8     dbcmds.obj
 0002:000036e8       ??_C@_0BD@GMHEDP@External?1virtual?5?5@ 000000018005c6e8     dbcmds.obj
 0002:00003700       ??_C@_0BD@MHOMPPOA@Internal?1physical?5@ 000000018005c700     dbcmds.obj
 0002:00003718       ??_C@_0BD@MAHKIEMF@Internal?1virtual?5?5@ 000000018005c718     dbcmds.obj
 0002:00003730       ??_C@_0BD@OHKPKDIC@INVALID?5TYPE?5?5?5?5?5?5@ 000000018005c730     dbcmds.obj
 0002:00003748       ??_C@_0CA@FKMONPPA@?$CF4?44s?5?9?5Table?5has?5been?5unloaded@ 000000018005c748     dbcmds.obj
 0002:00003768       ??_C@_0CO@CHHPEFBB@Parent?5of?5?$FL?$CFs?$FN?5?$CI?$CFp?$CJ?5unloaded?5an@ 000000018005c768     dbcmds.obj
 0002:00003798       ??_C@_0CK@MHIAHAMB@?$CFs?0?5while?5unloading?5parent?5tabl@ 000000018005c798     dbcmds.obj
 0002:000037c8       ??_C@_0BI@HBKMCBCP@Could?5not?5queue?5notify?6@ 000000018005c7c8     dbcmds.obj
 0002:000037e0       ??_C@_0EF@ECBGCHFB@Named?5object?5?$FL?$CF4?44s?$FN?5Type?5?$CFs?0?5m@ 000000018005c7e0     dbcmds.obj
 0002:00003828       ??_C@_03OFAPEBGM@?$CFs?6@  000000018005c828     dbcmds.obj
 0002:00003830       ??_C@_0CB@FGALBABK@Missing?5Interface?5Name?5argument@ 000000018005c830     dbcmds.obj
 0002:00003858       ??_C@_07PJFGKPND@INSTALL@  000000018005c858     dbcmds.obj
 0002:00003860       ??_C@_0BL@GGEIAJIB@?$CFs?0?5while?5installing?5?$CC?$CFs?$CC?6@ 000000018005c860     dbcmds.obj
 0002:0000387c       ??_C@_06PGHHOBB@REMOVE@    000000018005c87c     dbcmds.obj
 0002:00003888       ??_C@_0BJ@FELHKIAG@?$CFs?0?5while?5removing?5?$CC?$CFs?$CC?6@ 000000018005c888     dbcmds.obj
 0002:000038a8       ??_C@_0BN@OKLHKHDN@Invalid?5action?5argument?3?5?$CFs?6@ 000000018005c8a8     dbcmds.obj
 0002:000038c8       ??_C@_0BG@FALELBGD@Invalid?5argument?3?5?$CFs?6@ 000000018005c8c8     dbcmds.obj
 0002:000038e0       ??_C@_0CP@JDCGCBLL@Not?5a?5Buffer?5object?0?5cannot?5be?5@ 000000018005c8e0     dbcmds.obj
 0002:00003910       ??_C@_0DF@JDGAJDHL@Could?5not?5convert?5Buffer?5to?5a?5r@ 000000018005c910     dbcmds.obj
 0002:00003948       ??_C@_0BD@MLEHMLEC@?6Raw?5data?5buffer?3?6@ 000000018005c948     dbcmds.obj
 0002:00003960       ??_C@_0EI@FDLCEGFJ@?$CK?$CK?$CK?$CK?5Buffer?5length?5mismatch?5in?5@ 000000018005c960     dbcmds.obj
 0002:000039b0       ??_C@_0FK@ELOKLFEE@?$CK?$CK?$CK?$CK?5Length?5mismatch?5in?5descrip@ 000000018005c9b0     dbcmds.obj
 0002:00003a10       ??_C@_0EH@MNDINJEA@?$CK?$CK?$CK?$CK?5Data?5mismatch?5in?5descripto@ 000000018005ca10     dbcmds.obj
 0002:00003a58       ??_C@_0DJ@LGHGAIBN@Mismatch?5at?5byte?5offset?5?$CF?42X?3?5i@ 000000018005ca58     dbcmds.obj
 0002:00003a98       ??_C@_0CB@MCFJKHEO@Resource?5Conversion?5Comparison?3@ 000000018005ca98     dbcmds.obj
 0002:00003ac0       ??_C@_0BJ@PLDPGICH@Could?5not?5obtain?5?$CFs?3?5?$CFs?6@ 000000018005cac0     dbcmds.obj
 0002:00003ae0       ??_C@_0CE@PHLBCHG@AcpiGetCurrentResources?5failed?3@ 000000018005cae0     dbcmds.obj
 0002:00003b08       ??_C@_0CF@LONHCPLO@AcpiRsCreateAmlResources?5failed@ 000000018005cb08     dbcmds.obj
 0002:00003b30       ??_C@_04PJHMDNNE@_PRT@     000000018005cb30     dbcmds.obj
 0002:00003b38       ??_C@_04PEJBFDGC@_CRS@     000000018005cb38     dbcmds.obj
 0002:00003b40       ??_C@_04LGDNKLBD@_PRS@     000000018005cb40     dbcmds.obj
 0002:00003b48       ??_C@_04PHNMNEMH@_AEI@     000000018005cb48     dbcmds.obj
 0002:00003b50       ??_C@_0N@LNLAFNE@?6Device?3?5?$CFs?6@ 000000018005cb50     dbcmds.obj
 0002:00003b60       ??_C@_0BB@INGACKNN@Evaluating?5_PRT?6@ 000000018005cb60     dbcmds.obj
 0002:00003b78       ??_C@_0BN@GBNJKCEG@Could?5not?5evaluate?5_PRT?3?5?$CFs?6@ 000000018005cb78     dbcmds.obj
 0002:00003b98       ??_C@_0BP@LCLHFAMD@GetIrqRoutingTable?5failed?3?5?$CFs?6@ 000000018005cb98     dbcmds.obj
 0002:00003bb8       ??_C@_0BB@KPGPNBAK@Evaluating?5_CRS?6@ 000000018005cbb8     dbcmds.obj
 0002:00003bd0       ??_C@_0BN@DBDDOCHM@Could?5not?5evaluate?5_CRS?3?5?$CFs?6@ 000000018005cbd0     dbcmds.obj
 0002:00003bf0       ??_C@_0BO@GNFOMDGA@AcpiWalkResources?5failed?3?5?$CFs?6@ 000000018005cbf0     dbcmds.obj
 0002:00003c10       ??_C@_0CD@PFDPICHE@AcpiWalkResourceBuffer?5failed?3?5@ 000000018005cc10     dbcmds.obj
 0002:00003c38       ??_C@_0BB@MPIPEGII@Evaluating?5_SRS?6@ 000000018005cc38     dbcmds.obj
 0002:00003c50       ??_C@_0CE@GDKIGGLF@AcpiSetCurrentResources?5failed?3@ 000000018005cc50     dbcmds.obj
 0002:00003c78       ??_C@_0BB@IICPDMFI@Evaluating?5_PRS?6@ 000000018005cc78     dbcmds.obj
 0002:00003c90       ??_C@_0BN@KEHOJMMI@Could?5not?5evaluate?5_PRS?3?5?$CFs?6@ 000000018005cc90     dbcmds.obj
 0002:00003cb0       ??_C@_0CF@MEMNKGAJ@AcpiGetPossibleResources?5failed@ 000000018005ccb0     dbcmds.obj
 0002:00003cd8       ??_C@_0BB@JNAMLOK@Evaluating?5_AEI?6@ 000000018005ccd8     dbcmds.obj
 0002:00003cf0       ??_C@_0BN@KKBFDBEI@Could?5not?5evaluate?5_AEI?3?5?$CFs?6@ 000000018005ccf0     dbcmds.obj
 0002:00003d10       ??_C@_0CC@GDGPNOPE@AcpiGetEventResources?5failed?3?5?$CF@ 000000018005cd10     dbcmds.obj
 0002:00003d34       ??_C@_01NBENCBCI@?$CK@     000000018005cd34     dbcmds.obj
 0002:00003d38       ??_C@_0CJ@LAOANPDL@?$CF4?44s?3?5Name?5is?5not?5a?5device?5obj@ 000000018005cd38     dbcmds.obj
 0002:00003d68       ??_C@_0BJ@DMOGDFGC@No?5GED?5handling?5present?6@ 000000018005cd68     dbcmds.obj
 0002:00003d88       ??_C@_0BN@EHMHMDKE@Evaluate?5GED?5_EVT?5?$CIGSIV?$DN?$CFd?$CJ?6@ 000000018005cd88     dbcmds.obj
 0002:00003da8       ??_C@_0BH@CKEIDAFF@Undefined?5_EVT?5method?6@ 000000018005cda8     dbcmds.obj
 0002:00003dc0       ??_C@_0BJ@NIDDKHJO@Could?5not?5evaluate?5_EVT?6@ 000000018005cdc0     dbcmds.obj
 0002:00003de0       ??_C@_0N@IDIEOCGM@Invalid?5GPE?6@ 000000018005cde0     dbcmds.obj
 0002:00003df0       ??_C@_0CF@IEJDDBII@Failed?5to?5allocate?5method?5name?5@ 000000018005cdf0     dbcmds.obj
 0002:00003e18       ??_C@_06OBPCDPOI@ENABLE@   000000018005ce18     dbcmds.obj
 0002:00003e20       ??_C@_06GEDKPGMC@METHOD@   000000018005ce20     dbcmds.obj
 0002:00003e28       ??_C@_06PKOHNJEI@OPCODE@   000000018005ce28     dbcmds.obj
 0002:00003e30       ??_C@_04GHGHGAKN@ONCE@     000000018005ce30     dbcmds.obj
 0002:00003e48       ??_C@_0CO@OPPEOFOM@Converted?5_PLD?5buffer?5does?5not?5@ 000000018005ce48     dbconvert.obj
 0002:00003e78       ??_C@_0N@MGKDFHNL@PLD_Revision@ 000000018005ce78     dbconvert.obj
 0002:00003e88       ??_C@_0N@OJKNCHMC@?$CF20s?5?3?5?$CF?96X?6@ 000000018005ce88     dbconvert.obj
 0002:00003e98       ??_C@_0BA@DAAKPCLG@PLD_IgnoreColor@ 000000018005ce98     dbconvert.obj
 0002:00003ea8       ??_C@_07EMFDLMHM@PLD_Red@  000000018005cea8     dbconvert.obj
 0002:00003eb0       ??_C@_09MNFIHFDD@PLD_Green@ 000000018005ceb0     dbconvert.obj
 0002:00003ec0       ??_C@_08EBHJOAAG@PLD_Blue@ 000000018005cec0     dbconvert.obj
 0002:00003ed0       ??_C@_09CKLMNIJP@PLD_Width@ 000000018005ced0     dbconvert.obj
 0002:00003ee0       ??_C@_0L@HHKBJOGD@PLD_Height@ 000000018005cee0     dbconvert.obj
 0002:00003ef0       ??_C@_0BA@FEOEACHK@PLD_UserVisible@ 000000018005cef0     dbconvert.obj
 0002:00003f00       ??_C@_08FKKEEIAE@PLD_Dock@ 000000018005cf00     dbconvert.obj
 0002:00003f10       ??_C@_07PFIPGFLE@PLD_Lid@  000000018005cf10     dbconvert.obj
 0002:00003f18       ??_C@_09BBPMEPMB@PLD_Panel@ 000000018005cf18     dbconvert.obj
 0002:00003f28       ??_C@_0BF@CFGDENIC@PLD_VerticalPosition@ 000000018005cf28     dbconvert.obj
 0002:00003f40       ??_C@_0BH@KBPEKONB@PLD_HorizontalPosition@ 000000018005cf40     dbconvert.obj
 0002:00003f58       ??_C@_09JDEJFJK@PLD_Shape@ 000000018005cf58     dbconvert.obj
 0002:00003f68       ??_C@_0BF@PFEFLPEH@PLD_GroupOrientation@ 000000018005cf68     dbconvert.obj
 0002:00003f80       ??_C@_0P@KNNHINEI@PLD_GroupToken@ 000000018005cf80     dbconvert.obj
 0002:00003f90       ??_C@_0BC@ECIHMDOE@PLD_GroupPosition@ 000000018005cf90     dbconvert.obj
 0002:00003fa8       ??_C@_07OECPCPCD@PLD_Bay@  000000018005cfa8     dbconvert.obj
 0002:00003fb0       ??_C@_0O@JJFJHMOF@PLD_Ejectable@ 000000018005cfb0     dbconvert.obj
 0002:00003fc0       ??_C@_0BC@FMNPDNBL@PLD_EjectRequired@ 000000018005cfc0     dbconvert.obj
 0002:00003fd8       ??_C@_0BC@PIAEGELJ@PLD_CabinetNumber@ 000000018005cfd8     dbconvert.obj
 0002:00003ff0       ??_C@_0BD@LDFJLKNB@PLD_CardCageNumber@ 000000018005cff0     dbconvert.obj
 0002:00004008       ??_C@_0O@MJOKGCE@PLD_Reference@ 000000018005d008     dbconvert.obj
 0002:00004018       ??_C@_0N@JOIPAEEH@PLD_Rotation@ 000000018005d018     dbconvert.obj
 0002:00004028       ??_C@_09HPMAMNGG@PLD_Order@ 000000018005d028     dbconvert.obj
 0002:00004038       ??_C@_0BD@DHIBEBNB@PLD_VerticalOffset@ 000000018005d038     dbconvert.obj
 0002:00004050       ??_C@_0BF@EMMFMKKI@PLD_HorizontalOffset@ 000000018005d050     dbconvert.obj
 0002:00004078       ??_C@_0BF@LKCEBCBJ@System?5Notifications@ 000000018005d078     dbdisply.obj
 0002:00004090       ??_C@_0BF@JMHCCGGN@Device?5Notifications@ 000000018005d090     dbdisply.obj
 0002:000040a8       ??_C@_0BC@DKPPCCGB@ACPI?5Table?5Events@ 000000018005d0a8     dbdisply.obj
 0002:000040c0       ??_C@_0BK@DFDNKHLD@Control?5Method?5Exceptions@ 000000018005d0c0     dbdisply.obj
 0002:000040e0       ??_C@_0BA@PFGKPCDI@OSI?5Invocations@ 000000018005d0e0     dbdisply.obj
 0002:000040f0       ??_C@_0BH@FIHBLBJG@Parser?5Op?5Descriptor?3?6@ 000000018005d0f0     dbdisply.obj
 0002:00004108       ??_C@_06DBHBDOAG@Opcode@   000000018005d108     dbdisply.obj
 0002:00004110       ??_C@_0BB@NCJDHHPE@?$CF20?420s?5?3?5?$CF4?44X?6@ 000000018005d110     dbdisply.obj
 0002:00004128       ??_C@_0M@DHKKMLAO@Opcode?5Name@ 000000018005d128     dbdisply.obj
 0002:00004138       ??_C@_0O@DAKEANEE@?$CF20?420s?5?3?5?$CFs?6@ 000000018005d138     dbdisply.obj
 0002:00004148       ??_C@_0O@KHLLADBP@Value?1ArgList@ 000000018005d148     dbdisply.obj
 0002:00004158       ??_C@_0O@DCOCLDBN@?$CF20?420s?5?3?5?$CFp?6@ 000000018005d158     dbdisply.obj
 0002:00004168       ??_C@_06EBOPLIP@Parent@    000000018005d168     dbdisply.obj
 0002:00004170       ??_C@_06FHJIJPIC@NextOp@   000000018005d170     dbdisply.obj
 0002:00004178       ??_C@_0CN@MOBILEMP@Address?5?$CFp?5is?5invalid?5in?5this?5a@ 000000018005d178     dbdisply.obj
 0002:000041a8       ??_C@_0CP@EKHHDOEJ@Cannot?5read?5entire?5Named?5object@ 000000018005d1a8     dbdisply.obj
 0002:000041d8       ??_C@_0CO@IFIMAMAF@Cannot?5read?5entire?5ACPI?5object?5@ 000000018005d1d8     dbdisply.obj
 0002:00004208       ??_C@_0DA@IPDNEKDC@Cannot?5read?5entire?5Parser?5objec@ 000000018005d208     dbdisply.obj
 0002:00004238       ??_C@_0DJ@MBNCCPIC@Not?5a?5known?5ACPI?5internal?5objec@ 000000018005d238     dbdisply.obj
 0002:00004278       ??_C@_0CE@MCCFFIMN@Could?5not?5convert?5name?5to?5pathn@ 000000018005d278     dbdisply.obj
 0002:000042a0       ??_C@_0CK@KJCAAJKO@Object?5?$CFp?3?5Namespace?5Node?5?9?5Pat@ 000000018005d2a0     dbdisply.obj
 0002:000042d0       ??_C@_0CE@CHFIJAGK@Invalid?5Named?5object?5at?5address@ 000000018005d2d0     dbdisply.obj
 0002:000042f8       ??_C@_0BF@HDAKDJC@?6Attached?5Object?5?$CFp?3@ 000000018005d2f8     dbdisply.obj
 0002:00004310       ??_C@_0CM@GHCMAGNA@Invalid?5internal?5ACPI?5Object?5at@ 000000018005d310     dbdisply.obj
 0002:00004340       ??_C@_0BD@HAFLPKMI@?5Namespace?5Node?5?9?5@ 000000018005d340     dbdisply.obj
 0002:00004358       ??_C@_0N@INLCCDGG@Pathname?3?5?$CFs@ 000000018005d358     dbdisply.obj
 0002:00004368       ??_C@_01EEMJAFIK@?6@       000000018005d368     dbdisply.obj
 0002:00004370       ??_C@_0CI@BONBLPJH@There?5is?5no?5method?5currently?5ex@ 000000018005d370     dbdisply.obj
 0002:00004398       ??_C@_0CP@BIPMPHBH@Currently?5executing?5control?5met@ 000000018005d398     dbdisply.obj
 0002:000043c8       ??_C@_0BO@LLKGNFAI@?$CFX?5Arguments?0?5SyncLevel?5?$DN?5?$CFX?6@ 000000018005d3c8     dbdisply.obj
 0002:000043f0       ??_C@_0ED@EPBPGHAK@Method?5contains?3?5?5?5?5?5?5?5?$CFX?5AML?5O@ 000000018005d3f0     dbdisply.obj
 0002:00004440       ??_C@_0ED@OGGMGHLF@Remaining?5to?5execute?3?5?5?$CFX?5AML?5O@ 000000018005d440     dbdisply.obj
 0002:00004488       ??_C@_0CO@LNOPBHKM@Method?5?$FL?$CF4?44s?$FN?5has?5?$CFX?5stacked?5r@ 000000018005d488     dbdisply.obj
 0002:000044b8       ??_C@_0L@JLOHFIFO@Result?$CFu?3?5@ 000000018005d4b8     dbdisply.obj
 0002:000044c8       ??_C@_0CC@DAFJDMJL@Current?5Control?5Method?5Call?5Tre@ 000000018005d4c8     dbdisply.obj
 0002:000044f0       ??_C@_0N@BLOLHLE@?5?5?5?5?$FL?$CF4?44s?$FN?6@ 000000018005d4f0     dbdisply.obj
 0002:00004500       ??_C@_0BP@BLPNADPI@Could?5not?5get?5object?5info?0?5?$CFs?6@ 000000018005d500     dbdisply.obj
 0002:00004520       ??_C@_0BM@NBHNPDPA@ADR?3?5?$CF8?48X?$CF8?48X?0?5Flags?3?5?$CFX?6@ 000000018005d520     dbdisply.obj
 0002:00004540       ??_C@_0CJ@DAEALNIJ@S1D?9?$CF2?42X?5S2D?9?$CF2?42X?5S3D?9?$CF2?42X?5S@ 000000018005d540     dbdisply.obj
 0002:00004570       ??_C@_0DD@JOBFLKOE@S0W?9?$CF2?42X?5S1W?9?$CF2?42X?5S2W?9?$CF2?42X?5S@ 000000018005d570     dbdisply.obj
 0002:000045a8       ??_C@_08KFLOKIKC@HID?3?5?$CFs?6@ 000000018005d5a8     dbdisply.obj
 0002:000045b8       ??_C@_08PIDBANIE@UID?3?5?$CFs?6@ 000000018005d5b8     dbdisply.obj
 0002:000045c8       ??_C@_0M@CLCAKHHN@CID?5?$CFu?3?5?$CFs?6@ 000000018005d5c8     dbdisply.obj
 0002:000045d8       ??_C@_0M@LINPPBKD@ResultObj?3?5@ 000000018005d5d8     dbdisply.obj
 0002:000045e8       ??_C@_0M@GPGBIIDM@ArgObj?3?5?5?5?5@ 000000018005d5e8     dbdisply.obj
 0002:000045f8       ??_C@_0BH@OGMHNGF@FADT?9defined?5GPE?5block@ 000000018005d5f8     dbdisply.obj
 0002:00004610       ??_C@_0CO@KPLAHLMJ@?6Block?5?$CFu?5?9?5Info?5?$CFp?5?5DeviceNode@ 000000018005d610     dbdisply.obj
 0002:00004640       ??_C@_0CA@OIHEIIEJ@?5?5?5?5Registers?3?5?5?5?5?$CFu?5?$CI?$CFu?5GPEs?$CJ?6@ 000000018005d640     dbdisply.obj
 0002:00004660       ??_C@_0DA@LPJPJOPF@?5?5?5?5GPE?5range?3?5?5?5?50x?$CFX?5to?50x?$CFX?5@ 000000018005d660     dbdisply.obj
 0002:00004690       ??_C@_0DL@JILICFKH@?5?5?5?5RegisterInfo?3?5?$CFp?5?5Status?5?$CF8@ 000000018005d690     dbdisply.obj
 0002:000046d0       ??_C@_0BG@OHCFEFAP@?5?5?5?5EventInfo?3?5?5?5?5?$CFp?6@ 000000018005d6d0     dbdisply.obj
 0002:000046f0       ??_C@_0GD@LMPOIFFA@?5?5?5?5Reg?5?$CFu?3?5?$CIGPE?5?$CF?42X?9?$CF?42X?$CJ?5?5Ru@ 000000018005d6f0     dbdisply.obj
 0002:00004758       ??_C@_0DC@JKMOAIAI@?5?5?5?5?5?5?5?5GPE?5?$CF?42X?3?5?$CFp?5?5RunRefs?5?$CF@ 000000018005d758     dbdisply.obj
 0002:00004790       ??_C@_07GEOLFBAK@Level?0?5@ 000000018005d790     dbdisply.obj
 0002:00004798       ??_C@_07IHFHDBPC@Edge?0?5?5@ 000000018005d798     dbdisply.obj
 0002:000047a0       ??_C@_09IEJCNNMJ@CanWake?0?5@ 000000018005d7a0     dbdisply.obj
 0002:000047b0       ??_C@_09LAFKHACJ@RunOnly?0?5@ 000000018005d7b0     dbdisply.obj
 0002:000047c0       ??_C@_07INHDGLDD@NotUsed@  000000018005d7c0     dbdisply.obj
 0002:000047c8       ??_C@_06KPKMBBIM@Method@   000000018005d7c8     dbdisply.obj
 0002:000047d0       ??_C@_07DBMNFLDM@Handler@  000000018005d7d0     dbdisply.obj
 0002:000047d8       ??_C@_0BO@LGLJGLDE@Implicit?5Notify?5on?5?$CFu?5devices@ 000000018005d7d8     dbdisply.obj
 0002:000047f8       ??_C@_0L@LFFNJAAO@RawHandler@ 000000018005d7f8     dbdisply.obj
 0002:00004808       ??_C@_0M@PABMDCIN@UNKNOWN?3?5?$CFX@ 000000018005d808     dbdisply.obj
 0002:00004814       ??_C@_02MNMNLDAI@?$CJ?6@   000000018005d814     dbdisply.obj
 0002:00004818       ??_C@_0DD@LCBJLHO@?6Operation?5Region?5Handlers?5at?5t@ 000000018005d818     dbdisply.obj
 0002:00004850       ??_C@_0P@GBGCBCBJ@?$CF25s?5?$CI?$CF?42X?$CJ?5?3?5@ 000000018005d850     dbdisply.obj
 0002:00004860       ??_C@_07MCAEODGB@Default@  000000018005d860     dbdisply.obj
 0002:00004868       ??_C@_04ODLBFFJE@User@     000000018005d868     dbdisply.obj
 0002:00004870       ??_C@_0L@PCHCCONG@?$CF?99s?5?$CI?$CFp?$CJ?6@ 000000018005d870     dbdisply.obj
 0002:0000487c       ??_C@_05PAHLEKN@None?6@    000000018005d87c     dbdisply.obj
 0002:00004888       ??_C@_0BA@HBFNGBAM@User?9defined?5ID@ 000000018005d888     dbdisply.obj
 0002:00004898       ??_C@_0BI@FLDHHBOL@?6Fixed?5Event?5Handlers?3?6@ 000000018005d898     dbdisply.obj
 0002:000048b0       ??_C@_04OHJIHAFH@None@     000000018005d8b0     dbdisply.obj
 0002:000048b8       ??_C@_05BHGKIME@?$CF?99s?6@ 000000018005d8b8     dbdisply.obj
 0002:000048c0       ??_C@_0CB@NJGPEHKC@?6Miscellaneous?5Global?5Handlers?3@ 000000018005d8c0     dbdisply.obj
 0002:000048e8       ??_C@_07BEICIFAD@?$CF30s?5?3?5@ 000000018005d8e8     dbdisply.obj
 0002:000048f0       ??_C@_0DC@LDDGHKOI@?6Operation?5Region?5Handlers?5for?5@ 000000018005d8f0     dbdisply.obj
 0002:00004928       ??_C@_09PAPLHBEN@?$CF?99s?5?$CI?$CFp?$CJ@ 000000018005d928     dbdisply.obj
 0002:00004938       ??_C@_0BH@LPDCFKFL@?5Device?5Name?3?5?$CFs?5?$CI?$CFp?$CJ?6@ 000000018005d938     dbdisply.obj
 0002:00004968       ??_C@_0CH@CPBINGDJ@Warning?3?5debug?5output?5is?5not?5en@ 000000018005d968     dbexec.obj
 0002:00004990       ??_C@_0BP@OFIGGDEI@While?5parsing?5method?5arguments@ 000000018005d990     dbexec.obj
 0002:000049b0       ??_C@_0BK@IEHMECND@Aborting?5top?9level?5method@ 000000018005d9b0     dbexec.obj
 0002:000049d0       ??_C@_0CF@PKDMGCDK@while?5executing?5?$CFs?5from?5AML?5Deb@ 000000018005d9d0     dbexec.obj
 0002:00004a00       ??_C@_0EM@PPOCLKAA@Possible?5buffer?5overflow?5within@ 000000018005da00     dbexec.obj
 0002:00004a50       ??_C@_0P@NKHGBNCI@Evaluating?5?$CFs?6@ 000000018005da50     dbexec.obj
 0002:00004a60       ??_C@_0CC@OJLLELCN@During?5setup?5for?5method?5executi@ 000000018005da60     dbexec.obj
 0002:00004a88       ??_C@_0L@FLBNOIMN@Evaluating@ 000000018005da88     dbexec.obj
 0002:00004a98       ??_C@_0CD@GPLJIOG@Evaluation?5of?5?$FL?$CF4?44s?$FN?5returned?5@ 000000018005da98     dbexec.obj
 0002:00004ac0       ??_C@_0CJ@KKOEALEH@Only?5one?5debugger?5execution?5is?5@ 000000018005dac0     dbexec.obj
 0002:00004af0       ??_C@_0CK@GEJPNFN@Input?5name?5?$CI?$CFs?$CJ?5must?5be?5a?54?9cha@ 000000018005daf0     dbexec.obj
 0002:00004b1c       ??_C@_06FEBHNPDB@PREDEF@   000000018005db1c     dbexec.obj
 0002:00004b28       ??_C@_0DF@OOIAPLBA@0x?$CFX?5Outstanding?5allocations?5af@ 000000018005db28     dbexec.obj
 0002:00004b60       ??_C@_0CI@OMCGHAAD@Evaluation?5of?5?$CFs?5failed?5with?5st@ 000000018005db60     dbexec.obj
 0002:00004b90       ??_C@_0EA@DDDNKAIH@Evaluation?5of?5?$CFs?5returned?5objec@ 000000018005db90     dbexec.obj
 0002:00004bd0       ??_C@_0CO@OGOLEJAM@No?5object?5was?5returned?5from?5eva@ 000000018005dbd0     dbexec.obj
 0002:00004c00       ??_C@_0CM@CLGECJEN@?$CFs?5During?5evaluation?5of?5?$CFs?5at?5i@ 000000018005dc00     dbexec.obj
 0002:00004c30       ??_C@_0DF@MPFLPOHN@Could?5not?5signal?5debugger?5threa@ 000000018005dc30     dbexec.obj
 0002:00004c68       ??_C@_0BM@JHJOFKEA@?$CFs?5During?5evaluation?5of?5?$CFs?6@ 000000018005dc68     dbexec.obj
 0002:00004c88       ??_C@_0CB@NPLCICME@?6Background?5thread?5completed?6?$CFc@ 000000018005dc88     dbexec.obj
 0002:00004cb0       ??_C@_0CA@LBBENAOB@?$CFs?5Could?5not?5get?5handle?5for?5?$CFs?6@ 000000018005dcb0     dbexec.obj
 0002:00004cd0       ??_C@_0BM@DBKOBJGH@?6Background?5thread?5started?6@ 000000018005dcd0     dbexec.obj
 0002:00004cf0       ??_C@_0CE@OBNLJDJD@Bad?5argument?3?5Threads?5?$CFX?0?5Loops@ 000000018005dcf0     dbexec.obj
 0002:00004d20       ??_C@_0EJ@GOFDEMKP@Could?5not?5create?5semaphore?5for?5@ 000000018005dd20     dbexec.obj
 0002:00004d70       ??_C@_0FA@MLPIIKNJ@Could?5not?5create?5semaphore?5for?5@ 000000018005dd70     dbexec.obj
 0002:00004dc0       ??_C@_0EM@FEIHCEAO@Could?5not?5create?5semaphore?5for?5@ 000000018005ddc0     dbexec.obj
 0002:00004e10       ??_C@_0CA@IMGACJGK@No?5memory?5for?5thread?5IDs?5array?6@ 000000018005de10     dbexec.obj
 0002:00004e30       ??_C@_0CO@NLIGBEJD@Creating?5?$CFX?5threads?5to?5execute?5@ 000000018005de30     dbexec.obj
 0002:00004e60       ??_C@_0CB@HPAFBPNC@All?5threads?5?$CI?$CFX?$CJ?5have?5completed@ 000000018005de60     dbexec.obj
 0002:00004e88       ??_C@_0BN@KEPCDOAJ@Debug?5output?5file?5?$CFs?5closed?6@ 000000018005de88     dbfileio.obj
 0002:00004ea8       ??_C@_02CHHAKFFB@w?$CL@    000000018005dea8     dbfileio.obj
 0002:00004eb0       ??_C@_0BO@LIDOFHPG@Could?5not?5open?5debug?5file?5?$CFs?6@ 000000018005deb0     dbfileio.obj
 0002:00004ed0       ??_C@_0BN@GKMIKNKJ@Debug?5output?5file?5?$CFs?5opened?6@ 000000018005ded0     dbfileio.obj
 0002:00004ef0       ??_C@_0CC@JAPBECHI@Table?5?$CF4?44s?5is?5already?5installe@ 000000018005def0     dbfileio.obj
 0002:00004f18       ??_C@_0BN@CENNCNCI@Could?5not?5install?5table?0?5?$CFs?6@ 000000018005df18     dbfileio.obj
 0002:00004f38       ??_C@_0DG@JCJBLJBB@Acpi?5table?5?$FL?$CF4?44s?$FN?5successfully@ 000000018005df38     dbfileio.obj
 0002:00004f70       ??_C@_08JJFLMMBC@?$CF3u?5?5?$CFs?6@ 000000018005df70     dbhistry.obj
 0002:00004f80       ??_C@_0BM@FCHLMEL@Invalid?5history?5number?3?5?$CFu?6@ 000000018005df80     dbhistry.obj
 0002:00005cd0       ??_C@_0M@MMPFPHND@?$DMNOT?5FOUND?$DO@ 000000018005ecd0     dbinput.obj
 0002:00005cdc       ??_C@_06CBHGEMFM@?$DMNULL?$DO@ 000000018005ecdc     dbinput.obj
 0002:00005ce4       ??_C@_03NIFPGLBG@ALL@      000000018005ece4     dbinput.obj
 0002:00005ce8       ??_C@_0M@NJGEEPPD@ALLOCATIONS@ 000000018005ece8     dbinput.obj
 0002:00005cf4       ??_C@_04NJAJCLOA@ARGS@     000000018005ecf4     dbinput.obj
 0002:00005d00       ??_C@_09MBCBPGHN@ARGUMENTS@ 000000018005ed00     dbinput.obj
 0002:00005d10       ??_C@_0L@EGBPFLC@BREAKPOINT@ 000000018005ed10     dbinput.obj
 0002:00005d20       ??_C@_07CHEMOOMB@BUSINFO@  000000018005ed20     dbinput.obj
 0002:00005d28       ??_C@_04CAGKGBIO@CALL@     000000018005ed28     dbinput.obj
 0002:00005d30       ??_C@_05KOLFGEDA@DEBUG@    000000018005ed30     dbinput.obj
 0002:00005d38       ??_C@_0M@HCHBOHAA@DISASSEMBLE@ 000000018005ed38     dbinput.obj
 0002:00005d44       ??_C@_06INLGABKN@DISASM@   000000018005ed44     dbinput.obj
 0002:00005d4c       ??_C@_04KKIEEKDM@DUMP@     000000018005ed4c     dbinput.obj
 0002:00005d58       ??_C@_08LBLMKBEN@EVALUATE@ 000000018005ed58     dbinput.obj
 0002:00005d68       ??_C@_07LBDEDADF@EXECUTE@  000000018005ed68     dbinput.obj
 0002:00005d70       ??_C@_04GOLNGIJ@EXIT@      000000018005ed70     dbinput.obj
 0002:00005d78       ??_C@_06MKMLCAFB@FIELDS@   000000018005ed78     dbinput.obj
 0002:00005d80       ??_C@_04OGGDJIHH@FIND@     000000018005ed80     dbinput.obj
 0002:00005d88       ??_C@_02CIKOOGC@GO@        000000018005ed88     dbinput.obj
 0002:00005d90       ??_C@_08NGBBCHGN@HANDLERS@ 000000018005ed90     dbinput.obj
 0002:00005d9c       ??_C@_04DOKPJKJF@HELP@     000000018005ed9c     dbinput.obj
 0002:00005da4       ??_C@_01OGPIMHDM@?$DP@     000000018005eda4     dbinput.obj
 0002:00005da8       ??_C@_07DBIJIOJO@HISTORY@  000000018005eda8     dbinput.obj
 0002:00005db0       ??_C@_01DCLJPIOD@?$CB@     000000018005edb0     dbinput.obj
 0002:00005db4       ??_C@_02LFKOBPNJ@?$CB?$CB@ 000000018005edb4     dbinput.obj
 0002:00005db8       ??_C@_0M@PHDJNCCI@INFORMATION@ 000000018005edb8     dbinput.obj
 0002:00005dc8       ??_C@_09BJILBFCN@INTEGRITY@ 000000018005edc8     dbinput.obj
 0002:00005dd4       ??_C@_04LKBMIHC@INTO@      000000018005edd4     dbinput.obj
 0002:00005ddc       ??_C@_05GCEPFMCO@LEVEL@    000000018005eddc     dbinput.obj
 0002:00005de4       ??_C@_04PCOPKCKE@LIST@     000000018005ede4     dbinput.obj
 0002:00005dec       ??_C@_06MLNLOAMH@LOCALS@   000000018005edec     dbinput.obj
 0002:00005df4       ??_C@_05IIPMMALG@LOCKS@    000000018005edf4     dbinput.obj
 0002:00005e00       ??_C@_07OEJIJHPN@METHODS@  000000018005ee00     dbinput.obj
 0002:00005e08       ??_C@_09JPDHDICP@NAMESPACE@ 000000018005ee08     dbinput.obj
 0002:00005e14       ??_C@_06LMEIPPMP@NOTIFY@   000000018005ee14     dbinput.obj
 0002:00005e20       ??_C@_07PEKGBFJM@OBJECTS@  000000018005ee20     dbinput.obj
 0002:00005e28       ??_C@_03FCINAMCN@OSI@      000000018005ee28     dbinput.obj
 0002:00005e2c       ??_C@_05LPBHKKMN@OWNER@    000000018005ee2c     dbinput.obj
 0002:00005e34       ??_C@_05IMFAGNEI@PATHS@    000000018005ee34     dbinput.obj
 0002:00005e40       ??_C@_0L@GLKLCMKO@PREDEFINED@ 000000018005ee40     dbinput.obj
 0002:00005e4c       ??_C@_06CDEFNBAB@PREFIX@   000000018005ee4c     dbinput.obj
 0002:00005e54       ??_C@_04GBOBDPBG@QUIT@     000000018005ee54     dbinput.obj
 0002:00005e60       ??_C@_0L@GCLGGDBA@REFERENCES@ 000000018005ee60     dbinput.obj
 0002:00005e70       ??_C@_09CMINMFIB@RESOURCES@ 000000018005ee70     dbinput.obj
 0002:00005e80       ??_C@_07MKOFNLGP@RESULTS@  000000018005ee80     dbinput.obj
 0002:00005e88       ??_C@_03KPIFFHNE@SET@      000000018005ee88     dbinput.obj
 0002:00005e8c       ??_C@_05NADPPKKN@STATS@    000000018005ee8c     dbinput.obj
 0002:00005e94       ??_C@_04MDHMLCKF@STOP@     000000018005ee94     dbinput.obj
 0002:00005e9c       ??_C@_06GFDLJJPM@TABLES@   000000018005ee9c     dbinput.obj
 0002:00005ea8       ??_C@_08CGHHJMNA@TEMPLATE@ 000000018005eea8     dbinput.obj
 0002:00005eb4       ??_C@_05EHILDPJH@TRACE@    000000018005eeb4     dbinput.obj
 0002:00005ebc       ??_C@_04GOBFFCKL@TREE@     000000018005eebc     dbinput.obj
 0002:00005ec4       ??_C@_04KDPJLEDB@TYPE@     000000018005eec4     dbinput.obj
 0002:00005ed0       ??_C@_0L@GMEOMGHN@ENABLEACPI@ 000000018005eed0     dbinput.obj
 0002:00005edc       ??_C@_05KOOCGPHN@EVENT@    000000018005eedc     dbinput.obj
 0002:00005ee4       ??_C@_03DJMKNFJH@GPE@      000000018005eee4     dbinput.obj
 0002:00005ee8       ??_C@_04PPMEMCKF@GPES@     000000018005eee8     dbinput.obj
 0002:00005ef0       ??_C@_03FEGEEHHK@SCI@      000000018005eef0     dbinput.obj
 0002:00005ef4       ??_C@_05DJAECLDN@SLEEP@    000000018005eef4     dbinput.obj
 0002:00005efc       ??_C@_05HKHBPABE@CLOSE@    000000018005eefc     dbinput.obj
 0002:00005f04       ??_C@_04ICOEJIDH@LOAD@     000000018005ef04     dbinput.obj
 0002:00005f0c       ??_C@_04DANIOFHI@OPEN@     000000018005ef0c     dbinput.obj
 0002:00005f14       ??_C@_06JNBFBNFI@UNLOAD@   000000018005ef14     dbinput.obj
 0002:00005f20       ??_C@_09NHKIAJ@TERMINATE@  000000018005ef20     dbinput.obj
 0002:00005f30       ??_C@_0L@PAEHJLBC@BACKGROUND@ 000000018005ef30     dbinput.obj
 0002:00005f40       ??_C@_07CIKNIMKC@THREADS@  000000018005ef40     dbinput.obj
 0002:00005f48       ??_C@_04OIKJMBFP@TEST@     000000018005ef48     dbinput.obj
 0002:00005f50       ??_C@_09OCPILILD@INTERRUPT@ 000000018005ef50     dbinput.obj
 0002:00005f60       ??_C@_0BD@CHPIIGOF@?6Namespace?5Access?3@ 000000018005ef60     dbinput.obj
 0002:00005f78       ??_C@_09GIGDAGHP@?5?5Businfo@ 000000018005ef78     dbinput.obj
 0002:00005f88       ??_C@_0BJ@HNGOIPNF@Display?5system?5bus?5info?6@ 000000018005ef88     dbinput.obj
 0002:00005fa8       ??_C@_0BH@LEAPMCGK@?5?5Disassemble?5?$DMMethod?$DO@ 000000018005efa8     dbinput.obj
 0002:00005fc0       ??_C@_0BO@KIOCDALB@Disassemble?5a?5control?5method?6@ 000000018005efc0     dbinput.obj
 0002:00005fe0       ??_C@_0CC@NKDHDLFH@?5?5Find?5?$DMAcpiName?$DO?5?$CI?$DP?5is?5wildcar@ 000000018005efe0     dbinput.obj
 0002:00006008       ??_C@_0CC@JHCALDHD@Find?5ACPI?5name?$CIs?$CJ?5with?5wildcard@ 000000018005f008     dbinput.obj
 0002:00006030       ??_C@_0M@GANFNBDM@?5?5Integrity@ 000000018005f030     dbinput.obj
 0002:00006040       ??_C@_0BO@GPKCBEMI@Validate?5namespace?5integrity?6@ 000000018005f040     dbinput.obj
 0002:00006060       ??_C@_09KLLHHPED@?5?5Methods@ 000000018005f060     dbinput.obj
 0002:00006070       ??_C@_0CI@FDGHLFJI@Display?5list?5of?5loaded?5control?5@ 000000018005f070     dbinput.obj
 0002:00006098       ??_C@_0BK@EDHCBBOI@?5?5Fields?5?$DMAddressSpaceId?$DO@ 000000018005f098     dbinput.obj
 0002:000060b8       ??_C@_0DA@LOIPHBCE@Display?5list?5of?5loaded?5field?5un@ 000000018005f0b8     dbinput.obj
 0002:000060e8       ??_C@_0BN@FBMNPAGP@?5?5Namespace?5?$FLObject?$FN?5?$FLDepth?$FN@ 000000018005f0e8     dbinput.obj
 0002:00006108       ??_C@_0CH@LEKEBKMN@Display?5loaded?5namespace?5tree?1s@ 000000018005f108     dbinput.obj
 0002:00006130       ??_C@_0BK@HEHICNGC@?5?5Notify?5?$DMObject?$DO?5?$DMValue?$DO@ 000000018005f130     dbinput.obj
 0002:00006150       ??_C@_0BP@GDDBNLDK@Send?5a?5notification?5on?5Object?6@ 000000018005f150     dbinput.obj
 0002:00006170       ??_C@_0BH@MFELNMMB@?5?5Objects?5?$FLObjectType?$FN@ 000000018005f170     dbinput.obj
 0002:00006188       ??_C@_0DD@DGIMCBJD@Display?5summary?5of?5all?5objects?5@ 000000018005f188     dbinput.obj
 0002:000061c0       ??_C@_0BK@DIJLNPKJ@?5?5Owner?5?$DMOwnerId?$DO?5?$FLDepth?$FN@ 000000018005f1c0     dbinput.obj
 0002:000061e0       ??_C@_0CK@CDINIBAI@Display?5loaded?5namespace?5by?5obj@ 000000018005f1e0     dbinput.obj
 0002:00006210       ??_C@_07KCEBKKDA@?5?5Paths@ 000000018005f210     dbinput.obj
 0002:00006218       ??_C@_0CN@EMDPPGFH@Display?5full?5pathnames?5of?5names@ 000000018005f218     dbinput.obj
 0002:00006248       ??_C@_0N@JEOGHGDK@?5?5Predefined@ 000000018005f248     dbinput.obj
 0002:00006258       ??_C@_0BM@KIAFIKE@Check?5all?5predefined?5names?6@ 000000018005f258     dbinput.obj
 0002:00006278       ??_C@_0BG@CKBCOJID@?5?5Prefix?5?$FL?$DMNamepath?$DO?$FN@ 000000018005f278     dbinput.obj
 0002:00006290       ??_C@_0CF@MFHNOFMB@Set?5or?5Get?5current?5execution?5pr@ 000000018005f290     dbinput.obj
 0002:000062b8       ??_C@_0BE@LDBFKCJC@?5?5References?5?$DMAddr?$DO@ 000000018005f2b8     dbinput.obj
 0002:000062d0       ??_C@_0CH@FJDLBMOL@Find?5all?5references?5to?5object?5a@ 000000018005f2d0     dbinput.obj
 0002:000062f8       ??_C@_0BJ@OCLBHMDM@?5?5Resources?5?$FLDeviceName?$FN@ 000000018005f2f8     dbinput.obj
 0002:00006318       ??_C@_0DB@MMGAJGGH@Display?5Device?5resources?5?$CIno?5ar@ 000000018005f318     dbinput.obj
 0002:00006350       ??_C@_0BO@NKDLCJDH@?5?5Set?5N?5?$DMNamedObject?$DO?5?$DMValue?$DO@ 000000018005f350     dbinput.obj
 0002:00006370       ??_C@_0BN@DGNMICFA@Set?5value?5for?5named?5integer?6@ 000000018005f370     dbinput.obj
 0002:00006390       ??_C@_0BE@DJJFGAEL@?5?5Template?5?$DMObject?$DO@ 000000018005f390     dbinput.obj
 0002:000063a8       ??_C@_0CH@GNGABMNO@Format?1dump?5a?5Buffer?1ResourceTe@ 000000018005f3a8     dbinput.obj
 0002:000063d0       ??_C@_0BA@CCGOJCKL@?5?5Type?5?$DMObject?$DO@ 000000018005f3d0     dbinput.obj
 0002:000063e0       ??_C@_0BF@JOCAAF@Display?5object?5type?6@ 000000018005f3e0     dbinput.obj
 0002:000063f8       ??_C@_0BL@FJMHAANM@?6Control?5Method?5Execution?3@ 000000018005f3f8     dbinput.obj
 0002:00006418       ??_C@_0BA@NKBFPHAN@?5?5All?5?$DMNameSeg?$DO@ 000000018005f418     dbinput.obj
 0002:00006428       ??_C@_0CE@GJBEPIHO@Evaluate?5all?5objects?5named?5Name@ 000000018005f428     dbinput.obj
 0002:00006450       ??_C@_0CC@GEFDLIOH@?5?5Evaluate?5?$DMNamepath?$DO?5?$FLArgument@ 000000018005f450     dbinput.obj
 0002:00006478       ??_C@_0CD@CECGPJLF@Evaluate?5object?5or?5control?5meth@ 000000018005f478     dbinput.obj
 0002:000064a0       ??_C@_0CB@LJJIMOPB@?5?5Execute?5?$DMNamepath?$DO?5?$FLArguments@ 000000018005f4a0     dbinput.obj
 0002:000064c8       ??_C@_0BG@NFCIBDAJ@Synonym?5for?5Evaluate?6@ 000000018005f4c8     dbinput.obj
 0002:000064e0       ??_C@_0CE@DAPIHPDB@?5?5Background?5?$DMNamepath?$DO?5?$FLArgume@ 000000018005f4e0     dbinput.obj
 0002:00006508       ??_C@_0CN@LCOIFEM@Evaluate?5object?1method?5in?5a?5sep@ 000000018005f508     dbinput.obj
 0002:00006538       ??_C@_0CE@LHLPBMHL@?5?5Thread?5?$DMThreads?$DO?$DMLoops?$DO?$DMNameP@ 000000018005f538     dbinput.obj
 0002:00006560       ??_C@_0CE@JDHNCGEJ@Spawn?5threads?5to?5execute?5method@ 000000018005f560     dbinput.obj
 0002:00006588       ??_C@_0BP@NOIOJJHP@?5?5Debug?5?$DMNamepath?$DO?5?$FLArguments?$FN@ 000000018005f588     dbinput.obj
 0002:000065a8       ??_C@_0BO@GEMEBCKH@Single?9Step?5a?5control?5method?6@ 000000018005f5a8     dbinput.obj
 0002:000065c8       ??_C@_0BH@CFPCIDDH@?5?5?$FLArguments?$FN?5formats?3@ 000000018005f5c8     dbinput.obj
 0002:000065e0       ??_C@_0CB@MCMMLMNF@Control?5method?5argument?5formats@ 000000018005f5e0     dbinput.obj
 0002:00006608       ??_C@_0BB@FAAOHCFM@?5?5?5?5?5Hex?5Integer@ 000000018005f608     dbinput.obj
 0002:00006620       ??_C@_08GEMIHOIN@Integer?6@ 000000018005f620     dbinput.obj
 0002:00006630       ??_C@_0BE@KIIACDBK@?5?5?5?5?5?$CCAscii?5String?$CC@ 000000018005f630     dbinput.obj
 0002:00006648       ??_C@_07OHBFCMGC@String?6@ 000000018005f648     dbinput.obj
 0002:00006650       ??_C@_0BF@LEFPBDM@?5?5?5?5?5?$CIHex?5Byte?5List?$CJ@ 000000018005f650     dbinput.obj
 0002:00006668       ??_C@_07CGIICHKF@Buffer?6@ 000000018005f668     dbinput.obj
 0002:00006670       ??_C@_0BH@EBDKMMAN@?5?5?5?5?5?5?5?5?5?$CI01?542?57A?5BF?$CJ@ 000000018005f670     dbinput.obj
 0002:00006688       ??_C@_0BK@HECAMAHJ@Buffer?5example?5?$CI4?5bytes?$CJ?6@ 000000018005f688     dbinput.obj
 0002:000066a8       ??_C@_0BM@PPEKKHEH@?5?5?5?5?5?$FLPackage?5Element?5List?$FN@ 000000018005f6a8     dbinput.obj
 0002:000066c8       ??_C@_08BJNINDOF@Package?6@ 000000018005f6c8     dbinput.obj
 0002:000066d8       ??_C@_0CA@HHLPNPAH@?5?5?5?5?5?5?5?5?5?$FL0x01?50x1234?5?$CCstring?$CC?$FN@ 000000018005f6d8     dbinput.obj
 0002:000066f8       ??_C@_0BO@HHICMNBK@Package?5example?5?$CI3?5elements?$CJ?6@ 000000018005f6f8     dbinput.obj
 0002:00006718       ??_C@_0BA@FABIMECO@?6Miscellaneous?3@ 000000018005f718     dbinput.obj
 0002:00006728       ??_C@_0O@LLHNHBFG@?5?5Allocations@ 000000018005f728     dbinput.obj
 0002:00006738       ??_C@_0CM@EOCCJDOK@Display?5list?5of?5current?5memory?5@ 000000018005f738     dbinput.obj
 0002:00006768       ??_C@_0BM@DGFLACMB@?5?5Dump?5?$DMAddress?$DO?$HM?$DMNamepath?$DO@ 000000018005f768     dbinput.obj
 0002:00006788       ??_C@_0BP@LEICJNEC@?5?5?5?5?5?5?5?$FLByte?$HMWord?$HMDword?$HMQword?$FN@ 000000018005f788     dbinput.obj
 0002:000067a8       ??_C@_0CA@MBFKEMGH@Display?5ACPI?5objects?5or?5memory?6@ 000000018005f7a8     dbinput.obj
 0002:000067c8       ??_C@_0L@GPADLCKM@?5?5Handlers@ 000000018005f7c8     dbinput.obj
 0002:000067d8       ??_C@_0BM@FEOHGCOP@Info?5about?5global?5handlers?6@ 000000018005f7d8     dbinput.obj
 0002:000067f8       ??_C@_0BB@PKFECDBO@?5?5Help?5?$FLCommand?$FN@ 000000018005f7f8     dbinput.obj
 0002:00006810       ??_C@_0CI@GOFCPDEP@This?5help?5screen?5or?5individual?5@ 000000018005f810     dbinput.obj
 0002:00006838       ??_C@_09HOKGGGCA@?5?5History@ 000000018005f838     dbinput.obj
 0002:00006848       ??_C@_0CA@OFHDPAEE@Display?5command?5history?5buffer?6@ 000000018005f848     dbinput.obj
 0002:00006868       ??_C@_0CA@MJGLCMPE@?5?5Level?5?$DMDebugLevel?$DO?$FN?5?$FLconsole?$FN@ 000000018005f868     dbinput.obj
 0002:00006888       ??_C@_0CJ@OFOGKOBA@Get?1Set?5debug?5level?5for?5file?5or@ 000000018005f888     dbinput.obj
 0002:000068b8       ??_C@_07KGONAHMO@?5?5Locks@ 000000018005f8b8     dbinput.obj
 0002:000068c0       ??_C@_0CE@CJFPNGGM@Current?5status?5of?5internal?5mute@ 000000018005f8c0     dbinput.obj
 0002:000068e8       ??_C@_0BO@MBFCJLLP@?5?5Osi?5?$FLInstall?$HMRemove?5?$DMname?$DO?$FN@ 000000018005f8e8     dbinput.obj
 0002:00006908       ??_C@_0CE@NFOKKHCC@Display?5or?5modify?5global?5_OSI?5l@ 000000018005f908     dbinput.obj
 0002:00006930       ??_C@_0P@BEOPMIIG@?5?5Quit?5or?5Exit@ 000000018005f930     dbinput.obj
 0002:00006940       ??_C@_0BD@NLGMEACP@Exit?5this?5command?6@ 000000018005f940     dbinput.obj
 0002:00006958       ??_C@_0BF@GEGMBKFA@?5?5Stats?5?$DMSubCommand?$DO@ 000000018005f958     dbinput.obj
 0002:00006970       ??_C@_0CJ@BDMGDCCG@Display?5namespace?5and?5memory?5st@ 000000018005f970     dbinput.obj
 0002:000069a0       ??_C@_0BB@BCHAIODF@?5?5?5?5?5Allocations@ 000000018005f9a0     dbinput.obj
 0002:000069b8       ??_C@_0M@PINHCOOC@?5?5?5?5?5Memory@ 000000018005f9b8     dbinput.obj
 0002:000069c8       ??_C@_0BM@IBIGEFLE@Dump?5internal?5memory?5lists?6@ 000000018005f9c8     dbinput.obj
 0002:000069e8       ??_C@_09BOJEICBK@?5?5?5?5?5Misc@ 000000018005f9e8     dbinput.obj
 0002:000069f8       ??_C@_0CC@IKNHBJLM@Namespace?5search?5and?5mutex?5stat@ 000000018005f9f8     dbinput.obj
 0002:00006a20       ??_C@_0N@HKKEMMAM@?5?5?5?5?5Objects@ 000000018005fa20     dbinput.obj
 0002:00006a30       ??_C@_0BO@PBIOMKMO@Summary?5of?5namespace?5objects?6@ 000000018005fa30     dbinput.obj
 0002:00006a50       ??_C@_0L@LJDHBHBO@?5?5?5?5?5Sizes@ 000000018005fa50     dbinput.obj
 0002:00006a60       ??_C@_0CI@LOMBNPDK@Sizes?5for?5each?5of?5the?5internal?5@ 000000018005fa60     dbinput.obj
 0002:00006a88       ??_C@_0L@CAMJHAFI@?5?5?5?5?5Stack@ 000000018005fa88     dbinput.obj
 0002:00006a98       ??_C@_0BJ@DMGHADCJ@Display?5CPU?5stack?5usage?6@ 000000018005fa98     dbinput.obj
 0002:00006ab8       ??_C@_0M@OCGDNAKJ@?5?5?5?5?5Tables@ 000000018005fab8     dbinput.obj
 0002:00006ac8       ??_C@_0CC@GHFHHHPI@Info?5about?5current?5ACPI?5table?$CIs@ 000000018005fac8     dbinput.obj
 0002:00006af0       ??_C@_08KOEPFFJH@?5?5Tables@ 000000018005faf0     dbinput.obj
 0002:00006b00       ??_C@_0CH@LHGMOOH@Display?5info?5about?5loaded?5ACPI?5@ 000000018005fb00     dbinput.obj
 0002:00006b28       ??_C@_0M@HJIJGMBI@?5?5Terminate@ 000000018005fb28     dbinput.obj
 0002:00006b38       ??_C@_0CL@JPPNBGFN@Delete?5namespace?5and?5all?5intern@ 000000018005fb38     dbinput.obj
 0002:00006b68       ??_C@_0BE@GIFOAPGL@?5?5?$CB?5?$DMCommandNumber?$DO@ 000000018005fb68     dbinput.obj
 0002:00006b80       ??_C@_0CF@MOBAEMGD@Execute?5command?5from?5history?5bu@ 000000018005fb80     dbinput.obj
 0002:00006ba8       ??_C@_04ONDOLBOM@?5?5?$CB?$CB@ 000000018005fba8     dbinput.obj
 0002:00006bb0       ??_C@_0BM@CJOLIDEL@Execute?5last?5command?5again?6@ 000000018005fbb0     dbinput.obj
 0002:00006bd0       ??_C@_0CB@IBCEFCGC@?6Method?5and?5Namespace?5Debugging@ 000000018005fbd0     dbinput.obj
 0002:00006bf8       ??_C@_0CE@BGDMAKBA@?5?5Trace?5?$DMState?$DO?5?$FL?$DMNamepath?$DO?$FN?5?$FLO@ 000000018005fbf8     dbinput.obj
 0002:00006c20       ??_C@_0CA@MJMHOIP@Trace?5control?5method?5execution?6@ 000000018005fc20     dbinput.obj
 0002:00006c40       ??_C@_0M@GGKKHGLN@?5?5?5?5?5Enable@ 000000018005fc40     dbinput.obj
 0002:00006c50       ??_C@_0BF@CJGDFJGH@Enable?5all?5messages?6@ 000000018005fc50     dbinput.obj
 0002:00006c68       ??_C@_0N@ECIBFBEJ@?5?5?5?5?5Disable@ 000000018005fc68     dbinput.obj
 0002:00006c78       ??_C@_0BB@MPIJPICO@Disable?5tracing?6@ 000000018005fc78     dbinput.obj
 0002:00006c90       ??_C@_0M@ODGCLPJH@?5?5?5?5?5Method@ 000000018005fc90     dbinput.obj
 0002:00006ca0       ??_C@_0CC@HNFGLLPF@Enable?5method?5execution?5message@ 000000018005fca0     dbinput.obj
 0002:00006cc8       ??_C@_0M@HNLPJABN@?5?5?5?5?5Opcode@ 000000018005fcc8     dbinput.obj
 0002:00006cd8       ??_C@_0CC@BLOBECM@Enable?5opcode?5execution?5message@ 000000018005fcd8     dbinput.obj
 0002:00006d00       ??_C@_0BC@JLLEMPEH@?5?5Test?5?$DMTestName?$DO@ 000000018005fd00     dbinput.obj
 0002:00006d18       ??_C@_0BF@PMOILHMB@Invoke?5a?5debug?5test?6@ 000000018005fd18     dbinput.obj
 0002:00006d30       ??_C@_0CP@JHEDOPEF@Read?1write?1compare?5all?5namespac@ 000000018005fd30     dbinput.obj
 0002:00006d60       ??_C@_0BA@CFLHEGNG@?5?5?5?5?5Predefined@ 000000018005fd60     dbinput.obj
 0002:00006d70       ??_C@_0DB@LBBBHNLO@Validate?5all?5ACPI?5predefined?5na@ 000000018005fd70     dbinput.obj
 0002:00006da8       ??_C@_0BF@INPNKMNH@?5?5Execute?5predefined@ 000000018005fda8     dbinput.obj
 0002:00006dc0       ??_C@_0CJ@NDIPIPKH@Execute?5all?5predefined?5?$CIpublic?$CJ@ 000000018005fdc0     dbinput.obj
 0002:00006df0       ??_C@_0CH@GPIEOLIA@?6Control?5Method?5Single?9Step?5Exe@ 000000018005fdf0     dbinput.obj
 0002:00006e18       ??_C@_0BG@CGOEEPJI@?5?5Arguments?5?$CIor?5Args?$CJ@ 000000018005fe18     dbinput.obj
 0002:00006e30       ??_C@_0BK@PFDEIOLJ@Display?5method?5arguments?6@ 000000018005fe30     dbinput.obj
 0002:00006e50       ??_C@_0BJ@JJFPIGKG@?5?5Breakpoint?5?$DMAmlOffset?$DO@ 000000018005fe50     dbinput.obj
 0002:00006e70       ??_C@_0CB@OIONDILA@Set?5an?5AML?5execution?5breakpoint@ 000000018005fe70     dbinput.obj
 0002:00006e94       ??_C@_06LOMOLIDL@?5?5Call@ 000000018005fe94     dbinput.obj
 0002:00006ea0       ??_C@_0CH@DFNBNPEI@Run?5to?5next?5control?5method?5invo@ 000000018005fea0     dbinput.obj
 0002:00006ec8       ??_C@_04MPJOGEPF@?5?5Go@   000000018005fec8     dbinput.obj
 0002:00006ed0       ??_C@_0CD@PBAAMFKI@Allow?5method?5to?5run?5to?5completi@ 000000018005fed0     dbinput.obj
 0002:00006ef8       ??_C@_0O@JFCAOMIN@?5?5Information@ 000000018005fef8     dbinput.obj
 0002:00006f08       ??_C@_0CH@BKBAAFNK@Display?5info?5about?5the?5current?5@ 000000018005ff08     dbinput.obj
 0002:00006f30       ??_C@_06JFAFBBMH@?5?5Into@ 000000018005ff30     dbinput.obj
 0002:00006f38       ??_C@_0CE@DFPEKGMA@Step?5into?5?$CInot?5over?$CJ?5a?5method?5c@ 000000018005ff38     dbinput.obj
 0002:00006f60       ??_C@_0BK@PPIDIMPG@?5?5List?5?$FL?$CD?5of?5Aml?5Opcodes?$FN@ 000000018005ff60     dbinput.obj
 0002:00006f80       ??_C@_0BP@FDKBMAKL@Display?5method?5ASL?5statements?6@ 000000018005ff80     dbinput.obj
 0002:00006fa0       ??_C@_08KPCMKM@?5?5Locals@ 000000018005ffa0     dbinput.obj
 0002:00006fb0       ??_C@_0CA@IKIABEOA@Display?5method?5local?5variables?6@ 000000018005ffb0     dbinput.obj
 0002:00006fd0       ??_C@_09IFMKDDNB@?5?5Results@ 000000018005ffd0     dbinput.obj
 0002:00006fe0       ??_C@_0BN@FLFCNKLD@Display?5method?5result?5stack?6@ 000000018005ffe0     dbinput.obj
 0002:00007000       ??_C@_0BI@IGELMNPB@?5?5Set?5?$DMA?$HML?$DO?5?$DM?$CD?$DO?5?$DMValue?$DO@ 0000000180060000     dbinput.obj
 0002:00007018       ??_C@_0CE@IOAOFDIG@Set?5method?5data?5?$CIArguments?1Loca@ 0000000180060018     dbinput.obj
 0002:0000703c       ??_C@_06FNNIGLBA@?5?5Stop@ 000000018006003c     dbinput.obj
 0002:00007048       ??_C@_0BK@NHEIEBL@Terminate?5control?5method?6@ 0000000180060048     dbinput.obj
 0002:00007064       ??_C@_06PALBILBO@?5?5Tree@ 0000000180060064     dbinput.obj
 0002:00007070       ??_C@_0CF@GHNHEFK@Display?5control?5method?5calling?5@ 0000000180060070     dbinput.obj
 0002:00007098       ??_C@_09DBGMICEB@?5?5?$DMEnter?$DO@ 0000000180060098     dbinput.obj
 0002:000070a8       ??_C@_0CK@OHMCGIBN@Single?5step?5next?5AML?5opcode?5?$CIov@ 00000001800600a8     dbinput.obj
 0002:000070d8       ??_C@_0BC@OFLENOGI@?6File?5Operations?3@ 00000001800600d8     dbinput.obj
 0002:000070f0       ??_C@_07FEGADHGM@?5?5Close@ 00000001800600f0     dbinput.obj
 0002:000070f8       ??_C@_0BJ@MENJNFND@Close?5debug?5output?5file?6@ 00000001800600f8     dbinput.obj
 0002:00007118       ??_C@_0BI@EEANOGLD@?5?5Load?5?$DMInput?5Filename?$DO@ 0000000180060118     dbinput.obj
 0002:00007130       ??_C@_0BN@CIGMIAFN@Load?5ACPI?5table?5from?5a?5file?6@ 0000000180060130     dbinput.obj
 0002:00007150       ??_C@_0BJ@GCGCJCBF@?5?5Open?5?$DMOutput?5Filename?$DO@ 0000000180060150     dbinput.obj
 0002:00007170       ??_C@_0BO@EJMMCOO@Open?5a?5file?5for?5debug?5output?6@ 0000000180060170     dbinput.obj
 0002:00007190       ??_C@_0BE@PGGMDFCB@?5?5Unload?5?$DMNamepath?$DO@ 0000000180060190     dbinput.obj
 0002:000071a8       ??_C@_0CL@PHOBJPFA@Unload?5an?5ACPI?5table?5via?5namesp@ 00000001800601a8     dbinput.obj
 0002:000071d8       ??_C@_0BG@CJJJKHCD@?6Hardware?5Simulation?3@ 00000001800601d8     dbinput.obj
 0002:000071f0       ??_C@_0N@FCMCLDON@?5?5EnableAcpi@ 00000001800601f0     dbinput.obj
 0002:00007200       ??_C@_0BN@HDGEMJLN@Enable?5ACPI?5?$CIhardware?$CJ?5mode?6@ 0000000180060200     dbinput.obj
 0002:00007220       ??_C@_0BG@OJAFBBMN@?5?5Event?5?$DMF?$HMG?$DO?5?$DMValue?$DO@ 0000000180060220     dbinput.obj
 0002:00007238       ??_C@_0CA@CAKICHDD@Generate?5AcpiEvent?5?$CIFixed?1GPE?$CJ?6@ 0000000180060238     dbinput.obj
 0002:00007258       ??_C@_0CA@MFIHLJIB@?5?5Gpe?5?$DMGpeNum?$DO?5?$FLGpeBlockDevice?$FN@ 0000000180060258     dbinput.obj
 0002:00007278       ??_C@_0BA@HBEKCPEG@Simulate?5a?5GPE?6@ 0000000180060278     dbinput.obj
 0002:00007288       ??_C@_06GBGABLBA@?5?5Gpes@ 0000000180060288     dbinput.obj
 0002:00007290       ??_C@_0CB@BHJEHJKA@Display?5info?5on?5all?5GPE?5devices@ 0000000180060290     dbinput.obj
 0002:000072b4       ??_C@_05KPEGHBLF@?5?5Sci@  00000001800602b4     dbinput.obj
 0002:000072c0       ??_C@_0BB@IOKGPAFG@Generate?5an?5SCI?6@ 00000001800602c0     dbinput.obj
 0002:000072d8       ??_C@_0BF@MLAAIHJG@?5?5Sleep?5?$FLSleepState?$FN@ 00000001800602d8     dbinput.obj
 0002:000072f0       ??_C@_0CH@NALLGDOF@Simulate?5sleep?1wake?5sequence?$CIs?$CJ@ 00000001800602f0     dbinput.obj
 0002:00007318       ??_C@_0BD@NEBHPBJ@?5?5Interrupt?5?$DMGSIV?$DO@ 0000000180060318     dbinput.obj
 0002:00007330       ??_C@_0BH@IBLHNJOG@Simulate?5an?5interrupt?6@ 0000000180060330     dbinput.obj
 0002:00007348       ??_C@_0L@DDJPDPJO@?$CF?938s?5?3?5?$CFs@ 0000000180060348     dbinput.obj
 0002:00007358       ??_C@_0CE@PADCLPDB@?6Summary?5of?5AML?5Debugger?5Comman@ 0000000180060358     dbinput.obj
 0002:00007380       ??_C@_07NFIADDPA@?$CF?938s?$CFs@ 0000000180060380     dbinput.obj
 0002:00007388       ??_C@_0DO@LGABDJBM@Buffer?5overflow?5while?5parsing?5i@ 0000000180060388     dbinput.obj
 0002:000073c8       ??_C@_0DE@LBHOAEBI@?$CFu?5parameters?5entered?0?5?$FL?$CFs?$FN?5req@ 00000001800603c8     dbinput.obj
 0002:00007400       ??_C@_0CI@FOEJEAFH@Executing?5all?5objects?5with?5Name@ 0000000180060400     dbinput.obj
 0002:00007428       ??_C@_0DO@CAOHFJCM@Invalid?5address?5space?5ID?3?5must?5@ 0000000180060428     dbinput.obj
 0002:00007468       ??_C@_0DC@GLMGKEMK@Current?5debug?5level?5for?5file?5ou@ 0000000180060468     dbinput.obj
 0002:000074a0       ??_C@_0DC@IFKPGIJF@Current?5debug?5level?5for?5console@ 00000001800604a0     dbinput.obj
 0002:000074d8       ??_C@_0DF@JFDBLLOK@Debug?5Level?5for?5console?5output?5@ 00000001800604d8     dbinput.obj
 0002:00007510       ??_C@_0DC@JBEDJIHL@Debug?5Level?5for?5file?5output?5was@ 0000000180060510     dbinput.obj
 0002:00007548       ??_C@_0BP@HNPDJMAJ@AcpiEnable?5failed?5?$CIStatus?$DN?$CFX?$CJ?6@ 0000000180060548     dbinput.obj
 0002:00007568       ??_C@_0BP@DECDJPMG@Event?5command?5not?5implemented?6@ 0000000180060568     dbinput.obj
 0002:00007588       ??_C@_0BN@OOANNEND@Method?5execution?5terminated?6@ 0000000180060588     dbinput.obj
 0002:000075a8       ??_C@_0BF@EPKBLCNE@?$CFs?3?5unknown?5command?6@ 00000001800605a8     dbinput.obj
 0002:000075c0       ??_C@_0BL@JCOIGICC@While?5parsing?5command?5line@ 00000001800605c0     dbinput.obj
 0002:000075f0       ??_C@_0CM@FIPONIPA@Breakpoint?5?$CFX?5is?5beyond?5current@ 00000001800605f0     dbmethod.obj
 0002:00007620       ??_C@_0CB@ILJIFOFO@Breakpoint?5set?5at?5AML?5offset?5?$CFX@ 0000000180060620     dbmethod.obj
 0002:00007648       ??_C@_0BJ@IIDINBFI@Invalid?5SET?5operand?3?5?$CFs?6@ 0000000180060648     dbmethod.obj
 0002:00007668       ??_C@_0BM@GBDFMIMG@Can?5only?5set?5Integer?5nodes?6@ 0000000180060668     dbmethod.obj
 0002:00007688       ??_C@_0CF@CBBAPGEJ@Could?5not?5create?5an?5internal?5ob@ 0000000180060688     dbmethod.obj
 0002:000076b0       ??_C@_0BP@PCKNFEJG@Arg?$CFu?5?9?5Invalid?5argument?5name?6@ 00000001800606b0     dbmethod.obj
 0002:000076d0       ??_C@_07PIFEKIDL@Arg?$CFu?3?5@ 00000001800606d0     dbmethod.obj
 0002:000076d8       ??_C@_0CH@IOMDCEN@Local?$CFu?5?9?5Invalid?5local?5variabl@ 00000001800606d8     dbmethod.obj
 0002:00007700       ??_C@_09POACKFME@Local?$CFu?3?5@ 0000000180060700     dbmethod.obj
 0002:00007710       ??_C@_0CJ@IIBAJCIJ@?$CFs?5?$CI?$CFs?$CJ?3?5Object?5must?5be?5a?5contr@ 0000000180060710     dbmethod.obj
 0002:00007740       ??_C@_0BD@MKOJGGEO@?$CF?932s?5returned?5?$CFs?6@ 0000000180060740     dbmethod.obj
 0002:00007758       ??_C@_0DA@MCPKHBLE@Evaluated?5?$CFu?5predefined?5names?5i@ 0000000180060758     dbmethod.obj
 0002:00007788       ??_C@_0CF@IOGFMFFB@Evaluated?5?$CFu?5names?5in?5the?5names@ 0000000180060788     dbmethod.obj
 0002:000077b8       ??_C@_03OMGOFJGM@ANY@      00000001800607b8     dbnames.obj
 0002:000077c0       ??_C@_08GHGIAALG@INTEGERS@ 00000001800607c0     dbnames.obj
 0002:000077d0       ??_C@_07BNMDDAAP@STRINGS@  00000001800607d0     dbnames.obj
 0002:000077d8       ??_C@_07NMFODLMI@BUFFERS@  00000001800607d8     dbnames.obj
 0002:000077e0       ??_C@_08BKHIKNNO@PACKAGES@ 00000001800607e0     dbnames.obj
 0002:000077f0       ??_C@_07MAGLNBOC@DEVICES@  00000001800607f0     dbnames.obj
 0002:000077f8       ??_C@_06LPIMOBHJ@EVENTS@   00000001800607f8     dbnames.obj
 0002:00007800       ??_C@_07LHNKMKJD@MUTEXES@  0000000180060800     dbnames.obj
 0002:00007808       ??_C@_07PELGGICJ@REGIONS@  0000000180060808     dbnames.obj
 0002:00007810       ??_C@_0P@HNILJMAJ@POWERRESOURCES@ 0000000180060810     dbnames.obj
 0002:00007820       ??_C@_0L@CJFNOFCE@PROCESSORS@ 0000000180060820     dbnames.obj
 0002:00007830       ??_C@_0N@LHNCHFNJ@THERMALZONES@ 0000000180060830     dbnames.obj
 0002:00007840       ??_C@_0N@PIFKGOJ@BUFFERFIELDS@ 0000000180060840     dbnames.obj
 0002:00007850       ??_C@_0L@CDPMDMBM@DDBHANDLES@ 0000000180060850     dbnames.obj
 0002:00007860       ??_C@_0N@DJCFMHHI@REGIONFIELDS@ 0000000180060860     dbnames.obj
 0002:00007870       ??_C@_0L@KBNLIEFN@BANKFIELDS@ 0000000180060870     dbnames.obj
 0002:00007880       ??_C@_0M@IABBIPCJ@INDEXFIELDS@ 0000000180060880     dbnames.obj
 0002:00007890       ??_C@_07IPPKDGEF@ALIASES@  0000000180060890     dbnames.obj
 0002:00007898       ??_C@_0O@NCLLKCAG@METHODALIASES@ 0000000180060898     dbnames.obj
 0002:000078a8       ??_C@_0P@LPJFELOE@ADDRESSHANDLER@ 00000001800608a8     dbnames.obj
 0002:000078b8       ??_C@_08KGDJAKPA@RESOURCE@ 00000001800608b8     dbnames.obj
 0002:000078c8       ??_C@_0O@DJNDPAKK@RESOURCEFIELD@ 00000001800608c8     dbnames.obj
 0002:000078d8       ??_C@_06PALCKOP@SCOPES@    00000001800608d8     dbnames.obj
 0002:000078e0       ??_C@_0BD@KOHGNADN@Current?5scope?3?5?$CFs?6@ 00000001800608e0     dbnames.obj
 0002:000078f4       ??_C@_01KICIPPFI@?2@       00000001800608f4     dbnames.obj
 0002:000078f8       ??_C@_0P@CMOMICBG@New?5scope?3?5?$CFs?6@ 00000001800608f8     dbnames.obj
 0002:00007908       ??_C@_0CA@PIELOPMB@Could?5not?5attach?5scope?3?5?$CFs?0?5?$CFs?6@ 0000000180060908     dbnames.obj
 0002:00007928       ??_C@_0CL@MGKJGFCK@ACPI?5Namespace?5?$CIfrom?5?$CF4?44s?5?$CI?$CFp?$CJ@ 0000000180060928     dbnames.obj
 0002:00007958       ??_C@_0P@JEMBPOMH@Namespace?5Root@ 0000000180060958     dbnames.obj
 0002:00007968       ??_C@_0BL@DGDDMPPL@ACPI?5Namespace?5?$CIfrom?5?$CFs?$CJ?3?6@ 0000000180060968     dbnames.obj
 0002:00007988       ??_C@_0BN@FMFIFKEE@ACPI?5Namespace?5?$CIfrom?5root?$CJ?3?6@ 0000000180060988     dbnames.obj
 0002:000079a8       ??_C@_0BN@PCLEFFOB@ACPI?5Namespace?5by?5owner?5?$CFX?3?6@ 00000001800609a8     dbnames.obj
 0002:000079c8       ??_C@_0CG@KMAOFLAH@Could?5Not?5get?5pathname?5for?5obje@ 00000001800609c8     dbnames.obj
 0002:000079f0       ??_C@_04PBJPOEBC@?$CF32s@  00000001800609f0     dbnames.obj
 0002:000079f8       ??_C@_04EKDDGHBK@____@     00000001800609f8     dbnames.obj
 0002:00007a00       ??_C@_0CK@BAKEDGCM@Name?5must?5be?5no?5longer?5than?54?5c@ 0000000180060a00     dbnames.obj
 0002:00007a30       ??_C@_0CF@IMPOBALB@?$CF?932s?5Arguments?5?$CFX?0?5Return?5Type@ 0000000180060a30     dbnames.obj
 0002:00007a58       ??_C@_0CN@LMPDLLP@?5?$CIPkgType?5?$CF2?42X?0?5ObjType?5?$CF2?42X?0@ 0000000180060a58     dbnames.obj
 0002:00007a88       ??_C@_0CM@BNHIAFDH@Found?5?$CFu?5predefined?5names?5in?5th@ 0000000180060a88     dbnames.obj
 0002:00007ab8       ??_C@_0CB@JBILMFGM@?$FL?$CF4?44s?$FN?3?5Unknown?5object?5type?5?$CFX@ 0000000180060ab8     dbnames.obj
 0002:00007adc       ??_C@_03IKGEINEE@?$CFs?5@  0000000180060adc     dbnames.obj
 0002:00007ae0       ??_C@_0BO@FNLHNHMK@Could?5Not?5evaluate?5object?5?$CFp?6@ 0000000180060ae0     dbnames.obj
 0002:00007b00       ??_C@_01HCONENDN@?$HL@     0000000180060b00     dbnames.obj
 0002:00007b08       ??_C@_0L@MKHBMFNI@?$CF8?48X?$CF8?48X@ 0000000180060b08     dbnames.obj
 0002:00007b14       ??_C@_02KGHIDFGE@?$HN?6@   0000000180060b14     dbnames.obj
 0002:00007b18       ??_C@_0CB@ELONHKAC@?6Summary?5of?5namespace?5objects?3?6@ 0000000180060b18     dbnames.obj
 0002:00007b40       ??_C@_09PGDMNAAC@?$CF8u?5?5?5?$CFs?6@ 0000000180060b40     dbnames.obj
 0002:00007b50       ??_C@_0CB@MMFJJDCJ@?6?$CF8u?5?5?5Total?5namespace?5objects?6@ 0000000180060b50     dbnames.obj
 0002:00007b78       ??_C@_0CB@FJFBOMCH@Invalid?5or?5unsupported?5argument@ 0000000180060b78     dbnames.obj
 0002:00007ba0       ??_C@_0DN@GFJHELIA@Objects?5of?5type?5?$FL?$CFs?$FN?5defined?5in@ 0000000180060ba0     dbnames.obj
 0002:00007be0       ??_C@_0DO@BFALEPCE@?6Found?5?$CFu?5objects?5of?5type?5?$FL?$CFs?$FN?5@ 0000000180060be0     dbnames.obj
 0002:00007c20       ??_C@_0EF@MNGOEIAO@Invalid?5Descriptor?5Type?5for?5Nod@ 0000000180060c20     dbnames.obj
 0002:00007c68       ??_C@_0CM@LINMEKE@Invalid?5Object?5Type?5for?5Node?5?$CFp@ 0000000180060c68     dbnames.obj
 0002:00007c98       ??_C@_0BO@PFDPDNMA@Invalid?5AcpiName?5for?5Node?5?$CFp?6@ 0000000180060c98     dbnames.obj
 0002:00007cb8       ??_C@_0CM@PPGKCBIL@Invalid?5Descriptor?5Type?5for?5Obj@ 0000000180060cb8     dbnames.obj
 0002:00007ce8       ??_C@_0CN@GKKAICOD@Verified?5?$CFu?5namespace?5nodes?5wit@ 0000000180060ce8     dbnames.obj
 0002:00007d18       ??_C@_0BK@EEOFJEBB@Object?5is?5a?5Node?5?$FL?$CF4?44s?$FN?6@ 0000000180060d18     dbnames.obj
 0002:00007d38       ??_C@_0CG@EIGKHBJG@Reference?5at?5Node?9?$DOObject?5?$CFp?5?$FL?$CF@ 0000000180060d38     dbnames.obj
 0002:00007d60       ??_C@_0O@BFFHAEG@?$CF?932s?5Type?5?$CFX@ 0000000180060d60     dbnames.obj
 0002:00007d70       ??_C@_0BH@HEDLNIML@?5?5?9?5Is?5PCI?5Root?5Bridge@ 0000000180060d70     dbnames.obj
 0002:00007d88       ??_C@_09LLHDOGDM@_PRT?3?5?$CFp?6@ 0000000180060d88     dbnames.obj
 0002:00007d98       ??_C@_0BC@MAJNNGCI@_ADR?3?5?$CF8?48X?$CF8?48X?6@ 0000000180060d98     dbnames.obj
 0002:00007db0       ??_C@_0BF@NDJKABJK@_ADR?3?5?$DMNot?5Present?$DO?6@ 0000000180060db0     dbnames.obj
 0002:00007dc8       ??_C@_09OICCAJLP@_HID?3?5?$CFs?6@ 0000000180060dc8     dbnames.obj
 0002:00007dd8       ??_C@_0BF@DMNCJMMM@_HID?3?5?$DMNot?5Present?$DO?6@ 0000000180060dd8     dbnames.obj
 0002:00007df0       ??_C@_09LFKNKMJJ@_UID?3?5?$CFs?6@ 0000000180060df0     dbnames.obj
 0002:00007e00       ??_C@_0BF@GKEFDBEE@_UID?3?5?$DMNot?5Present?$DO?6@ 0000000180060e00     dbnames.obj
 0002:00007e18       ??_C@_09GKHHJHGC@_CID?3?5?$CFs?6@ 0000000180060e18     dbnames.obj
 0002:00007e28       ??_C@_0BF@OKAAHLE@_CID?3?5?$DMNot?5Present?$DO?6@ 0000000180060e28     dbnames.obj
 0002:00007e40       ??_C@_0CN@BGDBBIFB@Executing?5subtree?5for?5Buffer?1Pa@ 0000000180060e40     dbobject.obj
 0002:00007e70       ??_C@_0P@ICMOCGBA@?5Uninitialized@ 0000000180060e70     dbobject.obj
 0002:00007e80       ??_C@_08EANIIEBL@?5?$CFp?5?$FL?$CFs?$FN@ 0000000180060e80     dbobject.obj
 0002:00007e8c       ??_C@_03EEBNCBOD@?5?$CFs@  0000000180060e8c     dbobject.obj
 0002:00007e90       ??_C@_0M@MCBCGJKD@?5?$CF8?48X?$CF8?48X@ 0000000180060e90     dbobject.obj
 0002:00007ea0       ??_C@_0M@COBDOKPM@?$CI?$CFu?$CJ?5?$CC?$CF?460s@ 0000000180060ea0     dbobject.obj
 0002:00007eac       ??_C@_03KHICJKCI@?4?4?4@   0000000180060eac     dbobject.obj
 0002:00007eb0       ??_C@_01BJJEKLCA@?$CC@     0000000180060eb0     dbobject.obj
 0002:00007eb4       ??_C@_04EJPMAGHL@?$CI?$CFu?$CJ@ 0000000180060eb4     dbobject.obj
 0002:00007ebc       ??_C@_06DEMOFINB@?5?$CF2?42X@ 0000000180060ebc     dbobject.obj
 0002:00007ec4       ??_C@_03GPDAHCCA@?5?$CFp@  0000000180060ec4     dbobject.obj
 0002:00007ec8       ??_C@_0BN@GOEBECEE@?$DMNode?$DO?5?5?5?5?5?5?5?5?5?5?5?5Name?5?$CF4?44s@ 0000000180060ec8     dbobject.obj
 0002:00007ee8       ??_C@_0O@NIDMEIN@?5?$FLMethod?5Arg?$FN@ 0000000180060ee8     dbobject.obj
 0002:00007ef8       ??_C@_0BA@MNBOGNCN@?5?$FLMethod?5Local?$FN@ 0000000180060ef8     dbobject.obj
 0002:00007f08       ??_C@_07OJHBMKDO@?5Device@ 0000000180060f08     dbobject.obj
 0002:00007f10       ??_C@_0O@GGIAHKKI@?5Thermal?5Zone@ 0000000180060f10     dbobject.obj
 0002:00007f20       ??_C@_03IICCDDBN@?$CFp?5@  0000000180060f20     dbobject.obj
 0002:00007f28       ??_C@_0P@LOIDEDHJ@?$DMNull?5Object?$DO?6@ 0000000180060f28     dbobject.obj
 0002:00007f38       ??_C@_0L@BBOHBIKK@?$DMParser?$DO?5?5@ 0000000180060f38     dbobject.obj
 0002:00007f48       ??_C@_0BI@BDFEIGBD@?5Type?5?$CFX?5?$FLInvalid?5Type?$FN@ 0000000180060f48     dbobject.obj
 0002:00007f60       ??_C@_05KJDPJACP@?$FL?$CFs?$FN?5@ 0000000180060f60     dbobject.obj
 0002:00007f68       ??_C@_03LOHMCEEF@?$CFX?5@  0000000180060f68     dbobject.obj
 0002:00007f6c       ??_C@_02BBAHNLBA@?$CFp@    0000000180060f6c     dbobject.obj
 0002:00007f70       ??_C@_0BN@NDNDMHAF@?5Uninitialized?5WHERE?5pointer@ 0000000180060f70     dbobject.obj
 0002:00007f90       ??_C@_0BK@LOCDKCPL@Unknown?5index?5target?5type@ 0000000180060f90     dbobject.obj
 0002:00007fb0       ??_C@_0CK@JEKKMBFL@Uninitialized?5reference?5subobje@ 0000000180060fb0     dbobject.obj
 0002:00007fdc       ??_C@_06KDHKGNB@?$CF2?42X?6@ 0000000180060fdc     dbobject.obj
 0002:00007fe8       ??_C@_0BC@IKIDFILJ@?$DMObj?$DO?5?5?5?5?5?5?5?5?5?5?5?5@ 0000000180060fe8     dbobject.obj
 0002:00008000       ??_C@_0CK@DDLLOOAN@?$DMNot?5a?5valid?5ACPI?5Object?5Descri@ 0000000180061000     dbobject.obj
 0002:00008030       ??_C@_0DL@PHNEIDEK@No?5method?5node?5?$CIExecuting?5subtr@ 0000000180061030     dbobject.obj
 0002:00008070       ??_C@_0DC@KMMCNJM@?6Initialized?5Local?5Variables?5fo@ 0000000180061070     dbobject.obj
 0002:000080a8       ??_C@_0O@HONMKEJE@?5?5?5?5Local?$CFX?3?5@ 00000001800610a8     dbobject.obj
 0002:000080b8       ??_C@_0DH@HNIGLA@No?5Local?5Variables?5are?5initiali@ 00000001800610b8     dbobject.obj
 0002:000080f0       ??_C@_0FJ@DBLFFMGC@Initialized?5Arguments?5for?5Metho@ 00000001800610f0     dbobject.obj
 0002:00008150       ??_C@_0O@JLPACIEH@?5?5?5?5Arg?$CFu?3?5?5?5@ 0000000180061150     dbobject.obj
 0002:00008160       ??_C@_0DB@JDOAKFFI@No?5Arguments?5are?5initialized?5fo@ 0000000180061160     dbobject.obj
 0002:00008194       ??_C@_06HPIPGHLH@MEMORY@   0000000180061194     dbstats.obj
 0002:0000819c       ??_C@_04MKAMAPIC@MISC@     000000018006119c     dbstats.obj
 0002:000081a4       ??_C@_05NCLDLAEH@SIZES@    00000001800611a4     dbstats.obj
 0002:000081ac       ??_C@_05ELENNHAB@STACK@    00000001800611ac     dbstats.obj
 0002:000081b4       ??_C@_04EINJHBMM@?6?$CFs?6@ 00000001800611b4     dbstats.obj
 0002:000081c0       ??_C@_0EP@FCLEGKBD@?5?5?5?5Cache?3?5?$FLDepth?5?5?5?5MaxD?5Avail@ 00000001800611c0     dbstats.obj
 0002:00008210       ??_C@_0EP@GCFBHBDE@?5?5?5?5Cache?3?5?$FLRequests?5Hits?5Misse@ 0000000180061210     dbstats.obj
 0002:00008260       ??_C@_0FF@EELLGCBE@?5?5?5?5Mem?3?5?5?5?$FLAlloc?5?5?5?5Free?5Max?5?5@ 0000000180061260     dbstats.obj
 0002:000082c0       ??_C@_0FL@OOBBMJFB@?5?5?5?5Mem?3?5?5?5?$FLAlloc?5Free?5Max?5CurS@ 00000001800612c0     dbstats.obj
 0002:00008320       ??_C@_0CM@MFPCOCPM@ACPI?5Table?5Information?5?$CInot?5imp@ 0000000180061320     dbstats.obj
 0002:00008350       ??_C@_0CN@KPGNFAOD@?6Objects?5defined?5in?5the?5current@ 0000000180061350     dbstats.obj
 0002:00008380       ??_C@_05FCHNHEAO@NODES@    0000000180061380     dbstats.obj
 0002:00008388       ??_C@_09GJFLABEI@ACPI_TYPE@ 0000000180061388     dbstats.obj
 0002:00008398       ??_C@_0BJ@JDHJGLCE@?$CF16?416s?5?$CF10?410s?5?$CF10?410s?6@ 0000000180061398     dbstats.obj
 0002:000083b8       ??_C@_0BD@NHGKKDCN@?$CF16?416s?5?$CF10u?5?$CF10u?6@ 00000001800613b8     dbstats.obj
 0002:000083d0       ??_C@_0N@PEHCPLME@Misc?1Unknown@ 00000001800613d0     dbstats.obj
 0002:000083e0       ??_C@_07JBOPEKDH@TOTALS?3@ 00000001800613e0     dbstats.obj
 0002:000083e8       ??_C@_0CO@DHMAIME@?6?9?9?9?9Object?5Statistics?5?$CIall?5in?5@ 00000001800613e8     dbstats.obj
 0002:00008418       ??_C@_0CN@OOLDKOMM@?6?9?9?9?9Cache?5Statistics?5?$CIall?5in?5h@ 0000000180061418     dbstats.obj
 0002:00008448       ??_C@_0BN@MCEJMIHD@?6Miscellaneous?5Statistics?3?6?6@ 0000000180061448     dbstats.obj
 0002:00008468       ??_C@_0BE@BJPHAGFP@Calls?5to?5AcpiPsFind@ 0000000180061468     dbstats.obj
 0002:00008480       ??_C@_0BC@GNJFMBDB@?$CF?928s?3?5?5?5?5?5?5?5?$CF7u?6@ 0000000180061480     dbstats.obj
 0002:00008498       ??_C@_0BG@NKGNDCEC@Calls?5to?5AcpiNsLookup@ 0000000180061498     dbstats.obj
 0002:000084b0       ??_C@_0BA@OHCJICEN@?6Mutex?5usage?3?6?6@ 00000001800614b0     dbstats.obj
 0002:000084c0       ??_C@_0BK@IKMMPMCJ@?6Internal?5object?5sizes?3?6?6@ 00000001800614c0     dbstats.obj
 0002:000084e0       ??_C@_0BG@LAFDJJKP@Common?5?5?5?5?5?5?5?5?5?5?5?$CF3d?6@ 00000001800614e0     dbstats.obj
 0002:000084f8       ??_C@_0BG@BLBIPAOF@Number?5?5?5?5?5?5?5?5?5?5?5?$CF3d?6@ 00000001800614f8     dbstats.obj
 0002:00008510       ??_C@_0BG@PHHJKOEN@String?5?5?5?5?5?5?5?5?5?5?5?$CF3d?6@ 0000000180061510     dbstats.obj
 0002:00008528       ??_C@_0BG@CFOANDHP@Buffer?5?5?5?5?5?5?5?5?5?5?5?$CF3d?6@ 0000000180061528     dbstats.obj
 0002:00008540       ??_C@_0BG@FLILIPNC@Package?5?5?5?5?5?5?5?5?5?5?$CF3d?6@ 0000000180061540     dbstats.obj
 0002:00008558       ??_C@_0BG@CCPBGGEN@BufferField?5?5?5?5?5?5?$CF3d?6@ 0000000180061558     dbstats.obj
 0002:00008570       ??_C@_0BG@IGBDPPEL@Device?5?5?5?5?5?5?5?5?5?5?5?$CF3d?6@ 0000000180061570     dbstats.obj
 0002:00008588       ??_C@_0BG@MCPFLJCE@Event?5?5?5?5?5?5?5?5?5?5?5?5?$CF3d?6@ 0000000180061588     dbstats.obj
 0002:000085a0       ??_C@_0BG@KOALPJBG@Method?5?5?5?5?5?5?5?5?5?5?5?$CF3d?6@ 00000001800615a0     dbstats.obj
 0002:000085b8       ??_C@_0BG@DDAHGPIC@Mutex?5?5?5?5?5?5?5?5?5?5?5?5?$CF3d?6@ 00000001800615b8     dbstats.obj
 0002:000085d0       ??_C@_0BG@HBMHBCPJ@Region?5?5?5?5?5?5?5?5?5?5?5?$CF3d?6@ 00000001800615d0     dbstats.obj
 0002:000085e8       ??_C@_0BG@MAHOCNEO@PowerResource?5?5?5?5?$CF3d?6@ 00000001800615e8     dbstats.obj
 0002:00008600       ??_C@_0BG@DDLHLGKN@Processor?5?5?5?5?5?5?5?5?$CF3d?6@ 0000000180061600     dbstats.obj
 0002:00008618       ??_C@_0BG@LEDNEKC@ThermalZone?5?5?5?5?5?5?$CF3d?6@ 0000000180061618     dbstats.obj
 0002:00008630       ??_C@_0BG@HGNGKHML@RegionField?5?5?5?5?5?5?$CF3d?6@ 0000000180061630     dbstats.obj
 0002:00008648       ??_C@_0BG@EACKOKAP@BankField?5?5?5?5?5?5?5?5?$CF3d?6@ 0000000180061648     dbstats.obj
 0002:00008660       ??_C@_0BG@FCLIIOOL@IndexField?5?5?5?5?5?5?5?$CF3d?6@ 0000000180061660     dbstats.obj
 0002:00008678       ??_C@_0BG@IMILDGPI@Reference?5?5?5?5?5?5?5?5?$CF3d?6@ 0000000180061678     dbstats.obj
 0002:00008690       ??_C@_0BG@HMELPOIH@Notify?5?5?5?5?5?5?5?5?5?5?5?$CF3d?6@ 0000000180061690     dbstats.obj
 0002:000086a8       ??_C@_0BG@COKGPLDH@AddressSpace?5?5?5?5?5?$CF3d?6@ 00000001800616a8     dbstats.obj
 0002:000086c0       ??_C@_0BG@KNEJDDGF@Extra?5?5?5?5?5?5?5?5?5?5?5?5?$CF3d?6@ 00000001800616c0     dbstats.obj
 0002:000086d8       ??_C@_0BG@KOGGLEID@Data?5?5?5?5?5?5?5?5?5?5?5?5?5?$CF3d?6@ 00000001800616d8     dbstats.obj
 0002:000086f0       ??_C@_0BG@KNPPGIMI@ParseObject?5?5?5?5?5?5?$CF3d?6@ 00000001800616f0     dbstats.obj
 0002:00008708       ??_C@_0BG@CAMBMANL@ParseObjectNamed?5?$CF3d?6@ 0000000180061708     dbstats.obj
 0002:00008720       ??_C@_0BG@FGCAOMGI@ParseObjectAsl?5?5?5?$CF3d?6@ 0000000180061720     dbstats.obj
 0002:00008738       ??_C@_0BG@BKACLJHM@OperandObject?5?5?5?5?$CF3d?6@ 0000000180061738     dbstats.obj
 0002:00008750       ??_C@_0BG@MKLCKKLG@NamespaceNode?5?5?5?5?$CF3d?6@ 0000000180061750     dbstats.obj
 0002:00008768       ??_C@_0BG@JPDCLAE@AcpiObject?5?5?5?5?5?5?5?$CF3d?6@ 0000000180061768     dbstats.obj
 0002:00008780       ??_C@_0BG@DFOPKNPP@Generic?5State?5?5?5?5?$CF3d?6@ 0000000180061780     dbstats.obj
 0002:00008798       ??_C@_0BG@GBKMPBAM@Common?5State?5?5?5?5?5?$CF3d?6@ 0000000180061798     dbstats.obj
 0002:000087b0       ??_C@_0BG@EFAGFNJE@Control?5State?5?5?5?5?$CF3d?6@ 00000001800617b0     dbstats.obj
 0002:000087c8       ??_C@_0BG@MDNALKPA@Update?5State?5?5?5?5?5?$CF3d?6@ 00000001800617c8     dbstats.obj
 0002:000087e0       ??_C@_0BG@IBOBFGEN@Scope?5State?5?5?5?5?5?5?$CF3d?6@ 00000001800617e0     dbstats.obj
 0002:000087f8       ??_C@_0BG@HNNNHOBC@Parse?5Scope?5?5?5?5?5?5?$CF3d?6@ 00000001800617f8     dbstats.obj
 0002:00008810       ??_C@_0BG@BPIENNHG@Package?5State?5?5?5?5?$CF3d?6@ 0000000180061810     dbstats.obj
 0002:00008828       ??_C@_0BG@HKJMAIAE@Thread?5State?5?5?5?5?5?$CF3d?6@ 0000000180061828     dbstats.obj
 0002:00008840       ??_C@_0BG@GNFPHHNN@Result?5Values?5?5?5?5?$CF3d?6@ 0000000180061840     dbstats.obj
 0002:00008858       ??_C@_0BG@JNLKGIIN@Notify?5Info?5?5?5?5?5?5?$CF3d?6@ 0000000180061858     dbstats.obj
 0002:00008870       ??_C@_0BK@GAEPCLAO@?6Subsystem?5Stack?5Usage?3?6?6@ 0000000180061870     dbstats.obj
 0002:00008890       ??_C@_0CB@EHDJIFFA@Entry?5Stack?5Pointer?5?5?5?5?5?5?5?5?5?5?$CFp@ 0000000180061890     dbstats.obj
 0002:000088b8       ??_C@_0CB@LFPCMEOP@Lowest?5Stack?5Pointer?5?5?5?5?5?5?5?5?5?$CFp@ 00000001800618b8     dbstats.obj
 0002:000088e0       ??_C@_0CG@PDFKBNPK@Stack?5Use?5?5?5?5?5?5?5?5?5?5?5?5?5?5?5?5?5?5?5?5?$CFX@ 00000001800618e0     dbstats.obj
 0002:00008908       ??_C@_0CB@JCONAMLO@Deepest?5Procedure?5Nesting?5?5?5?5?$CFu@ 0000000180061908     dbstats.obj
 0002:00008938       ??_C@_0CM@IOOGIBOP@?$CFs?0?5Could?5not?5install?5debugger?5@ 0000000180061938     dbtest.obj
 0002:00008964       ??_C@_05PHHIDENL@?2_T98@   0000000180061964     dbtest.obj
 0002:00008970       ??_C@_0CN@DMINLEOP@Could?5not?5obtain?5handle?5for?5deb@ 0000000180061970     dbtest.obj
 0002:000089a0       ??_C@_0CN@DJIHFGJI@?$CFs?0?5Could?5not?5install?5debugger?5@ 00000001800619a0     dbtest.obj
 0002:000089d0       ??_C@_05OOGDAFJK@?2_T99@   00000001800619d0     dbtest.obj
 0002:000089d8       ??_C@_0M@PKIHJPGI@?$CF14s?3?5?$CF4?44s@ 00000001800619d8     dbtest.obj
 0002:000089e8       ??_C@_0CD@DPMJFPJA@?5No?5attached?5sub?9object?0?5ignori@ 00000001800619e8     dbtest.obj
 0002:00008a10       ??_C@_0CI@LEKIGHJB@?5Ignoring?0?5type?5not?5implemented@ 0000000180061a10     dbtest.obj
 0002:00008a38       ??_C@_0CD@MMDPHEFB@?5Invalid?5length?5for?5an?5Integer?3@ 0000000180061a38     dbtest.obj
 0002:00008a60       ??_C@_0CE@EHAEMJAC@?5?$CI?$CF?44X?5bits?0?5?$CF?43X?5bytes?$CJ?5?$CF8?48X?$CF@ 0000000180061a60     dbtest.obj
 0002:00008a88       ??_C@_0CO@JEPJPICL@?5MISMATCH?52?3?5?$CF8?48X?$CF8?48X?0?5expect@ 0000000180061a88     dbtest.obj
 0002:00008ab8       ??_C@_0CO@BIJCMLO@?5MISMATCH?53?3?5?$CF8?48X?$CF8?48X?0?5expect@ 0000000180061ab8     dbtest.obj
 0002:00008ae8       ??_C@_0BN@EFAIGFFP@?5Ignoring?5zero?5length?5buffer@ 0000000180061ae8     dbtest.obj
 0002:00008b08       ??_C@_0BJ@INFMGIIG@?5?$CI?$CF?44X?5bits?0?5?$CF?43X?5bytes?$CJ@ 0000000180061b08     dbtest.obj
 0002:00008b24       ??_C@_05OAEOBBDA@?4?4?4?5?5@ 0000000180061b24     dbtest.obj
 0002:00008b30       ??_C@_0BO@NACPPIJN@?5MISMATCH?52?3?5New?5buffer?5value@ 0000000180061b30     dbtest.obj
 0002:00008b50       ??_C@_0CN@DJDLPGKK@?5MISMATCH?53?3?5While?5restoring?5or@ 0000000180061b50     dbtest.obj
 0002:00008b80       ??_C@_0BO@BLDIALPD@Test?5String?5from?5AML?5Debugger@ 0000000180061b80     dbtest.obj
 0002:00008ba0       ??_C@_0BO@PBPLBNHL@?5?$CI?$CF?44X?5bits?0?5?$CF?43X?5bytes?$CJ?5?$CC?$CFs?$CC@ 0000000180061ba0     dbtest.obj
 0002:00008bc0       ??_C@_0BO@BIPGFFBB@?5MISMATCH?52?3?5?$CFs?0?5expecting?5?$CFs@ 0000000180061bc0     dbtest.obj
 0002:00008be0       ??_C@_0BO@HNJBGOFH@?5MISMATCH?53?3?5?$CFs?0?5expecting?5?$CFs@ 0000000180061be0     dbtest.obj
 0002:00008c00       ??_C@_0P@HGOABKJC@?5?$CF?42X?5Elements@ 0000000180061c00     dbtest.obj
 0002:00008c10       ??_C@_0BO@KNJOPKPM@?5?$CI?$CF?44X?5bits?0?5?$CF?43X?5bytes?$CJ?5?$FL?$CFs?$FN@ 0000000180061c10     dbtest.obj
 0002:00008c30       ??_C@_0EA@LAFCMHG@?5?5?5?5?5?5?$CFs?5address?5space?5is?5not?5s@ 0000000180061c30     dbtest.obj
 0002:00008c70       ??_C@_0BP@LPMJFEIA@Could?5not?5read?5from?5object?0?5?$CFs@ 0000000180061c70     dbtest.obj
 0002:00008c90       ??_C@_0CK@FMMMNIKC@?5Type?5mismatch?3?5?5Expected?5?$CFs?0?5R@ 0000000180061c90     dbtest.obj
 0002:00008cc0       ??_C@_0CE@JDLFBENK@?5Unsupported?5return?5object?5type@ 0000000180061cc0     dbtest.obj
 0002:00008ce8       ??_C@_0BO@EPMNEKOO@Could?5not?5write?5to?5object?0?5?$CFs@ 0000000180061ce8     dbtest.obj
 0002:00008d08       ??_C@_0CE@PGEOEGGG@This?5is?5the?5default?5argument?5st@ 0000000180061d08     dbtest.obj
 0002:00008d30       ??_C@_0CD@NDNCMGLH@?$CFs?3?5Unsupported?5argument?5type?3?5@ 0000000180061d30     dbtest.obj
 0002:00008d60       ??_C@_0P@CNCNHMPJ@?$FLNull?5Object?$FN?6@ 0000000180061d60     dbutils.obj
 0002:00008d70       ??_C@_02KNHHEEKP@?5?5@     0000000180061d70     dbutils.obj
 0002:00008d78       ??_C@_0BI@KAFCOOKN@?$FLNull?5Object?$FN?5?$CIType?$DN0?$CJ?6@ 0000000180061d78     dbutils.obj
 0002:00008d90       ??_C@_0BI@CEMLNBAP@?$FLInteger?$FN?5?$DN?5?$CF8?48X?$CF8?48X?6@ 0000000180061d90     dbutils.obj
 0002:00008da8       ??_C@_0BI@LACGJBAO@?$FLString?$FN?5Length?5?$CF?42X?5?$DN?5@ 0000000180061da8     dbutils.obj
 0002:00008dc0       ??_C@_0BI@HICDFJPD@?$FLBuffer?$FN?5Length?5?$CF?42X?5?$DN?5@ 0000000180061dc0     dbutils.obj
 0002:00008dd8       ??_C@_0CB@EFCGLJK@?$FLPackage?$FN?5Contains?5?$CFu?5Elements?3@ 0000000180061dd8     dbutils.obj
 0002:00008e00       ??_C@_0BG@HGLCIFHO@?$FLObject?5Reference?$FN?5?$DN?5@ 0000000180061e00     dbutils.obj
 0002:00008e18       ??_C@_0N@ENBNKEOJ@?$FLProcessor?$FN?6@ 0000000180061e18     dbutils.obj
 0002:00008e28       ??_C@_0BC@DILJLFAA@?$FLPower?5Resource?$FN?6@ 0000000180061e28     dbutils.obj
 0002:00008e40       ??_C@_0BD@OCOFEPDK@?$FLUnknown?5Type?$FN?5?$CFX?6@ 0000000180061e40     dbutils.obj
 0002:00008e58       ??_C@_0BI@CMMFNGFL@Invalid?5namestring?3?5?$CFs?6@ 0000000180061e58     dbutils.obj
 0002:00008e70       ??_C@_0BP@LGKEBHOG@Could?5not?5locate?5name?3?5?$CFs?0?5?$CFs?6@ 0000000180061e70     dbutils.obj
 0002:00008e90       ??_C@_01GBGANLPD@0@        0000000180061e90     dbutils.obj
 0002:00008eb8       ??_C@_0CE@POJIMCE@While?5parsing?1handling?5command?5@ 0000000180061eb8     dbxface.obj
 0002:00008ee0       ??_C@_0CK@JCILDCBK@?$CK?$CKbreak?$CK?$CK?5Executed?5AML?5BreakPoi@ 0000000180061ee0     dbxface.obj
 0002:00008f10       ??_C@_0BO@CLHKLNMI@?$CK?$CK?$CKBreak?$CK?$CK?$CK?5at?5AML?5offset?5?$CFX?6@ 0000000180061f10     dbxface.obj
 0002:00008f30       ??_C@_0CH@JHJAPKGE@?$CK?$CK?$CKUserBreakpoint?$CK?$CK?$CK?5at?5AML?5off@ 0000000180061f30     dbxface.obj
 0002:00008f58       ??_C@_0CJ@OINEMICP@?6AML?5Debug?3?5Next?5AML?5Opcode?5to?5@ 0000000180061f58     dbxface.obj
 0002:00008f88       ??_C@_0CL@CMINDJDO@Predicate?5?$DN?5?$FLTrue?$FN?0?5IF?5block?5wa@ 0000000180061f88     dbxface.obj
 0002:00008fb8       ??_C@_0CI@FCFDMGN@Predicate?5?$DN?5?$FLFalse?$FN?0?5Skipping?5I@ 0000000180061fb8     dbxface.obj
 0002:00008fe0       ??_C@_0CO@CIFANAAO@Predicate?5?$DN?5?$FLFalse?$FN?0?5ELSE?5block@ 0000000180061fe0     dbxface.obj
 0002:00009010       ??_C@_0BO@JKIOIJHM@Could?5not?5get?5debugger?5mutex?6@ 0000000180062010     dbxface.obj
 0002:00009030       ??_C@_0CA@OPCNICHD@Could?5not?5start?5debugger?5thread@ 0000000180062030     dbxface.obj
 0002:00009060       ??_C@_0M@JMGAHDPB@?1?$CK?5?$CF04X?5?$CK?1?5@ 0000000180062060     dmbuffer.obj
 0002:0000906c       ??_C@_06GGLIPOFD@?5?5?5?5?5?5@ 000000018006206c     dmbuffer.obj
 0002:00009078       ??_C@_08FIKNOFAP@?50x?$CF2?42X@ 0000000180062078     dmbuffer.obj
 0002:00009084       ??_C@_01IHBHIGKO@?0@       0000000180062084     dmbuffer.obj
 0002:00009088       ??_C@_01CLKCMJKC@?5@       0000000180062088     dmbuffer.obj
 0002:0000908c       ??_C@_05NGJEOOHJ@?5?5?1?1?5@ 000000018006208c     dmbuffer.obj
 0002:00009094       ??_C@_02HAOIJKIC@?$CFc@    0000000180062094     dmbuffer.obj
 0002:00009098       ??_C@_01LFCBOECM@?4@       0000000180062098     dmbuffer.obj
 0002:000090a0       ??_C@_0FI@KHNFEBNB@?$CC?$CF2?42x?$CF2?42x?$CF2?42x?$CF2?42x?9?$CF2?42x?$CF2?42@ 00000001800620a0     dmbuffer.obj
 0002:000090f8       ??_C@_09MHIMMENG@?5?1?$CK?5?$CFs?5?$CK?1@ 00000001800620f8     dmbuffer.obj
 0002:00009108       ??_C@_0BE@GKOLHJLL@?5?1?$CK?5Unknown?5UUID?5?$CK?1@ 0000000180062108     dmbuffer.obj
 0002:0000911c       ??_C@_00CNPNBAHC@@         000000018006211c     dmbuffer.obj
 0002:00009120       ??_C@_0BD@DIFPINFH@?$CF?$CK?4s?$CF?922s?5?$DN?50x?$CFX?0?6@ 0000000180062120     dmbuffer.obj
 0002:00009138       ??_C@_0BD@MLNPGBAK@?$CF?$CK?4s?$CF?922s?5?$DN?5?$CC?$CFs?$CC?0?6@ 0000000180062138     dmbuffer.obj
 0002:00009150       ??_C@_0BD@DOJEEPLM@?$CF?$CK?4s?$CF?922s?5?$DN?50x?$CFX?$CJ?6@ 0000000180062150     dmbuffer.obj
 0002:00009164       ??_C@_03CPDGCMJG@?2?$CFc@  0000000180062164     dmbuffer.obj
 0002:00009168       ??_C@_07NODDBJJP@?2x?$CF2?42X@ 0000000180062168     dmbuffer.obj
 0002:00009170       ??_C@_02HPDBCLII@?$CC?$CJ@ 0000000180062170     dmbuffer.obj
 0002:00009178       ??_C@_0O@IDPCDKNP@EisaId?5?$CI?$CC?$CFs?$CC?$CJ@ 0000000180062178     dmbuffer.obj
 0002:00009188       ??_C@_03NPBFACHO@?5?$CL?5@ 0000000180062188     dmcstyle.obj
 0002:0000918c       ??_C@_03NLJIHOMM@?5?9?5@   000000018006218c     dmcstyle.obj
 0002:00009190       ??_C@_03NONHGIEJ@?5?$CK?5@ 0000000180062190     dmcstyle.obj
 0002:00009194       ??_C@_03NIBMKKKC@?5?1?5@   0000000180062194     dmcstyle.obj
 0002:00009198       ??_C@_03NFILCPHE@?5?$CF?5@ 0000000180062198     dmcstyle.obj
 0002:0000919c       ??_C@_04PKBEFIKJ@?5?$DM?$DM?5@ 000000018006219c     dmcstyle.obj
 0002:000091a4       ??_C@_04FDJJEEEM@?5?$DO?$DO?5@ 00000001800621a4     dmcstyle.obj
 0002:000091ac       ??_C@_03NHMNJBCN@?5?$CG?5@ 00000001800621ac     dmcstyle.obj
 0002:000091b0       ??_C@_03LGOGDKEL@?5?$HM?5@ 00000001800621b0     dmcstyle.obj
 0002:000091b4       ??_C@_03INCPKIMF@?5?$FO?5@ 00000001800621b4     dmcstyle.obj
 0002:000091b8       ??_C@_04NEABMJPE@?5?$CG?$CG?5@ 00000001800621b8     dmcstyle.obj
 0002:000091c0       ??_C@_04EDGKFFPL@?5?$DN?$DN?5@ 00000001800621c0     dmcstyle.obj
 0002:000091c8       ??_C@_03MFPIGDOF@?5?$DO?5@ 00000001800621c8     dmcstyle.obj
 0002:000091cc       ??_C@_03MGHMLHIL@?5?$DM?5@ 00000001800621cc     dmcstyle.obj
 0002:000091d0       ??_C@_04BBJKINFE@?5?$HM?$HM?5@ 00000001800621d0     dmcstyle.obj
 0002:000091d8       ??_C@_04FJKFLNNM@?5?$CB?$DN?5@ 00000001800621d8     dmcstyle.obj
 0002:000091e0       ??_C@_04PLNGDCJO@?5?$DM?$DN?5@ 00000001800621e0     dmcstyle.obj
 0002:000091e8       ??_C@_04FBNPPKBF@?5?$DO?$DN?5@ 00000001800621e8     dmcstyle.obj
 0002:000091f0       ??_C@_02GBLMOEJC@?5?$FL@   00000001800621f0     dmcstyle.obj
 0002:000091f4       ??_C@_01LBDDMOBJ@?$FN@     00000001800621f4     dmcstyle.obj
 0002:000091f8       ??_C@_02ECNGHCIF@?$CL?$CL@ 00000001800621f8     dmcstyle.obj
 0002:000091fc       ??_C@_01ODHLEDKK@?$CI@     00000001800621fc     dmcstyle.obj
 0002:00009200       ??_C@_04JPENOPNA@?5?$DN?5?$CI@ 0000000180062200     dmcstyle.obj
 0002:00009208       ??_C@_03MHLONNLM@?5?$DN?5@ 0000000180062208     dmcstyle.obj
 0002:0000920c       ??_C@_04HDKMBFAC@?5?$DN?5?$HO@ 000000018006220c     dmcstyle.obj
 0002:00009214       ??_C@_01PJKLJHI@?$HO@      0000000180062214     dmcstyle.obj
 0002:00009218       ??_C@_01PKGAHCOL@?$CJ@     0000000180062218     dmcstyle.obj
 0002:0000921c       ??_C@_04DGBIFNLI@?5?$CL?$DN?5@ 000000018006221c     dmcstyle.obj
 0002:00009224       ??_C@_04BDHDACGE@?5?9?$DN?5@ 0000000180062224     dmcstyle.obj
 0002:0000922c       ??_C@_04IOKEDKNN@?5?$CK?$DN?5@ 000000018006222c     dmcstyle.obj
 0002:00009234       ??_C@_04LJHKMKOP@?5?1?$DN?5@ 0000000180062234     dmcstyle.obj
 0002:0000923c       ??_C@_04NGMHCKIL@?5?$CF?$DN?5@ 000000018006223c     dmcstyle.obj
 0002:00009244       ??_C@_05COIKBLJF@?5?$DM?$DM?$DN?5@ 0000000180062244     dmcstyle.obj
 0002:0000924c       ??_C@_05POEDIAHO@?5?$DO?$DO?$DN?5@ 000000018006224c     dmcstyle.obj
 0002:00009254       ??_C@_04MEHCIFGF@?5?$CG?$DN?5@ 0000000180062254     dmcstyle.obj
 0002:0000925c       ??_C@_04GAMCGKKD@?5?$HM?$DN?5@ 000000018006225c     dmcstyle.obj
 0002:00009264       ??_C@_04GKPJANBG@?5?$FO?$DN?5@ 0000000180062264     dmcstyle.obj
 0002:000092a8       ??_C@_0CH@OGPENEBG@Unhandled?5deferred?5AML?5opcode?5?$FL@ 00000001800622a8     dmdeferred.obj
 0002:000092d0       ??_C@_0CE@EDBPGJMF@Parsing?5deferred?5opcode?5?$CFs?5?$FL?$CF4?4@ 00000001800622d0     dmdeferred.obj
 0002:00009300       ??_C@_0BD@OAIFNBKL@?5?5?$FLPath?5not?5found?$FN@ 0000000180062300     dmnames.obj
 0002:00009318       ??_C@_0CA@CFBIFJHO@?$CK?$CK?$CK?$CKCould?5not?5get?5pathname?$CK?$CK?$CK?$CK?$CJ@ 0000000180062318     dmnames.obj
 0002:00009338       ??_C@_0M@JAECIPCN@?5?5?$CIPath?5?$CFs?$CJ@ 0000000180062338     dmnames.obj
 0002:00009344       ??_C@_03CCCOMICM@?$CF1c@   0000000180062344     dmnames.obj
 0002:00009358       ??_C@_0BK@KBPLOICF@?5?1?$CK?5External?5reference?5?$CK?1@ 0000000180062358     dmopcode.obj
 0002:00009374       ??_C@_06ICODBHCL@?5?1?1?5?$CFs@ 0000000180062374     dmopcode.obj
 0002:0000937c       ??_C@_06JMDBBNKD@?0?5?$CFu?0?5@ 000000018006237c     dmopcode.obj
 0002:00009384       ??_C@_03KNKIDPAC@Not@      0000000180062384     dmopcode.obj
 0002:00009388       ??_C@_0L@NOMBBABN@Serialized@ 0000000180062388     dmopcode.obj
 0002:00009394       ??_C@_04PBBAGMGB@?0?5?$CFu@ 0000000180062394     dmopcode.obj
 0002:0000939c       ??_C@_04ONKFDMMC@?$CFs?0?5@ 000000018006239c     dmopcode.obj
 0002:000093a4       ??_C@_03FLKGDGAN@?$CFs?$CJ@ 00000001800623a4     dmopcode.obj
 0002:000093a8       ??_C@_0L@GGDFMGDJ@FFixedHW?0?5@ 00000001800623a8     dmopcode.obj
 0002:000093b8       ??_C@_08JJNKIEFG@0x?$CF?42X?0?5@ 00000001800623b8     dmopcode.obj
 0002:000093c4       ??_C@_02KEGNLNML@?0?5@     00000001800623c4     dmopcode.obj
 0002:000093c8       ??_C@_0CF@DCIFPLF@?1?$CK?5Unknown?5Match?5Keyword?5encodi@ 00000001800623c8     dmopcode.obj
 0002:000093f0       ??_C@_02DKCKIIND@?$CFs@    00000001800623f0     dmopcode.obj
 0002:000093f8       ??_C@_0O@BALEIHFO@?$DMNULL?5OP?5PTR?$DO@ 00000001800623f8     dmopcode.obj
 0002:00009408       ??_C@_09NINEGJKP@LNotEqual@ 0000000180062408     dmopcode.obj
 0002:00009418       ??_C@_0L@GCJMDNIJ@LLessEqual@ 0000000180062418     dmopcode.obj
 0002:00009428       ??_C@_0O@FLAJEHPO@LGreaterEqual@ 0000000180062428     dmopcode.obj
 0002:00009438       ??_C@_07FJHHKMGL@0x?$CF2?42X@ 0000000180062438     dmopcode.obj
 0002:00009440       ??_C@_07NCLKCFHJ@0x?$CF4?44X@ 0000000180062440     dmopcode.obj
 0002:00009448       ??_C@_07BOFADBBM@0x?$CF8?48X@ 0000000180062448     dmopcode.obj
 0002:00009450       ??_C@_0N@ILLNCIJD@0x?$CF8?48X?$CF8?48X@ 0000000180062450     dmopcode.obj
 0002:00009460       ??_C@_0BB@HFMFJNGD@ResourceTemplate@ 0000000180062460     dmopcode.obj
 0002:00009478       ??_C@_0DP@HPECCPEK@?1?$CK?$CK?$CK?$CK?5Is?5ResourceTemplate?0?5but?5@ 0000000180062478     dmopcode.obj
 0002:000094b8       ??_C@_08DGKIALHA@ToUUID?5?$CI@ 00000001800624b8     dmopcode.obj
 0002:000094c8       ??_C@_09FOOLOOCC@Unicode?5?$CI@ 00000001800624c8     dmopcode.obj
 0002:000094d4       ??_C@_06LBMCOACO@Buffer@   00000001800624d4     dmopcode.obj
 0002:000094e0       ??_C@_07NGKEHLDJ@ToPLD?5?$CI@ 00000001800624e0     dmopcode.obj
 0002:000094e8       ??_C@_08KGCPOGAP@?$CF?$CK?4s?5?5?$CFu@ 00000001800624e8     dmopcode.obj
 0002:000094f8       ??_C@_0BA@CHFKGBLE@Offset?5?$CI0x?$CF?42X?$CJ@ 00000001800624f8     dmopcode.obj
 0002:00009508       ??_C@_0L@CELCPNLN@?5?5?5?5?0?5?5?5?$CFu@ 0000000180062508     dmopcode.obj
 0002:00009518       ??_C@_0P@MJOKFKEO@AccessAs?5?$CI?$CFs?0?5@ 0000000180062518     dmopcode.obj
 0002:00009528       ??_C@_0L@MJOHDJCG@?5?$CI0x?$CF2?42X?$CJ@ 0000000180062528     dmopcode.obj
 0002:00009538       ??_C@_0N@LNEBHPGD@Connection?5?$CI@ 0000000180062538     dmopcode.obj
 0002:00009548       ??_C@_06PBEDFIPD@Switch@   0000000180062548     dmopcode.obj
 0002:00009550       ??_C@_04OLCJPDPG@Case@     0000000180062550     dmopcode.obj
 0002:00009558       ??_C@_04JGADNOIL@Else@     0000000180062558     dmopcode.obj
 0002:00009560       ??_C@_06PFPAFCDO@ElseIf@   0000000180062560     dmopcode.obj
 0002:00009568       ??_C@_05CKGAGLOL@?$CF4?44s@ 0000000180062568     dmresrc.obj
 0002:00009570       ??_C@_0BO@NCDCLMJM@0x?$CF2?42X?0?5?5?5?5?5?5?5?5?5?5?5?5?5?5?5?1?1?5?$CFs?6@ 0000000180062570     dmresrc.obj
 0002:00009590       ??_C@_0BM@FFGPNIPL@0x?$CF4?44X?0?5?5?5?5?5?5?5?5?5?5?5?5?5?1?1?5?$CFs?6@ 0000000180062590     dmresrc.obj
 0002:000095b0       ??_C@_0BI@JIOFNNOK@0x?$CF8?48X?0?5?5?5?5?5?5?5?5?5?1?1?5?$CFs?6@ 00000001800625b0     dmresrc.obj
 0002:000095c8       ??_C@_0BF@JFPGOGDN@0x?$CF8?48X?$CF8?48X?0?5?1?1?5?$CFs?6@ 00000001800625c8     dmresrc.obj
 0002:000095e0       ??_C@_02GMHACPFF@?$CFu@    00000001800625e0     dmresrc.obj
 0002:000095e8       ??_C@_0DE@GBICGDPO@?1?$CK?$CK?$CK?5Could?5not?5validate?5Resourc@ 00000001800625e8     dmresrc.obj
 0002:00009620       ??_C@_0DM@NMFIFHKL@?1?$CK?$CK?$CK?5Disassembler?3?5inserted?5mis@ 0000000180062620     dmresrc.obj
 0002:00009660       ??_C@_0BK@CCMKEFJN@NULL?5byte?5list?5in?5buffer?6@ 0000000180062660     dmresrc.obj
 0002:00009680       ??_C@_0M@MPCMNFCK@Granularity@ 0000000180062680     dmresrcl.obj
 0002:00009690       ??_C@_0O@HHLIMOHK@Range?5Minimum@ 0000000180062690     dmresrcl.obj
 0002:000096a0       ??_C@_0O@JBNIGBJL@Range?5Maximum@ 00000001800626a0     dmresrcl.obj
 0002:000096b0       ??_C@_0BD@JGDCPNCK@Translation?5Offset@ 00000001800626b0     dmresrcl.obj
 0002:000096c4       ??_C@_06MHCOIGNA@Length@   00000001800626c4     dmresrcl.obj
 0002:000096d0       ??_C@_09FBMAGD@Alignment@  00000001800626d0     dmresrcl.obj
 0002:000096dc       ??_C@_04IGEPOOPB@Word@     00000001800626dc     dmresrcl.obj
 0002:000096e4       ??_C@_05GFGGPADF@DWord@    00000001800626e4     dmresrcl.obj
 0002:000096ec       ??_C@_05DGHNGDBN@QWord@    00000001800626ec     dmresrcl.obj
 0002:000096f8       ??_C@_08GPJDEDPN@Extended@ 00000001800626f8     dmresrcl.obj
 0002:00009708       ??_C@_0CI@BHODPOGH@?1?$CK?$CK?$CK?$CK?5Invalid?5Resource?5Type?3?50x@ 0000000180062708     dmresrcl.obj
 0002:00009730       ??_C@_0BB@CNPPPKPP@Space?5?$CI0x?$CF2?42X?0?5@ 0000000180062730     dmresrcl.obj
 0002:00009748       ??_C@_09KJNGNLNK@?50x?$CF2?42X?0@ 0000000180062748     dmresrcl.obj
 0002:00009754       ??_C@_04CMGGEPKO@?$CFs?5?$CI@ 0000000180062754     dmresrcl.obj
 0002:0000975c       ??_C@_04HGMFEN@?5?$CFs?0@  000000018006275c     dmresrcl.obj
 0002:00009768       ??_C@_0BA@CIPNFHJF@?$CFs?0?5?$CFs?0?5?$CFs?0?5?$CFs?0@ 0000000180062768     dmresrcl.obj
 0002:00009778       ??_C@_04KHEKMLOH@?0?5?$CFs@ 0000000180062778     dmresrcl.obj
 0002:00009780       ??_C@_0BI@HOINCPGL@?$CFs?0?5?$CFs?0?5?$CFs?0?5?$CFs?0?5?$CFs?0?5?$CFs?0@ 0000000180062780     dmresrcl.obj
 0002:00009798       ??_C@_08KOBFCOB@?0?5?$CFs?0?5?$CFs@ 0000000180062798     dmresrcl.obj
 0002:000097a4       ??_C@_03JAIMKLED@?0?0?5@   00000001800627a4     dmresrcl.obj
 0002:000097a8       ??_C@_08ODAIKENC@0x?$CF2?42X?0@ 00000001800627a8     dmresrcl.obj
 0002:000097b8       ??_C@_0BJ@IJKFCNHD@Type?9Specific?5Attributes@ 00000001800627b8     dmresrcl.obj
 0002:000097d8       ??_C@_0P@DHLNOLAI@Memory24?5?$CI?$CFs?0?6@ 00000001800627d8     dmresrcl.obj
 0002:000097e8       ??_C@_0P@OGKJPGMM@Memory32?5?$CI?$CFs?0?6@ 00000001800627e8     dmresrcl.obj
 0002:000097f8       ??_C@_0BE@NDKFIHDJ@Memory32Fixed?5?$CI?$CFs?0?6@ 00000001800627f8     dmresrcl.obj
 0002:00009810       ??_C@_0N@KIOGFJIH@Address?5Base@ 0000000180062810     dmresrcl.obj
 0002:00009820       ??_C@_0P@GBHOMMOK@Address?5Length@ 0000000180062820     dmresrcl.obj
 0002:00009830       ??_C@_0L@MMAFEPDO@Register?5?$CI@ 0000000180062830     dmresrcl.obj
 0002:00009840       ??_C@_09FOGMLNBJ@Bit?5Width@ 0000000180062840     dmresrcl.obj
 0002:00009850       ??_C@_0L@GFMOOAHJ@Bit?5Offset@ 0000000180062850     dmresrcl.obj
 0002:00009860       ??_C@_07EODJIPPN@Address@  0000000180062860     dmresrcl.obj
 0002:00009868       ??_C@_0M@EKHMGPKL@Access?5Size@ 0000000180062868     dmresrcl.obj
 0002:00009878       ??_C@_0BM@DDBBFIDA@Interrupt?5?$CI?$CFs?0?5?$CFs?0?5?$CFs?0?5?$CFs?0?5@ 0000000180062878     dmresrcl.obj
 0002:00009894       ??_C@_02KCPFEJNG@?$HL?6@   0000000180062894     dmresrcl.obj
 0002:00009898       ??_C@_09HMBBBEDJ@0x?$CF8?48X?0?6@ 0000000180062898     dmresrcl.obj
 0002:000098a8       ??_C@_0L@NNBCLFLN@Vendor?$CFs?5?$CI@ 00000001800628a8     dmresrcl.obj
 0002:000098b8       ??_C@_0BL@MGBDLHFD@?$CJ?5?5?5?5?5?5?1?1?5Length?5?$DN?50x?$CF?42X?6@ 00000001800628b8     dmresrcl.obj
 0002:000098d4       ??_C@_05COCAANOA@Long?5@   00000001800628d4     dmresrcl.obj
 0002:000098e0       ??_C@_09PNLKJPPO@0x?$CF2?42X?0?5@ 00000001800628e0     dmresrcl2.obj
 0002:000098f0       ??_C@_0N@CDKEBADP@Csi2Bus?5?$CI?$CFs?0@ 00000001800628f0     dmresrcl2.obj
 0002:00009900       ??_C@_0BE@MEBIGCMK@?50x?$CF2?42X?0?50x?$CF2?42X?0?6@ 0000000180062900     dmresrcl2.obj
 0002:00009914       ??_C@_02MLAGHBOD@?0?6@     0000000180062914     dmresrcl2.obj
 0002:00009918       ??_C@_0CH@EGNIGDK@I2cSerialBusV2?5?$CI0x?$CF4?44X?0?5?$CFs?0?50x@ 0000000180062918     dmresrcl2.obj
 0002:00009940       ??_C@_06NGDBIOFH@?0?5?$CFs?0?6@ 0000000180062940     dmresrcl2.obj
 0002:00009948       ??_C@_0CL@MGAHGKED@SpiSerialBusV2?5?$CI0x?$CF4?44X?0?5?$CFs?0?5?$CFs@ 0000000180062948     dmresrcl2.obj
 0002:00009978       ??_C@_0BC@IBKIBAFJ@?$CFs?0?50x?$CF8?48X?0?5?$CFs?0?6@ 0000000180062978     dmresrcl2.obj
 0002:00009990       ??_C@_0CD@JDCLFKED@UartSerialBusV2?5?$CI0x?$CF8?48X?0?5?$CFs?0?5?$CF@ 0000000180062990     dmresrcl2.obj
 0002:000099b8       ??_C@_0BG@HJHLENMO@0x?$CF2?42X?0?5?$CFs?0?5?$CFs?0?5?$CFs?0?6@ 00000001800629b8     dmresrcl2.obj
 0002:000099d0       ??_C@_0BD@CDJBEOMD@0x?$CF4?44X?0?50x?$CF4?44X?0?5@ 00000001800629d0     dmresrcl2.obj
 0002:000099e8       ??_C@_0CH@EILHALPN@RawDataBuffer?5?$CI0x?$CF?42X?$CJ?5?5?1?1?5Vend@ 00000001800629e8     dmresrcl2.obj
 0002:00009a10       ??_C@_01CELHOKLL@?$HN@     0000000180062a10     dmresrcl2.obj
 0002:00009a18       ??_C@_0BB@LFAGHLEF@?$HL?5?5?5?1?1?5Pin?5list?6@ 0000000180062a18     dmresrcl2.obj
 0002:00009a30       ??_C@_0L@KDNDLIPH@0x?$CF4?44X?$CFs?6@ 0000000180062a30     dmresrcl2.obj
 0002:00009a40       ??_C@_0BG@CNOJNOPO@GpioInt?5?$CI?$CFs?0?5?$CFs?0?5?$CFs?0?5@ 0000000180062a40     dmresrcl2.obj
 0002:00009a58       ??_C@_09HOEBJDEM@0x?$CF4?44X?0?6@ 0000000180062a58     dmresrcl2.obj
 0002:00009a68       ??_C@_0N@JEIKNFJG@GpioIo?5?$CI?$CFs?0?5@ 0000000180062a68     dmresrcl2.obj
 0002:00009a78       ??_C@_09BBCKFPGE@0x?$CF4?44X?0?5@ 0000000180062a78     dmresrcl2.obj
 0002:00009a84       ??_C@_04ICMOPAOK@?$CFs?0?6@ 0000000180062a84     dmresrcl2.obj
 0002:00009a90       ??_C@_0BD@KBKGEGBF@Unknown?5GPIO?5type?6@ 0000000180062a90     dmresrcl2.obj
 0002:00009aa8       ??_C@_0N@KMFIPEOE@ClockInput?5?$CI@ 0000000180062aa8     dmresrcl2.obj
 0002:00009ab8       ??_C@_09BDHKNIBB@0x?$CF8?48X?0?5@ 0000000180062ab8     dmresrcl2.obj
 0002:00009ac8       ??_C@_0BC@PPMGNGFE@PinFunction?5?$CI?$CFs?0?5@ 0000000180062ac8     dmresrcl2.obj
 0002:00009ae0       ??_C@_09JCNBFDNG@0x?$CF2?42X?0?6@ 0000000180062ae0     dmresrcl2.obj
 0002:00009af0       ??_C@_0BD@HFKILMNI@0x?$CF2?42X?5?1?$CK?5?$CFs?5?$CK?1?0?5@ 0000000180062af0     dmresrcl2.obj
 0002:00009b08       ??_C@_0BP@MICFDJFL@0x?$CF2?42X?0?5?1?$CK?5Vendor?5Defined?5?$CK?1?5@ 0000000180062b08     dmresrcl2.obj
 0002:00009b28       ??_C@_0BA@PGBJCHEE@PinConfig?5?$CI?$CFs?0?5@ 0000000180062b28     dmresrcl2.obj
 0002:00009b38       ??_C@_0L@MLIFHGKL@PinGroup?5?$CI@ 0000000180062b38     dmresrcl2.obj
 0002:00009b48       ??_C@_0BH@KLCJONGH@PinGroupFunction?5?$CI?$CFs?0?5@ 0000000180062b48     dmresrcl2.obj
 0002:00009b60       ??_C@_0BF@PEINDOOK@PinGroupConfig?5?$CI?$CFs?0?5@ 0000000180062b60     dmresrcl2.obj
 0002:00009b78       ??_C@_0N@PPKFDPDO@?$CFs?0?5?$CFs?0?5?$CFs?0?5@ 0000000180062b78     dmresrcs.obj
 0002:00009b88       ??_C@_0BC@JPPJOIGK@DMA?5?$CI?$CFs?0?5?$CFs?0?5?$CFs?0?5@ 0000000180062b88     dmresrcs.obj
 0002:00009ba0       ??_C@_0BN@KKEMDEGJ@FixedDMA?5?$CI0x?$CF4?44X?0?50x?$CF4?44X?0?5@ 0000000180062ba0     dmresrcs.obj
 0002:00009bc0       ??_C@_0BN@HJOGLJAD@?$CFX?5?1?$CK?5INVALID?5DMA?5WIDTH?5?$CK?1?0?5@ 0000000180062bc0     dmresrcs.obj
 0002:00009be0       ??_C@_08ECLMIID@IO?5?$CI?$CFs?0?6@ 0000000180062be0     dmresrcs.obj
 0002:00009bf0       ??_C@_0L@LFIJNBDB@FixedIO?5?$CI?6@ 0000000180062bf0     dmresrcs.obj
 0002:00009c00       ??_C@_0CF@KIIHAHID@StartDependentFn?5?$CI0x?$CF2?42X?0?50x?$CF2@ 0000000180062c00     dmresrcs.obj
 0002:00009c28       ??_C@_0BK@NNCHNONC@StartDependentFnNoPri?5?$CI?$CJ?6@ 0000000180062c28     dmresrcs.obj
 0002:00009c48       ??_C@_0BD@MDBCFJK@EndDependentFn?5?$CI?$CJ?6@ 0000000180062c48     dmresrcs.obj
 0002:00009c5c       ??_C@_05BCAGPPBA@Short@    0000000180062c5c     dmresrcs.obj
 0002:00009c64       ??_C@_03FEPNBJLJ@MTR@      0000000180062c64     dmutils.obj
 0002:00009c68       ??_C@_03GCDEIDDN@MEQ@      0000000180062c68     dmutils.obj
 0002:00009c6c       ??_C@_03EDELGPOH@MLE@      0000000180062c6c     dmutils.obj
 0002:00009c70       ??_C@_03BAJCEMPH@MLT@      0000000180062c70     dmutils.obj
 0002:00009c74       ??_C@_03EPBOIAAG@MGE@      0000000180062c74     dmutils.obj
 0002:00009c78       ??_C@_03BMMHKDBG@MGT@      0000000180062c78     dmutils.obj
 0002:00009c7c       ??_C@_06GBDKMAJN@AnyAcc@   0000000180062c7c     dmutils.obj
 0002:00009c88       ??_C@_07GOBNLFFB@ByteAcc@  0000000180062c88     dmutils.obj
 0002:00009c90       ??_C@_07LFHBOJEH@WordAcc@  0000000180062c90     dmutils.obj
 0002:00009c98       ??_C@_08LFCEHAIL@DWordAcc@ 0000000180062c98     dmutils.obj
 0002:00009ca8       ??_C@_08FDHDHHLF@QWordAcc@ 0000000180062ca8     dmutils.obj
 0002:00009cb8       ??_C@_09DOCOEJGO@BufferAcc@ 0000000180062cb8     dmutils.obj
 0002:00009cc8       ??_C@_0P@EKGAKKCA@InvalidAccType@ 0000000180062cc8     dmutils.obj
 0002:00009cd8       ??_C@_06LNNLAGCC@NoLock@   0000000180062cd8     dmutils.obj
 0002:00009ce0       ??_C@_04LADJNOK@Lock@      0000000180062ce0     dmutils.obj
 0002:00009ce8       ??_C@_08JPLDLMN@Preserve@  0000000180062ce8     dmutils.obj
 0002:00009cf8       ??_C@_0M@FGKPBPGJ@WriteAsOnes@ 0000000180062cf8     dmutils.obj
 0002:00009d08       ??_C@_0N@MMBDMLNN@WriteAsZeros@ 0000000180062d08     dmutils.obj
 0002:00009d18       ??_C@_0BC@HOIGKFJF@InvalidUpdateRule@ 0000000180062d18     dmutils.obj
 0002:00009d2c       ??_C@_06LEBJIAPJ@Memory@   0000000180062d2c     dmutils.obj
 0002:00009d34       ??_C@_02IBEMDGI@IO@        0000000180062d34     dmutils.obj
 0002:00009d38       ??_C@_09PCJCFMGA@BusNumber@ 0000000180062d38     dmutils.obj
 0002:00009d48       ??_C@_0BE@LPAJJJE@UnknownResourceType@ 0000000180062d48     dmutils.obj
 0002:00009d60       ??_C@_0L@OPIPJCCB@IRQNoFlags@ 0000000180062d60     dmutils.obj
 0002:00009d6c       ??_C@_03PEDPKBJP@IRQ@      0000000180062d6c     dmutils.obj
 0002:00009d70       ??_C@_0M@OPDLAAOC@AttribQuick@ 0000000180062d70     dmutils.obj
 0002:00009d80       ??_C@_0BC@IIAOODAE@AttribSendReceive@ 0000000180062d80     dmutils.obj
 0002:00009d98       ??_C@_0L@BLECLFNM@AttribByte@ 0000000180062d98     dmutils.obj
 0002:00009da8       ??_C@_0L@NLKGOIJO@AttribWord@ 0000000180062da8     dmutils.obj
 0002:00009db8       ??_C@_0M@CCOCNKPI@AttribBlock@ 0000000180062db8     dmutils.obj
 0002:00009dc8       ??_C@_0M@ILGMPGHP@AttribBytes@ 0000000180062dc8     dmutils.obj
 0002:00009dd8       ??_C@_0BC@DAGIHIOE@AttribProcessCall@ 0000000180062dd8     dmutils.obj
 0002:00009df0       ??_C@_0BH@NHOGLJFL@AttribBlockProcessCall@ 0000000180062df0     dmutils.obj
 0002:00009e08       ??_C@_0P@JFHDAPMG@AttribRawBytes@ 0000000180062e08     dmutils.obj
 0002:00009e18       ??_C@_0BG@HHPDENGI@AttribRawProcessBytes@ 0000000180062e18     dmutils.obj
 0002:00009e30       ??_C@_04MJLCKGBD@?$CF?$CK?4s@ 0000000180062e30     dmutils.obj
 0002:00009e38       ??_C@_0O@BEBPFOBN@?$CF5?45X?1?$CF4?44X?3?5@ 0000000180062e38     dmwalk.obj
 0002:00009e48       ??_C@_0CB@MBCAOCJL@AML?5Offset?5?$CF5?45X?0?5Opcode?5?$CF4?44X?3@ 0000000180062e48     dmwalk.obj
 0002:00009e6c       ??_C@_02GFKOMOKH@?5?$CI@   0000000180062e6c     dmwalk.obj
 0002:00009e70       ??_C@_0BP@HALOFLNJ@?$CK?$CK?$CK?5Unhandled?5named?5opcode?5?$CFX?6@ 0000000180062e70     dmwalk.obj
 0002:00009e90       ??_C@_02PHMGELLB@?6?6@     0000000180062e90     dmwalk.obj
 0002:00009f38       ??_C@_0BO@GEKLCFPI@?$FL?$CF4?44s?$FN?5BufferField?5Arg?5Init?6@ 0000000180062f38     dsargs.obj
 0002:00009f58       ??_C@_0BM@ILPAOEHG@?$FL?$CF4?44s?$FN?5BankField?5Arg?5Init?6@ 0000000180062f58     dsargs.obj
 0002:00009f78       ??_C@_0DG@HOPFCHGA@No?5pointer?5back?5to?5namespace?5no@ 0000000180062f78     dsargs.obj
 0002:00009fb0       ??_C@_0BB@IGNCMPF@Buffer?5Arg?5Init?6@ 0000000180062fb0     dsargs.obj
 0002:00009fc8       ??_C@_0DA@JHIHMGNG@No?5pointer?5back?5to?5namespace?5no@ 0000000180062fc8     dsargs.obj
 0002:00009ff8       ??_C@_0CE@FMAFGCMG@Package?5Argument?5Init?0?5AML?5Ptr?3@ 0000000180062ff8     dsargs.obj
 0002:0000a020       ??_C@_0CF@HEOBKCCC@?$FL?$CF4?44s?$FN?5OpRegion?5Arg?5Init?5at?5AM@ 0000000180063020     dsargs.obj
 0002:0000a088       ??_C@_0BN@DAKMOJNL@Op?$DN?$CFp?5Opcode?$DN?$CF2?42X?5State?$DN?$CFp?6@ 0000000180063088     dscontrol.obj
 0002:0000a0a8       ??_C@_0P@JLMEDJMI@?$FLIF_OP?$FN?5Op?$DN?$CFp?6@ 00000001800630a8     dscontrol.obj
 0002:0000a0b8       ??_C@_0BC@KAJAGPHO@?$FLWHILE_OP?$FN?5Op?$DN?$CFp?6@ 00000001800630b8     dscontrol.obj
 0002:0000a0d0       ??_C@_0BP@OMBJGHGD@?$FLWHILE_OP?$FN?5termination?$CB?5Op?$DN?$CFp?6@ 00000001800630d0     dscontrol.obj
 0002:0000a0f0       ??_C@_0BK@GCOLFNBG@?$FLRETURN_OP?$FN?5Op?$DN?$CFp?5Arg?$DN?$CFp?6@ 00000001800630f0     dscontrol.obj
 0002:0000a110       ??_C@_0CJ@JOFCPDHE@Completed?5RETURN_OP?5State?$DN?$CFp?0?5R@ 0000000180063110     dscontrol.obj
 0002:0000a140       ??_C@_0BP@ELMDMHKI@Executed?5AML?5Breakpoint?5opcode@ 0000000180063140     dscontrol.obj
 0002:0000a160       ??_C@_0CC@FADMHABD@Unknown?5control?5opcode?$DN0x?$CFX?5Op?$DN@ 0000000180063160     dscontrol.obj
 0002:0000a1c0       ??_C@_0M@NLBCFAGN@?$FLNULL?5NAME?$FN@ 00000001800631c0     dsdebug.obj
 0002:0000a1d0       ??_C@_0P@DALLDEBE@?$FL?$CFs?$FN?5?$CINode?5?$CFp?$CJ@ 00000001800631d0     dsdebug.obj
 0002:0000a1e0       ??_C@_0CP@FBOOBNIB@?6?$CK?$CK?$CK?$CK?5Exception?5?$CFs?5during?5execu@ 00000001800631e0     dsdebug.obj
 0002:0000a210       ??_C@_0BL@NEAGKGFC@?6?6Method?5Execution?5Stack?3?6@ 0000000180063210     dsdebug.obj
 0002:0000a230       ??_C@_0BP@JDHGFNEO@?5?5?5?5Method?5?$FL?$CF4?44s?$FN?5executing?3?5@ 0000000180063230     dsdebug.obj
 0002:0000a250       ??_C@_0L@CNOIAFLI@Failed?5at?5@ 0000000180063250     dsdebug.obj
 0002:0000a260       ??_C@_0BA@DLAPDHKH@Call?5to?5method?5@ 0000000180063260     dsdebug.obj
 0002:0000a2f8       ??_C@_0BO@DELHGJOH@Parse?5execute?5mode?5is?5not?5set@ 00000001800632f8     dsfield.obj
 0002:0000a318       ??_C@_0DB@LEAMFDLL@Bit?5offset?5within?5field?5too?5lar@ 0000000180063318     dsfield.obj
 0002:0000a350       ??_C@_0DC@FBJJFMLA@Field?5?$FL?$CF4?44s?$FN?5bit?5offset?5too?5la@ 0000000180063350     dsfield.obj
 0002:0000a388       ??_C@_0CD@BHEACMMD@Invalid?5opcode?5in?5field?5list?3?50@ 0000000180063388     dsfield.obj
 0002:0000a3b0       ??_C@_0BP@GKJKAPPC@Parse?5deferred?5mode?5is?5not?5set@ 00000001800633b0     dsfield.obj
 0002:0000a3f0       ??_C@_0CI@HBEKFCED@During?5Region?5initialization?5?$CFp@ 00000001800633f0     dsinit.obj
 0002:0000a418       ??_C@_0DI@HFDIEKGA@?$CK?$CK?$CK?$CK?5Starting?5initialization?5of@ 0000000180063418     dsinit.obj
 0002:0000a450       ??_C@_0BF@OCEFKIGF@During?5WalkNamespace@ 0000000180063450     dsinit.obj
 0002:0000a468       ??_C@_0BN@LPDLHBGD@?6ACPI?5table?5initialization?3?6@ 0000000180063468     dsinit.obj
 0002:0000a490       ??_C@_0HE@PMKDMJDF@Table?5?$FL?$CF4?44s?3?5?$CF?98?48s?$FN?5?$CIid?5?$CF?42X?$CJ@ 0000000180063490     dsinit.obj
 0002:0000a508       ??_C@_0BI@PEEBAAOL@?$CFu?5Methods?0?5?$CFu?5Regions?6@ 0000000180063508     dsinit.obj
 0002:0000a5e8       ??_C@_0CM@NBKEKABD@Method?5auto?9serialization?5parse@ 00000001800635e8     dsmethod.obj
 0002:0000a618       ??_C@_0CN@EJBLCAPL@Method?5serialized?5?$FL?$CF4?44s?$FN?5?$CFp?5?9?5@ 0000000180063618     dsmethod.obj
 0002:0000a648       ??_C@_0CO@JEPHFJGP@Method?5reached?5maximum?5reentran@ 0000000180063648     dsmethod.obj
 0002:0000a680       ??_C@_0EN@IPHBLDOP@Cannot?5acquire?5Mutex?5for?5method@ 0000000180063680     dsmethod.obj
 0002:0000a6d0       ??_C@_0CE@DADFIONO@Calling?5method?5?$CFp?0?5currentstate@ 00000001800636d0     dsmethod.obj
 0002:0000a6f8       ??_C@_0DK@NIOKAPDG@?$CK?$CK?$CK?$CK?5Begin?5nested?5execution?5of?5@ 00000001800636f8     dsmethod.obj
 0002:0000a738       ??_C@_0BG@MIICCFMB@?5?5?5Nested?5method?5call@ 0000000180063738     dsmethod.obj
 0002:0000a750       ??_C@_0P@KICDLCAD@?$CF?926s?3?5?5?$CF?$CKs?$CFs?6@ 0000000180063750     dsmethod.obj
 0002:0000a760       ??_C@_0DE@BKONJJGK@?$CK?$CK?$CK?$CKRestart?5?$FL?$CF4?44s?$FN?5Op?5?$CFp?5Retur@ 0000000180063760     dsmethod.obj
 0002:0000a798       ??_C@_0DG@PBKAOFJL@?5?5?5?5ReturnFromThisMethodUsed?$DP?$DN?$CF@ 0000000180063798     dsmethod.obj
 0002:0000a7d0       ??_C@_0CE@GIEFHCDM@Invalid?5zero?5thread?5count?5in?5me@ 00000001800637d0     dsmethod.obj
 0002:0000a7f8       ??_C@_0DN@MNEHFEDI@?$CK?$CK?$CK?5Completed?5execution?5of?5one?5@ 00000001800637f8     dsmethod.obj
 0002:0000a840       ??_C@_0EG@GKDCPMM@Marking?5method?5?$CF4?44s?5as?5Seriali@ 0000000180063840     dsmethod.obj
 0002:0000a958       ??_C@_0BF@HEFMAHPI@Deleting?5Local?$CFu?$DN?$CFp?6@ 0000000180063958     dsmthdat.obj
 0002:0000a970       ??_C@_0BD@HEIBAFPM@Deleting?5Arg?$CFu?$DN?$CFp?6@ 0000000180063970     dsmthdat.obj
 0002:0000a988       ??_C@_0CE@HGMAODLM@No?5parameter?5list?5passed?5to?5met@ 0000000180063988     dsmthdat.obj
 0002:0000a9b0       ??_C@_0BK@GHBCFEOP@?$CFu?5args?5passed?5to?5method?6@ 00000001800639b0     dsmthdat.obj
 0002:0000a9d0       ??_C@_0CD@IFDBHFJF@Local?5index?5?$CFu?5is?5invalid?5?$CImax?5@ 00000001800639d0     dsmthdat.obj
 0002:0000a9f8       ??_C@_0CB@DIPJKJDC@Arg?5index?5?$CFu?5is?5invalid?5?$CImax?5?$CFu@ 00000001800639f8     dsmthdat.obj
 0002:0000aa20       ??_C@_0BD@BEIPPMGI@Type?5?$CFu?5is?5invalid@ 0000000180063a20     dsmthdat.obj
 0002:0000aa38       ??_C@_0CE@CHOLEDCD@NewObj?5?$CFp?5Type?5?$CF2?42X?0?5Refs?$DN?$CFu?5?$FL@ 0000000180063a38     dsmthdat.obj
 0002:0000aa60       ??_C@_0BP@BLBNKGHD@Null?5object?5descriptor?5pointer@ 0000000180063a60     dsmthdat.obj
 0002:0000aa80       ??_C@_0CB@GEEGJJCL@Uninitialized?5Arg?$FL?$CFu?$FN?5at?5node?5?$CF@ 0000000180063a80     dsmthdat.obj
 0002:0000aaa8       ??_C@_0BN@NCLNAAML@Not?5a?5Arg?1Local?5opcode?3?50x?$CFX@ 0000000180063aa8     dsmthdat.obj
 0002:0000aac8       ??_C@_0BM@MLIDBKJA@Type?$DN?$CF2?42X?5Index?$DN?$CFu?5Obj?$DN?$CFp?6@ 0000000180063ac8     dsmthdat.obj
 0002:0000aae8       ??_C@_0BL@MMOPNJMP@Obj?$DN?$CFp?5already?5installed?$CB?6@ 0000000180063ae8     dsmthdat.obj
 0002:0000ab08       ??_C@_0DB@DDAMKJIG@Arg?5?$CI?$CFp?$CJ?5is?5an?5ObjRef?$CINode?$CJ?0?5st@ 0000000180063b08     dsmthdat.obj
 0002:0000abb0       ??_C@_0DD@JDGJKMCE@Expecting?5bytelist?0?5found?5AML?5o@ 0000000180063bb0     dsobject.obj
 0002:0000abe8       ??_C@_0DC@EIJOBLKJ@Buffer?5defined?5with?5zero?5length@ 0000000180063be8     dsobject.obj
 0002:0000ac20       ??_C@_0BN@BMNLNKKD@Unknown?5constant?5opcode?50x?$CFX@ 0000000180063c20     dsobject.obj
 0002:0000ac40       ??_C@_0EF@PMDEKIDA@Truncated?564?9bit?5constant?5found@ 0000000180063c40     dsobject.obj
 0002:0000ac88       ??_C@_0BK@OEIDJBCA@Unknown?5Integer?5type?50x?$CFX@ 0000000180063c88     dsobject.obj
 0002:0000aca8       ??_C@_0DF@DBPHAAHD@Unimplemented?5reference?5type?5fo@ 0000000180063ca8     dsobject.obj
 0002:0000ace0       ??_C@_0BO@DFPFPGJG@Unimplemented?5data?5type?3?50x?$CFX@ 0000000180063ce0     dsobject.obj
 0002:0000adb8       ??_C@_0DD@BOJDIHOB@Target?5of?5Create?5Field?5is?5not?5a@ 0000000180063db8     dsopcode.obj
 0002:0000adf0       ??_C@_0CE@HKDBJOBI@?$CI?$CFs?$CJ?5destination?5not?5a?5NS?5Node?5@ 0000000180063df0     dsopcode.obj
 0002:0000ae18       ??_C@_0CG@FKJMEICN@Attempt?5to?5CreateField?5of?5lengt@ 0000000180063e18     dsopcode.obj
 0002:0000ae40       ??_C@_0CF@IMGHDPLF@Unknown?5field?5creation?5opcode?50@ 0000000180063e40     dsopcode.obj
 0002:0000ae70       ??_C@_0FB@OBEJICBN@Field?5?$FL?$CF4?44s?$FN?5at?5bit?5offset?1len@ 0000000180063e70     dsopcode.obj
 0002:0000aec8       ??_C@_0CB@MCGHMNJN@?$CI?$CFs?$CJ?5bad?5operand?$CIs?$CJ?0?5status?50x?$CF@ 0000000180063ec8     dsopcode.obj
 0002:0000aef0       ??_C@_0DG@BGIEIAOK@Operation?5Region?5?$FL?$CF4?44s?$FN?5has?5ze@ 0000000180063ef0     dsopcode.obj
 0002:0000af28       ??_C@_0CC@OJJOBMKF@RgnObj?5?$CFp?5Addr?5?$CF8?48X?$CF8?48X?5Len?5?$CF@ 0000000180063f28     dsopcode.obj
 0002:0000af50       ??_C@_0DH@CPFBGKGI@ACPI?5Table?5?$FL?$CF4?44s?$FN?5OEM?3?$CI?$CFs?0?5?$CFs?$CJ@ 0000000180063f50     dsopcode.obj
 0002:0000af88       ??_C@_0DD@OFHDGACM@Missing?5child?5while?5evaluating?5@ 0000000180063f88     dsopcode.obj
 0002:0000b020       ??_C@_0CO@FODDKLED@?$CFs?3?5Deferring?5resolution?5of?5Pac@ 0000000180064020     dspkginit.obj
 0002:0000b050       ??_C@_0DG@FCDJIIEM@Expressions?5within?5package?5elem@ 0000000180064050     dspkginit.obj
 0002:0000b088       ??_C@_0BK@KAELGKNN@?$CK?$CK?$CK?$CKDS?5namepath?5not?5found@ 0000000180064088     dspkginit.obj
 0002:0000b0a4       ??_C@_05HBCONAIH@?$CF?948s@ 00000001800640a4     dspkginit.obj
 0002:0000b0b0       ??_C@_0EM@BCBKBEKJ@Actual?5Package?5length?5?$CI?$CFu?$CJ?5is?5l@ 00000001800640b0     dspkginit.obj
 0002:0000b100       ??_C@_0FN@KHDGMGJE@?$CFs?3?5Package?5List?5length?5?$CI?$CFu?$CJ?5sm@ 0000000180064100     dspkginit.obj
 0002:0000b160       ??_C@_0CJ@HCBDDIBJ@?$CFs?3?5Package?5element?5is?5already?5@ 0000000180064160     dspkginit.obj
 0002:0000b190       ??_C@_0DH@BEGOPKEK@While?5resolving?5a?5named?5referen@ 0000000180064190     dspkginit.obj
 0002:0000b1c8       ??_C@_0DL@ELLEIFHM@Could?5not?5resolve?5named?5package@ 00000001800641c8     dspkginit.obj
 0002:0000b2d0       ??_C@_0DE@GFKLNIAO@Removing?5reference?5on?5stale?5imp@ 00000001800642d0     dsutils.obj
 0002:0000b308       ??_C@_0DA@IFLENON@Result?5?$CFp?5will?5be?5implicitly?5re@ 0000000180064308     dsutils.obj
 0002:0000b338       ??_C@_07MPKFEGJN@Null?5Op@ 0000000180064338     dsutils.obj
 0002:0000b340       ??_C@_0CK@HEMHAGD@At?5Method?5level?0?5result?5of?5?$FL?$CFs?$FN@ 0000000180064340     dsutils.obj
 0002:0000b370       ??_C@_0BM@FNHMOKIG@Unknown?5parent?5opcode?5Op?$DN?$CFp@ 0000000180064370     dsutils.obj
 0002:0000b390       ??_C@_0CK@NCPOAHJL@Result?5of?5?$FL?$CFs?$FN?5used?5by?5Parent?5?$FL@ 0000000180064390     dsutils.obj
 0002:0000b3c0       ??_C@_0CO@BFOBDDNN@Result?5of?5?$FL?$CFs?$FN?5not?5used?5by?5Pare@ 00000001800643c0     dsutils.obj
 0002:0000b3f0       ??_C@_0BI@FAKFHCAC@Getting?5a?5name?3?5Arg?$DN?$CFp?6@ 00000001800643f0     dsutils.obj
 0002:0000b408       ??_C@_0BH@OCMJCBDO@Null?5namepath?3?5Arg?$DN?$CFp?6@ 0000000180064408     dsutils.obj
 0002:0000b420       ??_C@_0BI@CMGMFHDN@Missing?5or?5null?5operand@ 0000000180064420     dsutils.obj
 0002:0000b438       ??_C@_0CH@FJHOLKKO@NumOperands?5?$CFd?0?5ArgCount?5?$CFd?0?5In@ 0000000180064438     dsutils.obj
 0002:0000b460       ??_C@_0CE@OHKGMOBA@Created?5Arg?5?$CD?$CFu?5?$CI?$CFp?$CJ?5?$CFu?5args?5to@ 0000000180064460     dsutils.obj
 0002:0000b488       ??_C@_0BG@ECLNLDLM@While?5creating?5Arg?5?$CFu@ 0000000180064488     dsutils.obj
 0002:0000b4e0       ??_C@_0CP@NHGIDEP@Could?5not?5get?5result?5from?5predi@ 00000001800644e0     dswexec.obj
 0002:0000b510       ??_C@_0CB@BFADFFGN@No?5predicate?5ObjDesc?$DN?$CFp?5State?$DN?$CF@ 0000000180064510     dswexec.obj
 0002:0000b538       ??_C@_0DN@FHGLBJEA@Bad?5predicate?5?$CInot?5an?5integer?$CJ?5@ 0000000180064538     dswexec.obj
 0002:0000b578       ??_C@_0CF@OKEMPEBD@Completed?5a?5predicate?5eval?$DN?$CFX?5O@ 0000000180064578     dswexec.obj
 0002:0000b5a0       ??_C@_0BO@JBJHGLPG@?$CI?$CFs?$CJ?5Popping?5scope?5for?5Op?5?$CFp?6@ 00000001800645a0     dswexec.obj
 0002:0000b5c0       ??_C@_0BP@OGGBJCP@Exec?5predicate?5Op?$DN?$CFp?5State?$DN?$CFp?6@ 00000001800645c0     dswexec.obj
 0002:0000b5e0       ??_C@_0BE@NDFPHCBO@Unknown?5opcode?50x?$CFX@ 00000001800645e0     dswexec.obj
 0002:0000b5f8       ??_C@_0CC@ONBDEACB@While?5resolving?5operands?5for?5?$FL?$CF@ 00000001800645f8     dswexec.obj
 0002:0000b620       ??_C@_0CG@BJFOBOHF@Method?5Reference?5in?5a?5Package?0?5@ 0000000180064620     dswexec.obj
 0002:0000b648       ??_C@_0BK@JPHMLDOJ@Method?5invocation?0?5Op?$DN?$CFp?6@ 0000000180064648     dswexec.obj
 0002:0000b668       ??_C@_0CK@KBBFKHKO@Executing?5CreateField?5Buffer?1In@ 0000000180064668     dswexec.obj
 0002:0000b698       ??_C@_0BO@MPNAEGI@While?5writing?5to?5buffer?5field@ 0000000180064698     dswexec.obj
 0002:0000b6c0       ??_C@_0EL@LMIFEPDI@Executing?5CreateObject?5?$CIBuffer?1@ 00000001800646c0     dswexec.obj
 0002:0000b710       ??_C@_0CJ@NKKFJJHB@Executing?5OpRegion?5Address?1Leng@ 0000000180064710     dswexec.obj
 0002:0000b740       ??_C@_0CJ@JCJCJJJM@Executing?5DataTableRegion?5Strin@ 0000000180064740     dswexec.obj
 0002:0000b770       ??_C@_0BL@IBKJOKHE@Executing?5BankField?5Op?$DN?$CFp?6@ 0000000180064770     dswexec.obj
 0002:0000b790       ??_C@_0BM@JEBBHLBJ@Undefined?5opcode?5type?5Op?$DN?$CFp@ 0000000180064790     dswexec.obj
 0002:0000b7b0       ??_C@_0BP@FBKBGOK@Internal?5opcode?$DN?$CFX?5type?5Op?$DN?$CFp?6@ 00000001800647b0     dswexec.obj
 0002:0000b7d0       ??_C@_0DN@OAIDJALK@Unimplemented?5opcode?0?5class?$DN0x?$CF@ 00000001800647d0     dswexec.obj
 0002:0000b838       ??_C@_0BA@GGFHPLGL@Op?$DN?$CFp?5State?$DN?$CFp?6@ 0000000180064838     dswload.obj
 0002:0000b848       ??_C@_0BF@BKBBNEBN@State?$DN?$CFp?5Op?$DN?$CFp?5?$FL?$CFs?$FN?6@ 0000000180064848     dswload.obj
 0002:0000b860       ??_C@_0FH@JMOLKDFE@Type?5override?5?9?5?$FL?$CF4?44s?$FN?5had?5inv@ 0000000180064860     dswload.obj
 0002:0000b8c0       ??_C@_0EJ@NCMLLIAA@Invalid?5type?5?$CI?$CFs?$CJ?5for?5target?5of@ 00000001800648c0     dswload.obj
 0002:0000b910       ??_C@_0BH@EBLIMLK@?$FL?$CFs?$FN?5Override?5allowed?6@ 0000000180064910     dswload.obj
 0002:0000b928       ??_C@_0BL@FLLGAGDO@?$FL?$CFs?$FN?5Cannot?5already?5exist?6@ 0000000180064928     dswload.obj
 0002:0000b948       ??_C@_0CC@DMGMBPEG@?$FL?$CFs?$FN?5Both?5Find?5or?5Create?5allowe@ 0000000180064948     dswload.obj
 0002:0000b970       ??_C@_0CM@DCILFJDB@LOADING?9Method?3?5State?$DN?$CFp?5Op?$DN?$CFp?5@ 0000000180064970     dswload.obj
 0002:0000b9a0       ??_C@_0BP@IJKALDKM@?$CI?$CFs?$CJ?3?5Popping?5scope?5for?5Op?5?$CFp?6@ 00000001800649a0     dswload.obj
 0002:0000b9f0       ??_C@_0BI@IDEGAKMN@State?$DN?$CFp?5Op?$DN?$CFp?5Type?$DN?$CFX?6@ 00000001800649f0     dswload2.obj
 0002:0000ba10       ??_C@_0FG@CHABENK@Type?5override?5?9?5?$FL?$CF4?44s?$FN?5had?5inv@ 0000000180064a10     dswload2.obj
 0002:0000ba68       ??_C@_0CF@MLPLHNJ@?$CK?$CK?$CKNew?5Node?5?$FL?$CF4?44s?$FN?5?$CFp?5is?5tempo@ 0000000180064a68     dswload2.obj
 0002:0000ba90       ??_C@_0BM@NAPBKGEE@Opcode?5?$FL?$CFs?$FN?5Op?5?$CFp?5State?5?$CFp?6@ 0000000180064a90     dswload2.obj
 0002:0000bab0       ??_C@_0BN@HNAJCLKD@Ending?5scope?5Op?$DN?$CFp?5State?$DN?$CFp?6@ 0000000180064ab0     dswload2.obj
 0002:0000bad0       ??_C@_0CN@CODPDJAK@Create?9Load?5?$FL?$CFs?$FN?5State?$DN?$CFp?5Op?$DN?$CFp@ 0000000180064ad0     dswload2.obj
 0002:0000bb00       ??_C@_0BK@OCHPMBJF@CreateBufferField?5failure@ 0000000180064b00     dswload2.obj
 0002:0000bb20       ??_C@_0DC@IKJCFHMN@RESOLVING?9MethodCall?3?5State?$DN?$CFp?5@ 0000000180064b20     dswload2.obj
 0002:0000bba8       ??_C@_0BJ@KHHKMODL@Popped?5object?5type?5?$CI?$CFs?$CJ?6@ 0000000180064ba8     dswscope.obj
 0002:0000bbc8       ??_C@_0BF@PMGBACAC@Null?5scope?5parameter@ 0000000180064bc8     dswscope.obj
 0002:0000bbe0       ??_C@_0BK@CEGJKEDB@Invalid?5object?5type?3?50x?$CFX@ 0000000180064be0     dswscope.obj
 0002:0000bc00       ??_C@_0BF@ONJGMCDB@?$FL?$CF?42d?$FN?5Pushed?5scope?5@ 0000000180064c00     dswscope.obj
 0002:0000bc18       ??_C@_0N@DHHNGOHN@?$FL?$CF4?44s?$FN?5?$CI?$CFs?$CJ@ 0000000180064c18     dswscope.obj
 0002:0000bc28       ??_C@_0BN@KIOPLCCM@?0?5New?5scope?5?9?$DO?5?$FL?$CF4?44s?$FN?5?$CI?$CFs?$CJ?6@ 0000000180064c28     dswscope.obj
 0002:0000bc48       ??_C@_0DA@CBGDLDAG@?$FL?$CF?42d?$FN?5Popped?5scope?5?$FL?$CF4?44s?$FN?5?$CI?$CFs@ 0000000180064c48     dswscope.obj
 0002:0000bc78       ??_C@_0O@NEGMJIGF@?$FL?$CF4?44s?$FN?5?$CI?$CFs?$CJ?6@ 0000000180064c78     dswscope.obj
 0002:0000bd98       ??_C@_0BL@OBGIMHJK@No?5results?5on?5result?5stack@ 0000000180064d98     dswstate.obj
 0002:0000bdb8       ??_C@_0CB@KLKGJGOG@No?5result?5state?5for?5result?5stac@ 0000000180064db8     dswstate.obj
 0002:0000bde0       ??_C@_0CA@DKLNIDAG@Result?5stack?5is?5empty?$CB?5State?$DN?$CFp@ 0000000180064de0     dswstate.obj
 0002:0000be00       ??_C@_0CM@KJIMIICD@No?5result?5objects?5on?5result?5sta@ 0000000180064e00     dswstate.obj
 0002:0000be30       ??_C@_0CG@OBLKGBGC@Obj?$DN?$CFp?5?$FL?$CFs?$FN?5Index?$DN?$CFX?5State?$DN?$CFp?5N@ 0000000180064e30     dswstate.obj
 0002:0000be58       ??_C@_0BF@JIDLPFDD@Result?5stack?5is?5full@ 0000000180064e58     dswstate.obj
 0002:0000be70       ??_C@_0CC@COKBLAKF@Failed?5to?5extend?5the?5result?5sta@ 0000000180064e70     dswstate.obj
 0002:0000be98       ??_C@_0CB@JJKONBCO@No?5free?5elements?5in?5result?5stac@ 0000000180064e98     dswstate.obj
 0002:0000bec0       ??_C@_0CC@JOADKEJF@No?5result?5stack?5frame?5during?5pu@ 0000000180064ec0     dswstate.obj
 0002:0000bee8       ??_C@_0BN@OPDNCDMD@Null?5Object?$CB?5State?$DN?$CFp?5Num?$DN?$CFu@ 0000000180064ee8     dswstate.obj
 0002:0000bf08       ??_C@_0CE@NENBCGPO@Obj?$DN?$CFp?5?$FL?$CFs?$FN?5State?$DN?$CFp?5Num?$DN?$CFX?5Cur@ 0000000180064f08     dswstate.obj
 0002:0000bf30       ??_C@_0CH@IEAAGIKD@Result?5stack?5overflow?3?5State?$DN?$CFp@ 0000000180064f30     dswstate.obj
 0002:0000bf58       ??_C@_0BF@DOOOOCJP@Results?$DN?$CFp?5State?$DN?$CFp?6@ 0000000180064f58     dswstate.obj
 0002:0000bf70       ??_C@_0CD@JLBADFJJ@Result?5stack?5underflow?5?9?5State?$DN@ 0000000180064f70     dswstate.obj
 0002:0000bf98       ??_C@_0BP@MMLHPEEJ@Insufficient?5result?5stack?5size@ 0000000180064f98     dswstate.obj
 0002:0000bfb8       ??_C@_0CI@NMGPGJM@Result?$DN?$CFp?5RemainingResults?$DN?$CFX?5S@ 0000000180064fb8     dswstate.obj
 0002:0000bfe0       ??_C@_0CP@OFDDDFMB@Object?5stack?5overflow?$CB?5Obj?$DN?$CFp?5S@ 0000000180064fe0     dswstate.obj
 0002:0000c010       ??_C@_0BO@EJGLGNNH@Obj?$DN?$CFp?5?$FL?$CFs?$FN?5State?$DN?$CFp?5?$CDOps?$DN?$CFX?6@ 0000000180065010     dswstate.obj
 0002:0000c030       ??_C@_0DC@MLIGCHNA@Object?5stack?5underflow?$CB?5Count?$DN?$CF@ 0000000180065030     dswstate.obj
 0002:0000c068       ??_C@_0BL@GDCKFAJI@Count?$DN?$CFX?5State?$DN?$CFp?5?$CDOps?$DN?$CFu?6@ 0000000180065068     dswstate.obj
 0002:0000c088       ??_C@_0BL@FDLPIFCL@Count?$DN?$CFX?5State?$DN?$CFp?5?$CDOps?$DN?$CFX?6@ 0000000180065088     dswstate.obj
 0002:0000c0a8       ??_C@_0BG@COBELHOD@Current?5WalkState?5?$CFp?6@ 00000001800650a8     dswstate.obj
 0002:0000c0c0       ??_C@_0BN@MBHOKCBD@?$CFp?5is?5not?5a?5valid?5walk?5state@ 00000001800650c0     dswstate.obj
 0002:0000c0e0       ??_C@_0BP@JLLEFJCP@?$CFp?5walk?5still?5has?5a?5scope?5list@ 00000001800650e0     dswstate.obj
 0002:0000c150       ??_C@_0CC@FNEBMCFO@Unable?5to?5initialize?5fixed?5even@ 0000000180065150     evevent.obj
 0002:0000c178       ??_C@_0CM@BFFOICJA@Unable?5to?5initialize?5general?5pu@ 0000000180065178     evevent.obj
 0002:0000c1a8       ??_C@_0DD@OFNCKBOE@Unable?5to?5install?5System?5Contro@ 00000001800651a8     evevent.obj
 0002:0000c1e0       ??_C@_0CJ@DOOEEBEF@Unable?5to?5initialize?5Global?5Loc@ 00000001800651e0     evevent.obj
 0002:0000c210       ??_C@_0CM@BFJDLGCF@Fixed?5Event?5Block?3?5Enable?5?$CF08X?5@ 0000000180065210     evevent.obj
 0002:0000c240       ??_C@_0DK@FMKCJDPE@No?5installed?5handler?5for?5fixed?5@ 0000000180065240     evevent.obj
 0002:0000c2f0       ??_C@_0DG@HECAKGOH@No?5response?5from?5Global?5Lock?5ha@ 00000001800652f0     evglock.obj
 0002:0000c328       ??_C@_0CH@CAGICFNP@Could?5not?5signal?5Global?5Lock?5se@ 0000000180065328     evglock.obj
 0002:0000c350       ??_C@_0BP@DMLFHKNN@Acquired?5hardware?5Global?5Lock?6@ 0000000180065350     evglock.obj
 0002:0000c370       ??_C@_0CC@CJMFONAE@Waiting?5for?5hardware?5Global?5Loc@ 0000000180065370     evglock.obj
 0002:0000c398       ??_C@_0DO@FAJNMCJD@Cannot?5release?5the?5ACPI?5Global?5@ 0000000180065398     evglock.obj
 0002:0000c3d8       ??_C@_0BP@GKBMNGBB@Released?5hardware?5Global?5Lock?6@ 00000001800653d8     evglock.obj
 0002:0000c4c0       ??_C@_0EO@DMKFIPPI@Ignore?5disabled?5registers?5for?5G@ 00000001800654c0     evgpe.obj
 0002:0000c510       ??_C@_0CE@FKNHNOPG@while?5evaluating?5GPE?5method?5?$FL?$CF4@ 0000000180065510     evgpe.obj
 0002:0000c540       ??_C@_0FI@BBCLJNBJ@Read?5registers?5for?5GPE?5?$CF02X?3?5St@ 0000000180065540     evgpe.obj
 0002:0000c598       ??_C@_0BL@GIDOMBGN@Unable?5to?5disable?5GPE?5?$CF02X@ 0000000180065598     evgpe.obj
 0002:0000c5b8       ??_C@_0BJ@BJPFPJBA@Unable?5to?5clear?5GPE?5?$CF02X@ 00000001800655b8     evgpe.obj
 0002:0000c5d8       ??_C@_0DG@FBAJLBDM@Unable?5to?5queue?5handler?5for?5GPE@ 00000001800655d8     evgpe.obj
 0002:0000c610       ??_C@_0DD@GDEFLNNH@No?5handler?5or?5method?5for?5GPE?5?$CF0@ 0000000180065610     evgpe.obj
 0002:0000c6d0       ??_C@_0CN@IHJGAKIJ@Could?5not?5allocate?5the?5GpeRegis@ 00000001800656d0     evgpeblk.obj
 0002:0000c700       ??_C@_0CK@GLLJNIKF@Could?5not?5allocate?5the?5GpeEvent@ 0000000180065700     evgpeblk.obj
 0002:0000c72c       ??_C@_06ILMOPFCK@?5?$CISCI?$CJ@ 000000018006572c     evgpeblk.obj
 0002:0000c740       ??_C@_0EG@EELPBMOA@?5?5?5?5Initialized?5GPE?5?$CF02X?5to?5?$CF02@ 0000000180065740     evgpeblk.obj
 0002:0000c788       ??_C@_0BM@HFGKBHLP@Could?5not?5enable?5GPE?50x?$CF02X@ 0000000180065788     evgpeblk.obj
 0002:0000c7a8       ??_C@_0CG@OMMDBEBC@Enabled?5?$CFu?5GPEs?5in?5block?5?$CF02X?5t@ 00000001800657a8     evgpeblk.obj
 0002:0000c808       ??_C@_0CN@BHMMBNI@Initializing?5General?5Purpose?5Ev@ 0000000180065808     evgpeinit.obj
 0002:0000c838       ??_C@_0BN@LKDDNHOM@Could?5not?5create?5GPE?5Block?50@ 0000000180065838     evgpeinit.obj
 0002:0000c860       ??_C@_0FA@BPKEHKH@GPE0?5block?5?$CIGPE?50?5to?5?$CFu?$CJ?5overla@ 0000000180065860     evgpeinit.obj
 0002:0000c8b0       ??_C@_0BN@KDCIOGKN@Could?5not?5create?5GPE?5Block?51@ 00000001800658b0     evgpeinit.obj
 0002:0000c8d0       ??_C@_0CN@FLGLKDMH@There?5are?5no?5GPE?5blocks?5defined@ 00000001800658d0     evgpeinit.obj
 0002:0000c900       ??_C@_0CB@HPNLHIFH@While?5decoding?5_Lxx?1_Exx?5method@ 0000000180065900     evgpeinit.obj
 0002:0000c928       ??_C@_0BE@EGNCGPFP@Enabled?5?$CFu?5new?5GPEs@ 0000000180065928     evgpeinit.obj
 0002:0000c940       ??_C@_0EF@JHEFFCOE@Ignoring?5unknown?5GPE?5method?5typ@ 0000000180065940     evgpeinit.obj
 0002:0000c990       ??_C@_0EO@CPKOONPN@Could?5not?5extract?5GPE?5number?5fr@ 0000000180065990     evgpeinit.obj
 0002:0000c9e0       ??_C@_0DH@MPPLENP@For?5GPE?50x?$CF?42X?0?5found?5both?5_L?$CF2@ 00000001800659e0     evgpeinit.obj
 0002:0000ca18       ??_C@_0CP@PBFBGNLL@Registered?5GPE?5method?5?$CFs?5as?5GPE@ 0000000180065a18     evgpeinit.obj
 0002:0000cab0       ??_C@_0DG@EGPKPGO@Could?5not?5install?5GPE?5interrupt@ 0000000180065ab0     evgpeutil.obj
 0002:0000cb40       ??_C@_0DL@OOHEAKKM@Found?5handler?5for?5region?5?$FL?$CFs?$FN?5i@ 0000000180065b40     evhandler.obj
 0002:0000cb80       ??_C@_0DH@KGBIEIJD@Creating?5object?5on?5Device?5?$CFp?5wh@ 0000000180065b80     evhandler.obj
 0002:0000cbc0       ??_C@_0EF@LGGLOGPE@Installing?5address?5handler?5for?5@ 0000000180065bc0     evhandler.obj
 0002:0000cc38       ??_C@_0DM@EECPAPBK@No?5notify?5handler?5for?5Notify?0?5i@ 0000000180065c38     evmisc.obj
 0002:0000cc78       ??_C@_0DP@JLDCOLII@Dispatching?5Notify?5on?5?$FL?$CF4?44s?$FN?5?$CI@ 0000000180065c78     evmisc.obj
 0002:0000ccb8       ??_C@_0CB@KFPCABBJ@Could?5not?5disable?5fixed?5event?5?$CF@ 0000000180065cb8     evmisc.obj
 0002:0000cce0       ??_C@_0CE@JKBNHDEO@Could?5not?5disable?5GPEs?5in?5GPE?5b@ 0000000180065ce0     evmisc.obj
 0002:0000cd08       ??_C@_0CF@PAOLLDGF@Could?5not?5remove?5Global?5Lock?5ha@ 0000000180065d08     evmisc.obj
 0002:0000cd30       ??_C@_0BN@KEOIOMFP@Could?5not?5remove?5SCI?5handler@ 0000000180065d30     evmisc.obj
 0002:0000cd50       ??_C@_0BO@MEHLJFBA@Could?5not?5delete?5GPE?5handlers@ 0000000180065d50     evmisc.obj
 0002:0000cd70       ??_C@_0BD@EJGLGONH@AcpiDisable?5failed@ 0000000180065d70     evmisc.obj
 0002:0000ce38       ??_C@_0CI@GFLDCLAB@No?5handler?5for?5Region?5?$FL?$CF4?44s?$FN?5?$CI@ 0000000180065e38     evregion.obj
 0002:0000ce60       ??_C@_0CE@JNCOOPHN@No?5init?5routine?5for?5region?$CI?$CFp?$CJ?5@ 0000000180065e60     evregion.obj
 0002:0000ce88       ??_C@_0CD@PJEGEEMJ@During?5region?5initialization?3?5?$FL@ 0000000180065e88     evregion.obj
 0002:0000ceb0       ??_C@_0CK@MOFKEBGE@Handler?5?$CFp?5?$CI?$EA?$CFp?$CJ?5Address?5?$CF8?48X?$CF@ 0000000180065eb0     evregion.obj
 0002:0000cee0       ??_C@_0BN@OBKJJDME@Returned?5by?5Handler?5for?5?$FL?$CFs?$FN@ 0000000180065ee0     evregion.obj
 0002:0000cf00       ??_C@_0CN@HNGHLKMC@Timeout?5from?5EC?5hardware?5or?5EC?5@ 0000000180065f00     evregion.obj
 0002:0000cf30       ??_C@_0CM@CPJCFPOC@Removing?5Region?5?$CFp?5from?5address@ 0000000180065f30     evregion.obj
 0002:0000cf60       ??_C@_0BH@NAIJEMMC@from?5region?5_REG?0?5?$FL?$CFs?$FN@ 0000000180065f60     evregion.obj
 0002:0000cf78       ??_C@_0CH@HABDNKNP@from?5region?5handler?5?9?5deactivat@ 0000000180065f78     evregion.obj
 0002:0000cfa0       ??_C@_0CK@PKOAJBCB@Circular?5handler?5list?5in?5region@ 0000000180065fa0     evregion.obj
 0002:0000cfd0       ??_C@_0DB@DOODFPII@Cannot?5remove?5region?5?$CFp?5from?5ad@ 0000000180065fd0     evregion.obj
 0002:0000d008       ??_C@_0DF@BBPJKBOK@Adding?5Region?5?$FL?$CF4?44s?$FN?5?$CFp?5to?5add@ 0000000180066008     evregion.obj
 0002:0000d040       ??_C@_04CLPDABDI@_REG@     0000000180066040     evregion.obj
 0002:0000d048       ??_C@_0CJ@IOGFFJHE@?5?5?5?5Running?5_REG?5methods?5for?5Sp@ 0000000180066048     evregion.obj
 0002:0000d078       ??_C@_0CN@ILODNIHF@?5?5?5?5Executed?5?$CFu?5_REG?5methods?5fo@ 0000000180066078     evregion.obj
 0002:0000d180       ??_C@_0DB@GHNIJMKE@Attempting?5to?5init?5a?5region?5?$CFp?0@ 0000000180066180     evrgnini.obj
 0002:0000d1b8       ??_C@_0DK@NMHFABAP@Could?5not?5install?5PciConfig?5han@ 00000001800661b8     evrgnini.obj
 0002:0000d1f4       ??_C@_04FPCIHFGK@_ADR@     00000001800661f4     evrgnini.obj
 0002:0000d1fc       ??_C@_04JDEPGGFN@_SEG@     00000001800661fc     evrgnini.obj
 0002:0000d204       ??_C@_04KPGHPLGL@_BBN@     0000000180066204     evrgnini.obj
 0002:0000d210       ??_C@_0CK@BBGFOMCG@Found?5handler?5?$CFp?5for?5region?5?$CFp?5@ 0000000180066210     evrgnini.obj
 0002:0000d240       ??_C@_0DB@JAHEMPDH@No?5handler?5for?5RegionType?5?$CFs?$CI?$CFX@ 0000000180066240     evrgnini.obj
 0002:0000d438       ??_C@_0CA@NFAKABLJ@Removing?5global?5notify?5handler?6@ 0000000180066438     evxface.obj
 0002:0000d458       ??_C@_0CH@HABLIDND@Could?5not?5enable?5fixed?5event?5?9?5@ 0000000180066458     evxface.obj
 0002:0000d480       ??_C@_0CJ@MFMIDFAH@Enabled?5fixed?5event?5?$CFs?5?$CI?$CFX?$CJ?0?5Ha@ 0000000180066480     evxface.obj
 0002:0000d4b0       ??_C@_0CI@EBNCAJFE@Could?5not?5disable?5fixed?5event?5?9@ 00000001800664b0     evxface.obj
 0002:0000d4d8       ??_C@_0CA@HJKOGMIF@Disabled?5fixed?5event?5?9?5?$CFs?5?$CI?$CFX?$CJ?6@ 00000001800664d8     evxface.obj
 0002:0000d4f8       ??_C@_0BP@IKOALPGJ@GPE?5type?5mismatch?5?$CIlevel?1edge?$CJ@ 00000001800664f8     evxface.obj
 0002:0000d598       ??_C@_0CA@EADHPIGL@System?5is?5already?5in?5ACPI?5mode?6@ 0000000180066598     evxfevnt.obj
 0002:0000d5b8       ??_C@_0CC@IIKEIIKK@Could?5not?5transition?5to?5ACPI?5mo@ 00000001800665b8     evxfevnt.obj
 0002:0000d5e0       ??_C@_0CE@BAOKIONE@Transition?5to?5ACPI?5mode?5success@ 00000001800665e0     evxfevnt.obj
 0002:0000d608       ??_C@_0CN@DMNPIAPN@System?5is?5already?5in?5legacy?5?$CIno@ 0000000180066608     evxfevnt.obj
 0002:0000d638       ??_C@_0CI@GIIAFHOL@Could?5not?5exit?5ACPI?5mode?5to?5leg@ 0000000180066638     evxfevnt.obj
 0002:0000d660       ??_C@_0BE@OKLBPBDF@ACPI?5mode?5disabled?6@ 0000000180066660     evxfevnt.obj
 0002:0000d678       ??_C@_0BK@GCJJGNFJ@Could?5not?5enable?5?$CFs?5event@ 0000000180066678     evxfevnt.obj
 0002:0000d698       ??_C@_0BM@CAJLMMIF@Could?5not?5disable?5?$CFs?5events@ 0000000180066698     evxfevnt.obj
 0002:0000d860       ??_C@_0BD@DACLLLGO@?$CFu?0?5Invalid?5action@ 0000000180066860     evxfgpe.obj
 0002:0000d8e0       ??_C@_0EA@INAFOKEB@Removing?5address?5handler?5?$CFp?$CI?$CFp?$CJ@ 00000001800668e0     evxfregn.obj
 0002:0000d920       ??_C@_0EE@MOIJNALI@Unable?5to?5remove?5address?5handle@ 0000000180066920     evxfregn.obj
 0002:0000d99c       ??_C@_01OHGJGJJP@?$FL@     000000018006699c     exconcat.obj
 0002:0000d9a0       ??_C@_08PKFAILAG@?5Object?$FN@ 00000001800669a0     exconcat.obj
 0002:0000da00       ??_C@_0BI@PEIDBNLN@Dynamic?5OEM?5Table?5Load?3@ 0000000180066a00     exconfig.obj
 0002:0000da18       ??_C@_0BF@CCOPFHFG@Type?5not?5integer?3?5?$CFX@ 0000000180066a18     exconfig.obj
 0002:0000da30       ??_C@_0BL@CPCMHGEJ@Load?5table?5from?5Region?5?$CFp?6@ 0000000180066a30     exconfig.obj
 0002:0000da50       ??_C@_0CE@BKGMJLFF@Load?5table?5from?5Buffer?5or?5Field@ 0000000180066a50     exconfig.obj
 0002:0000da78       ??_C@_0CJ@EONLEOAP@Received?5request?5to?5unload?5an?5A@ 0000000180066a78     exconfig.obj
 0002:0000daa8       ??_C@_0CF@KPDEMKKN@AML?5Unload?5operator?5is?5not?5supp@ 0000000180066aa8     exconfig.obj
 0002:0000db40       ??_C@_0BN@GHBEBGNI@Converted?5value?3?5?$CF8?48X?$CF8?48X?6@ 0000000180066b40     exconvrt.obj
 0002:0000db60       ??_C@_0DM@HGFIOCJP@Explicit?5operator?0?5will?5store?5?$CI@ 0000000180066b60     exconvrt.obj
 0002:0000dba0       ??_C@_0CN@NGHINHOB@Bad?5destination?5type?5during?5con@ 0000000180066ba0     exconvrt.obj
 0002:0000dbd0       ??_C@_0DH@NGIDJKNL@Unknown?5Target?5type?5ID?50x?$CFX?5Aml@ 0000000180066bd0     exconvrt.obj
 0002:0000dc98       ??_C@_0CK@OIHABLNB@Invalid?1unknown?5Address?5Space?5I@ 0000000180066c98     excreate.obj
 0002:0000dcc8       ??_C@_0BJ@CFFPGPMA@Region?5Type?5?9?5?$CFs?5?$CI0x?$CFX?$CJ?6@ 0000000180066cc8     excreate.obj
 0002:0000dd00       ??_C@_0BK@FOPGIOJP@ACPI?5Debug?3?5T?$DN0x?$CF8?48X?5?$CF?$CKs@ 0000000180066d00     exdebug.obj
 0002:0000dd20       ??_C@_0BA@GJJBFMH@ACPI?5Debug?3?5?$CF?$CKs@ 0000000180066d20     exdebug.obj
 0002:0000dd30       ??_C@_07DFHFMJIN@?$CI?$CF?42u?$CJ?5@ 0000000180066d30     exdebug.obj
 0002:0000dd38       ??_C@_04OELPMFKG@?$CFs?5?5@ 0000000180066d38     exdebug.obj
 0002:0000dd40       ??_C@_0BO@LCHBFGOK@?$CFp?0?5Invalid?5Internal?5Object?$CB?6@ 0000000180066d40     exdebug.obj
 0002:0000dd60       ??_C@_0P@LEDHDAFC@?$CFs?5?5?$CINode?5?$CFp?$CJ?6@ 0000000180066d60     exdebug.obj
 0002:0000dd70       ??_C@_08OOPAOEPE@0x?$CF8?48X?6@ 0000000180066d70     exdebug.obj
 0002:0000dd80       ??_C@_0O@JDGCJHFM@0x?$CF8?48X?$CF8?48X?6@ 0000000180066d80     exdebug.obj
 0002:0000dd90       ??_C@_09OHPFELHO@?$FL0x?$CF?42X?$FN?6@ 0000000180066d90     exdebug.obj
 0002:0000dd9c       ??_C@_05LFNECPGD@?$CC?$CFs?$CC?6@ 0000000180066d9c     exdebug.obj
 0002:0000dda8       ??_C@_0BN@KPDIAKDL@?$CIContains?50x?$CF?42X?5Elements?$CJ?3?6@ 0000000180066da8     exdebug.obj
 0002:0000ddc8       ??_C@_05IMEJDKHB@0x?$CFX?6@ 0000000180066dc8     exdebug.obj
 0002:0000ddd0       ??_C@_0BC@OCOHDOPJ@Table?5Index?50x?$CFX?6@ 0000000180066dd0     exdebug.obj
 0002:0000dde8       ??_C@_0CC@IKBDDF@?5?$CFp?5?9?5Not?5a?5valid?5namespace?5nod@ 0000000180066de8     exdebug.obj
 0002:0000de10       ??_C@_0BB@CDKGNAIM@Node?5?$CFp?5?$FL?$CF4?44s?$FN?5@ 0000000180066e10     exdebug.obj
 0002:0000de28       ??_C@_07DKLNMNIP@Device?6@ 0000000180066e28     exdebug.obj
 0002:0000de30       ??_C@_0O@KMCJAHJE@Thermal?5Zone?6@ 0000000180066e30     exdebug.obj
 0002:0000de40       ??_C@_0BG@HMPAKJCD@Buffer?$FL?$CFu?$FN?5?$DN?50x?$CF2?42X?6@ 0000000180066e40     exdebug.obj
 0002:0000de58       ??_C@_0BN@HNBGCANA@String?$FL?$CFu?$FN?5?$DN?5?$CC?$CFc?$CC?5?$CI0x?$CF2?42X?$CJ?6@ 0000000180066e58     exdebug.obj
 0002:0000de78       ??_C@_0P@POKLAJAF@Package?$FL?$CFu?$FN?5?$DN?5@ 0000000180066e78     exdebug.obj
 0002:0000de88       ??_C@_0CB@GOPCHHGC@?$FLUninitialized?5Package?5Element?$FN@ 0000000180066e88     exdebug.obj
 0002:0000deb0       ??_C@_0CC@KDAMAGNI@Unknown?5Reference?5object?5type?5?$CF@ 0000000180066eb0     exdebug.obj
 0002:0000ded8       ??_C@_0BB@DCHBFBIE@?$CIDescriptor?5?$CFp?$CJ?6@ 0000000180066ed8     exdebug.obj
 0002:0000e4b0       ??_C@_05LPIJGKJ@Value@     00000001800674b0     exdump.obj
 0002:0000e4b8       ??_C@_07MLEFNJG@Pointer@   00000001800674b8     exdump.obj
 0002:0000e4c0       ??_C@_0M@MEHLAFMO@Parent?5Node@ 00000001800674c0     exdump.obj
 0002:0000e4cc       ??_C@_05BOOEKJH@Flags@     00000001800674cc     exdump.obj
 0002:0000e4d8       ??_C@_0O@NHDLBNPK@Element?5Count@ 00000001800674d8     exdump.obj
 0002:0000e4e8       ??_C@_0N@HCDMOPKA@Element?5List@ 00000001800674e8     exdump.obj
 0002:0000e4f8       ??_C@_0O@CDLJJPPG@System?5Notify@ 00000001800674f8     exdump.obj
 0002:0000e508       ??_C@_0O@EFHMDKPI@Device?5Notify@ 0000000180067508     exdump.obj
 0002:0000e518       ??_C@_0M@NDPNLLM@OsSemaphore@ 0000000180067518     exdump.obj
 0002:0000e528       ??_C@_0L@FAIPDKNE@Info?5Flags@ 0000000180067528     exdump.obj
 0002:0000e538       ??_C@_0BA@GAAJBNDK@Parameter?5Count@ 0000000180067538     exdump.obj
 0002:0000e548       ??_C@_0L@JKEIHPJM@Sync?5Level@ 0000000180067548     exdump.obj
 0002:0000e554       ??_C@_05IBGOOFKP@Mutex@    0000000180067554     exdump.obj
 0002:0000e560       ??_C@_08GAACBCCC@Owner?5Id@ 0000000180067560     exdump.obj
 0002:0000e570       ??_C@_0N@JBDHEKHI@Thread?5Count@ 0000000180067570     exdump.obj
 0002:0000e580       ??_C@_0L@EBDLLBEL@Aml?5Length@ 0000000180067580     exdump.obj
 0002:0000e590       ??_C@_09JBCMLNHA@Aml?5Start@ 0000000180067590     exdump.obj
 0002:0000e5a0       ??_C@_0BE@CBGFNBDI@Original?5Sync?5Level@ 00000001800675a0     exdump.obj
 0002:0000e5b8       ??_C@_0N@NMLIJFCO@Owner?5Thread@ 00000001800675b8     exdump.obj
 0002:0000e5c8       ??_C@_0O@IFLIHHFH@Acquire?5Depth@ 00000001800675c8     exdump.obj
 0002:0000e5d8       ??_C@_07HILDIBJC@OsMutex@  00000001800675d8     exdump.obj
 0002:0000e5e0       ??_C@_08NCOCHCDI@Space?5Id@ 00000001800675e0     exdump.obj
 0002:0000e5ec       ??_C@_04MDFHGMOB@Next@     00000001800675ec     exdump.obj
 0002:0000e5f8       ??_C@_0N@BHKFOAKA@System?5Level@ 00000001800675f8     exdump.obj
 0002:0000e608       ??_C@_0P@IOGJFDAH@Resource?5Order@ 0000000180067608     exdump.obj
 0002:0000e618       ??_C@_0N@BAPLEJJE@Processor?5ID@ 0000000180067618     exdump.obj
 0002:0000e628       ??_C@_0O@GPGMKDMG@Buffer?5Object@ 0000000180067628     exdump.obj
 0002:0000e638       ??_C@_0N@HPOILPJE@AccessLength@ 0000000180067638     exdump.obj
 0002:0000e648       ??_C@_0O@OIFCKAHF@Region?5Object@ 0000000180067648     exdump.obj
 0002:0000e658       ??_C@_0P@IMINDMJ@ResourceBuffer@ 0000000180067658     exdump.obj
 0002:0000e668       ??_C@_0M@IIBBKHM@Bank?5Object@ 0000000180067668     exdump.obj
 0002:0000e678       ??_C@_0N@EHPJLOKK@Index?5Object@ 0000000180067678     exdump.obj
 0002:0000e688       ??_C@_0M@ECBOCECD@Data?5Object@ 0000000180067688     exdump.obj
 0002:0000e694       ??_C@_05EKAMNAII@Class@    0000000180067694     exdump.obj
 0002:0000e6a0       ??_C@_0M@PAOMIGKN@Target?5Type@ 00000001800676a0     exdump.obj
 0002:0000e6b0       ??_C@_0M@OGFHCPDJ@Object?5Desc@ 00000001800676b0     exdump.obj
 0002:0000e6bc       ??_C@_04OKAPPFIB@Node@     00000001800676bc     exdump.obj
 0002:0000e6c4       ??_C@_05LFPDHOHC@Where@    00000001800676c4     exdump.obj
 0002:0000e6d0       ??_C@_0O@MOGPAPKF@Index?5Pointer@ 00000001800676d0     exdump.obj
 0002:0000e6e0       ??_C@_0M@KFDFAICM@Region?5List@ 00000001800676e0     exdump.obj
 0002:0000e6f0       ??_C@_07GDNEHDJK@Context@  00000001800676f0     exdump.obj
 0002:0000e6f8       ??_C@_0N@LHIEKLBM@Handler?5Type@ 00000001800676f8     exdump.obj
 0002:0000e708       ??_C@_0BD@PDHIDMLK@Next?5System?5Notify@ 0000000180067708     exdump.obj
 0002:0000e720       ??_C@_0BD@JFLNJJLE@Next?5Device?5Notify@ 0000000180067720     exdump.obj
 0002:0000e738       ??_C@_0M@BMDOGJHJ@_REG?5Method@ 0000000180067738     exdump.obj
 0002:0000e748       ??_C@_0L@GNIOAOLH@Scope?5Node@ 0000000180067748     exdump.obj
 0002:0000e758       ??_C@_0P@LHMMEFPC@Region?5Context@ 0000000180067758     exdump.obj
 0002:0000e768       ??_C@_08HGIHDNJC@Raw?5Data@ 0000000180067768     exdump.obj
 0002:0000e778       ??_C@_0BA@JJBGKGMP@Reference?5Count@ 0000000180067778     exdump.obj
 0002:0000e788       ??_C@_0M@JJHCFPNG@Object?5List@ 0000000180067788     exdump.obj
 0002:0000e798       ??_C@_0M@CJLLLNKP@Field?5Flags@ 0000000180067798     exdump.obj
 0002:0000e7a8       ??_C@_0BC@LEMFACGK@Access?5Byte?5Width@ 00000001800677a8     exdump.obj
 0002:0000e7c0       ??_C@_0L@MGCKJHFJ@Bit?5Length@ 00000001800677c0     exdump.obj
 0002:0000e7d0       ??_C@_0BB@NIAEHPNB@Field?5Bit?5Offset@ 00000001800677d0     exdump.obj
 0002:0000e7e8       ??_C@_0BB@MLCMOKDE@Base?5Byte?5Offset@ 00000001800677e8     exdump.obj
 0002:0000e7fc       ??_C@_05GIMBDOHM@Child@    00000001800677fc     exdump.obj
 0002:0000e804       ??_C@_04FOCDNCKH@Peer@     0000000180067804     exdump.obj
 0002:0000e810       ??_C@_0DK@NEGGKMB@ExDumpObject?3?5Display?5not?5imple@ 0000000180067810     exdump.obj
 0002:0000e84c       ??_C@_04KOACHJEN@Type@     000000018006784c     exdump.obj
 0002:0000e858       ??_C@_0BD@KGBOFDAL@?$CF20s?5?3?5?$CF2?42X?5?$FL?$CFs?$FN?6@ 0000000180067858     exdump.obj
 0002:0000e870       ??_C@_0O@BGNPGHIF@?$CF20s?5?3?5?$CF2?42X?6@ 0000000180067870     exdump.obj
 0002:0000e880       ??_C@_0O@OFONNLEE@?$CF20s?5?3?5?$CF4?44X?6@ 0000000180067880     exdump.obj
 0002:0000e890       ??_C@_0O@NIPJKEIH@?$CF20s?5?3?5?$CF8?48X?6@ 0000000180067890     exdump.obj
 0002:0000e8a0       ??_C@_0BD@DAMJPPIE@?$CF20s?5?3?5?$CF8?48X?$CF8?48X?6@ 00000001800678a0     exdump.obj
 0002:0000e8b8       ??_C@_0BE@DFHHOHKO@?6Package?5Contents?3?6@ 00000001800678b8     exdump.obj
 0002:0000e8d0       ??_C@_0L@JPDOKIMI@Class?5Name@ 00000001800678d0     exdump.obj
 0002:0000e8e0       ??_C@_0L@POFPEIIP@?$CF20s?5?3?5?$CFp?5@ 00000001800678e0     exdump.obj
 0002:0000e8f0       ??_C@_0BA@DIMOJNEF@?$CFs?5?$CIType?5?$CF2?42X?$CJ@ 00000001800678f0     exdump.obj
 0002:0000e900       ??_C@_0P@MFMPBCNN@?9?$DO?$CFp?$CI?$CFs?5?$CF2?42X?$CJ@ 0000000180067900     exdump.obj
 0002:0000e910       ??_C@_0DH@MLOGDJDH@?6?$CK?$CK?$CK?$CK?5Error?3?5Object?5list?5appear@ 0000000180067910     exdump.obj
 0002:0000e948       ??_C@_0BG@PEMHPMAP@?9?5No?5attached?5objects@ 0000000180067948     exdump.obj
 0002:0000e960       ??_C@_09LADNNJFA@?$CF20s?5?3?5?$CFp@ 0000000180067960     exdump.obj
 0002:0000e970       ??_C@_0L@OHAGIEGC@?$CI?$CFs?5?$CF2?42X?$CJ@ 0000000180067970     exdump.obj
 0002:0000e980       ??_C@_0DI@BHECHNCP@?6?$CK?$CK?$CK?$CK?5Error?3?5Handler?5list?5appea@ 0000000180067980     exdump.obj
 0002:0000e9b8       ??_C@_0DH@BJBAPBLH@?6?$CK?$CK?$CK?$CK?5Error?3?5Region?5list?5appear@ 00000001800679b8     exdump.obj
 0002:0000e9f0       ??_C@_08MJDPNOGB@?5?$FL?$CF4?44s?$FN@ 00000001800679f0     exdump.obj
 0002:0000ea00       ??_C@_0CF@HJHIAEEK@?$CK?$CK?$CK?$CK?5Invalid?5table?5opcode?5?$FL?$CFX?$FN?5@ 0000000180067a00     exdump.obj
 0002:0000ea28       ??_C@_0BI@MCGIEDPF@Null?5Object?5Descriptor?6@ 0000000180067a28     exdump.obj
 0002:0000ea40       ??_C@_0BE@IPAJEKME@?$CFp?5Namespace?5Node?3?5@ 0000000180067a40     exdump.obj
 0002:0000ea58       ??_C@_0CK@NLOGBBEK@?$CFp?5is?5not?5a?5node?5or?5operand?5obj@ 0000000180067a58     exdump.obj
 0002:0000ea88       ??_C@_0BE@KEPNILLG@?$CF?$CKs?$FL?$CFu?$FN?5?$CFp?5Refs?$DN?$CFu?5@ 0000000180067a88     exdump.obj
 0002:0000eaa0       ??_C@_0M@BNFLKIOG@?$CFp?5Refs?$DN?$CFu?5@ 0000000180067aa0     exdump.obj
 0002:0000eab0       ??_C@_0BB@PLPEOOOD@Reference?3?5?$FL?$CFs?$FN?5@ 0000000180067ab0     exdump.obj
 0002:0000eac4       ??_C@_03OHEJPPDF@?$CFp?6@  0000000180067ac4     exdump.obj
 0002:0000eac8       ??_C@_0BA@GJEDMBNF@Table?5Index?5?$CFX?6@ 0000000180067ac8     exdump.obj
 0002:0000ead8       ??_C@_08DKBEIGOK@?$CFp?5?$FL?$CFs?$FN?6@ 0000000180067ad8     exdump.obj
 0002:0000eae8       ??_C@_0BF@DHACMBKE@?9?5?$FL?$CF4?44s?$FN?5?$CINode?5?$CFp?$CJ?6@ 0000000180067ae8     exdump.obj
 0002:0000eb00       ??_C@_03NBBHOIGN@?$CFX?6@  0000000180067b00     exdump.obj
 0002:0000eb08       ??_C@_0BJ@HOHEPCMP@Buffer?5length?5?$CF?42X?5?$EA?5?$CFp?6@ 0000000180067b08     exdump.obj
 0002:0000eb28       ??_C@_0CN@BAHDFGGP@Buffer?5Contents?3?5?$CIdisplaying?5le@ 0000000180067b28     exdump.obj
 0002:0000eb58       ??_C@_0BE@HMGNBFEI@Integer?5?$CF8?48X?$CF8?48X?6@ 0000000180067b58     exdump.obj
 0002:0000eb70       ??_C@_0CC@NHANBOGG@Package?5?$FLLen?5?$CFX?$FN?5ElementArray?5?$CF@ 0000000180067b70     exdump.obj
 0002:0000eb98       ??_C@_0P@GFMLGOGG@Region?5?$CFs?5?$CI?$CFX?$CJ@ 0000000180067b98     exdump.obj
 0002:0000eba8       ??_C@_0BM@INOINKCB@?5base?5?$CF8?48X?$CF8?48X?5Length?5?$CFX?6@ 0000000180067ba8     exdump.obj
 0002:0000ebc8       ??_C@_0BH@MEIBECLB@String?5length?5?$CFX?5?$EA?5?$CFp?5@ 0000000180067bc8     exdump.obj
 0002:0000ebe0       ??_C@_0L@KAGKECIJ@BankField?6@ 0000000180067be0     exdump.obj
 0002:0000ebf0       ??_C@_0FA@KJAJJENH@RegionField?3?5Bits?$DN?$CFX?5AccWidth?$DN?$CF@ 0000000180067bf0     exdump.obj
 0002:0000ec40       ??_C@_0M@HDMMGCK@IndexField?6@ 0000000180067c40     exdump.obj
 0002:0000ec50       ??_C@_0CL@JEOIJKNJ@BufferField?3?5?$CFX?5bits?5at?5byte?5?$CFX@ 0000000180067c50     exdump.obj
 0002:0000ec80       ??_C@_07DJOILABJ@?$CKNULL?$CK?6@ 0000000180067c80     exdump.obj
 0002:0000ec88       ??_C@_0BA@EEHJAOAL@?$CKnot?5a?5Buffer?$CK?6@ 0000000180067c88     exdump.obj
 0002:0000ec98       ??_C@_06IKOHMEII@Event?6@  0000000180067c98     exdump.obj
 0002:0000eca0       ??_C@_0BE@IDLAFGNG@Method?$CI?$CFX?$CJ?5?$EA?5?$CFp?3?$CFX?6@ 0000000180067ca0     exdump.obj
 0002:0000ecb4       ??_C@_06LMAHDIBG@Mutex?6@  0000000180067cb4     exdump.obj
 0002:0000ecbc       ??_C@_06FCHEBLOD@Power?6@  0000000180067cbc     exdump.obj
 0002:0000ecc8       ??_C@_0L@OHFBBKGM@Processor?6@ 0000000180067cc8     exdump.obj
 0002:0000ecd8       ??_C@_08PDDIHGPJ@Thermal?6@ 0000000180067cd8     exdump.obj
 0002:0000ece8       ??_C@_0BB@JINFLGKI@Unknown?5Type?5?$CFX?6@ 0000000180067ce8     exdump.obj
 0002:0000ed00       ??_C@_07NFANNNEC@UNKNOWN@  0000000180067d00     exdump.obj
 0002:0000ed08       ??_C@_0DG@IFPLFOPN@?$CK?$CK?$CK?$CK?5Start?5operand?5dump?5for?5opc@ 0000000180067d08     exdump.obj
 0002:0000ed40       ??_C@_0CA@FOKHNCKL@?$CK?$CK?$CK?$CK?5End?5operand?5dump?5for?5?$FL?$CFs?$FN?6@ 0000000180067d40     exdump.obj
 0002:0000ed60       ??_C@_0L@JDHCDKPO@?$CF20s?5?3?5?$CFs?6@ 0000000180067d60     exdump.obj
 0002:0000ed70       ??_C@_0L@JBDEIEKH@?$CF20s?5?3?5?$CFp?6@ 0000000180067d70     exdump.obj
 0002:0000ed7c       ??_C@_04FABLJDN@Name@      0000000180067d7c     exdump.obj
 0002:0000ed88       ??_C@_0O@NBPFHCEF@?$CF20s?5?3?5?$CF4?44s?6@ 0000000180067d88     exdump.obj
 0002:0000ed98       ??_C@_04KOIFDEBI@?5?$CFp?5@ 0000000180067d98     exdump.obj
 0002:0000eda0       ??_C@_0CJ@LHJNLOKF@?5Could?5not?5convert?5name?5to?5path@ 0000000180067da0     exdump.obj
 0002:0000edd0       ??_C@_07KJFPOMFC@?$CFs?3?5?$CFs?6@ 0000000180067dd0     exdump.obj
 0002:0000edd8       ??_C@_08OMGEPCIB@Target?5?3@ 0000000180067dd8     exdump.obj
 0002:0000ede8       ??_C@_07FCPMJGKF@?$CF22s?5?$CFp@ 0000000180067de8     exdump.obj
 0002:0000edf0       ??_C@_0BC@GDENCHMC@?5Table?5Index?3?5?$CFX?6@ 0000000180067df0     exdump.obj
 0002:0000ee04       ??_C@_06CFEHBLEG@?5?$FL?$CFs?$FN?6@ 0000000180067e04     exdump.obj
 0002:0000ee10       ??_C@_0N@PKJCONDF@?5Target?3?5?$CFp?6@ 0000000180067e10     exdump.obj
 0002:0000ee20       ??_C@_07KMPHKPII@?$FL?$CF?42d?$FN?5@ 0000000180067e20     exdump.obj
 0002:0000ee28       ??_C@_0BC@PJMDDAAB@?$FLString?$FN?5?5Value?3?5@ 0000000180067e28     exdump.obj
 0002:0000ee40       ??_C@_0BO@FINAOHOP@?$FLObject?5Reference?$FN?5Class?5?$FL?$CFs?$FN@ 0000000180067e40     exdump.obj
 0002:0000ee60       ??_C@_0BC@PBLMINNA@?$FL?$CFs?$FN?5Type?3?5?$CF2?42X?6@ 0000000180067e60     exdump.obj
 0002:0000ee78       ??_C@_0BE@JLGLFCLG@?6Attached?5Object?5?$CFp@ 0000000180067e78     exdump.obj
 0002:0000ee90       ??_C@_0BC@KIPBNGLK@?5?9?5Namespace?5Node@ 0000000180067e90     exdump.obj
 0002:0000eea4       ??_C@_02NDKNKOCB@?3?6@     0000000180067ea4     exdump.obj
 0002:0000eea8       ??_C@_0CI@HCKKEFCL@?$CFp?5is?5not?5an?5ACPI?5operand?5objec@ 0000000180067ea8     exdump.obj
 0002:0000eed0       ??_C@_0CA@JMMLLMDE@Not?5a?5known?5object?5type?3?5?$CF2?42X?6@ 0000000180067ed0     exdump.obj
 0002:0000eef0       ??_C@_0DE@NOPHGKOH@Secondary?5object?5is?5not?5a?5known@ 0000000180067ef0     exdump.obj
 0002:0000ef28       ??_C@_0BO@BMOFKKCH@?6Extra?5attached?5Object?5?$CI?$CFp?$CJ?3?6@ 0000000180067f28     exdump.obj
 0002:0000ef90       ??_C@_0CM@KIJJOHGO@Invalid?5Field?1AccessAs?5protocol@ 0000000180067f90     exfield.obj
 0002:0000efc0       ??_C@_0BH@OOOCKMDO@PCC?5FieldRead?5bits?5?$CFu?6@ 0000000180067fc0     exfield.obj
 0002:0000efd8       ??_C@_0DH@JIEJOHLI@FieldRead?5?$FLTO?$FN?3?5?5?5Obj?5?$CFp?0?5Type?5@ 0000000180067fd8     exfield.obj
 0002:0000f010       ??_C@_0DE@FFGPGDBN@FieldRead?5?$FLFROM?$FN?3?5BitLen?5?$CFX?0?5Bi@ 0000000180068010     exfield.obj
 0002:0000f048       ??_C@_0DM@EKFHCNPH@PCC?5COMD?5field?5has?5been?5written@ 0000000180068048     exfield.obj
 0002:0000f088       ??_C@_0DH@NHFIJIIK@FieldWrite?5?$FLFROM?$FN?3?5Obj?5?$CFp?5?$CI?$CFs?3?$CF@ 0000000180068088     exfield.obj
 0002:0000f0c0       ??_C@_0EF@GDCLBELG@FieldWrite?5?$FLTO?$FN?3?5?5?5Obj?5?$CFp?5?$CI?$CFs?3?$CF@ 00000001800680c0     exfield.obj
 0002:0000f188       ??_C@_0CE@GNPICANO@Needed?5Region?0?5found?5type?50x?$CFX?5@ 0000000180068188     exfldio.obj
 0002:0000f1b0       ??_C@_0EP@CEMLICCB@Field?5?$FL?$CF4?44s?$FN?5access?5width?5?$CI?$CFu?5@ 00000001800681b0     exfldio.obj
 0002:0000f200       ??_C@_0FF@NBAKCIMA@Field?5?$FL?$CF4?44s?$FN?5Base?$CLOffset?$CLWidth@ 0000000180068200     exfldio.obj
 0002:0000f258       ??_C@_06MJDKNKFE@?$FLREAD?$FN@ 0000000180068258     exfldio.obj
 0002:0000f260       ??_C@_07FNGNHPDM@?$FLWRITE?$FN@ 0000000180068260     exfldio.obj
 0002:0000f270       ??_C@_0EB@CHGNCMOM@?5Region?5?$FL?$CFs?3?$CFX?$FN?0?5Width?5?$CFX?0?5Byte@ 0000000180068270     exfldio.obj
 0002:0000f2b8       ??_C@_0CC@HNBEDFDO@Region?5?$CFs?5?$CIID?$DN?$CFu?$CJ?5not?5implement@ 00000001800682b8     exfldio.obj
 0002:0000f2e0       ??_C@_0CB@OLGFNNIB@Region?5?$CFs?5?$CIID?$DN?$CFu?$CJ?5has?5no?5handle@ 00000001800682e0     exfldio.obj
 0002:0000f308       ??_C@_0DE@KMKKEMOJ@Index?5value?50x?$CF8?48X?$CF8?48X?5overfl@ 0000000180068308     exfldio.obj
 0002:0000f340       ??_C@_0CG@KBODNGDB@Write?5to?5Index?5Register?3?5Value?5@ 0000000180068340     exfldio.obj
 0002:0000f368       ??_C@_0BJ@NBMMNEPH@Read?5from?5Data?5Register?6@ 0000000180068368     exfldio.obj
 0002:0000f388       ??_C@_0CK@BLCCKDML@Write?5to?5Data?5Register?3?5Value?5?$CF@ 0000000180068388     exfldio.obj
 0002:0000f3b8       ??_C@_0CC@PIGBDEK@Wrong?5object?5type?5in?5field?5I?1O?5@ 00000001800683b8     exfldio.obj
 0002:0000f3e0       ??_C@_0CB@ILDNLJPN@Value?5Read?5?$CF8?48X?$CF8?48X?0?5Width?5?$CFu@ 00000001800683e0     exfldio.obj
 0002:0000f408       ??_C@_0CE@LENJGEOC@Value?5Written?5?$CF8?48X?$CF8?48X?0?5Width@ 0000000180068408     exfldio.obj
 0002:0000f430       ??_C@_0BP@NGGHEDKN@Unknown?5UpdateRule?5value?3?50x?$CFX@ 0000000180068430     exfldio.obj
 0002:0000f450       ??_C@_0FF@HJPFJGLG@Mask?5?$CF8?48X?$CF8?48X?0?5DatumOffset?5?$CFX@ 0000000180068450     exfldio.obj
 0002:0000f4a8       ??_C@_0DC@DNPKCMMC@Field?5size?5?$CFu?5?$CIbits?$CJ?5is?5too?5lar@ 00000001800684a8     exfldio.obj
 0002:0000f528       ??_C@_0CA@IOGGPAML@Invalid?5Reference?5Class?50x?$CF2?42X@ 0000000180068528     exmisc.obj
 0002:0000f548       ??_C@_0BN@GDEKAJPO@Invalid?5descriptor?5type?50x?$CFX@ 0000000180068548     exmisc.obj
 0002:0000f568       ??_C@_0CN@EACPACNE@Object?5?$CFp?5Type?5?$FL?$CFs?$FN?0?5returning?5@ 0000000180068568     exmisc.obj
 0002:0000f598       ??_C@_0CD@GEJPDACF@Invalid?5numeric?5logical?5opcode?3@ 0000000180068598     exmisc.obj
 0002:0000f5c0       ??_C@_0CN@LCFFFCBN@Invalid?5object?5type?5for?5logical@ 00000001800685c0     exmisc.obj
 0002:0000f5f0       ??_C@_0BO@PNFDMHIN@Invalid?5comparison?5opcode?3?5?$CFX@ 00000001800685f0     exmisc.obj
 0002:0000f680       ??_C@_0CP@OAPHHLLM@Cannot?5acquire?5Mutex?5?$FL?$CF4?44s?$FN?0?5n@ 0000000180068680     exmutex.obj
 0002:0000f6b0       ??_C@_0EC@PPHMCELA@Cannot?5acquire?5Mutex?5?$FL?$CF4?44s?$FN?0?5c@ 00000001800686b0     exmutex.obj
 0002:0000f700       ??_C@_0EF@IGFGODCN@Acquiring?3?5Mutex?5SyncLevel?5?$CFu?0?5@ 0000000180068700     exmutex.obj
 0002:0000f748       ??_C@_0DN@CLMMGOAL@Acquired?3?5Mutex?5SyncLevel?5?$CFu?0?5T@ 0000000180068748     exmutex.obj
 0002:0000f788       ??_C@_0CL@GECKFKKP@Cannot?5release?5Mutex?5?$FL?$CF4?44s?$FN?0?5n@ 0000000180068788     exmutex.obj
 0002:0000f7b8       ??_C@_0CP@ELACAEHE@Cannot?5release?5Mutex?5?$FL?$CF4?44s?$FN?0?5n@ 00000001800687b8     exmutex.obj
 0002:0000f7e8       ??_C@_0DN@LHMLBDOI@Thread?5?$CFu?5cannot?5release?5Mutex?5@ 00000001800687e8     exmutex.obj
 0002:0000f830       ??_C@_0EG@KPNKKPIF@Cannot?5release?5Mutex?5?$FL?$CF4?44s?$FN?0?5S@ 0000000180068830     exmutex.obj
 0002:0000f880       ??_C@_0FJ@HHJJJFD@Releasing?3?5Object?5SyncLevel?5?$CFu?0@ 0000000180068880     exmutex.obj
 0002:0000f8e0       ??_C@_0FC@CNFGBHFL@Released?3?5Object?5SyncLevel?5?$CFu?0?5@ 00000001800688e0     exmutex.obj
 0002:0000f938       ??_C@_0DE@LDNGCIBO@Mutex?5?$FL?$CF4?44s?$FN?5force?9release?0?5Sy@ 0000000180068938     exmutex.obj
 0002:0000f9b0       ??_C@_0BL@LLMLPCCJ@Could?5not?5allocate?5size?5?$CFu@ 00000001800689b0     exnames.obj
 0002:0000f9d0       ??_C@_0BK@LACBIPOD@Invalid?5leading?5digit?3?5?$CFc@ 00000001800689d0     exnames.obj
 0002:0000f9f0       ??_C@_0BG@EAONKFJL@Appending?5NameSeg?5?$CFs?6@ 00000001800689f0     exnames.obj
 0002:0000fa08       ??_C@_0BF@FMEEMDPF@No?5Name?5string?5?9?5?$CFs?6@ 0000000180068a08     exnames.obj
 0002:0000fa20       ??_C@_0DE@MOCAEDCK@Leading?5character?5is?5not?5alpha?3@ 0000000180068a20     exnames.obj
 0002:0000fa58       ??_C@_0CE@HLAKAPGC@Bad?5character?50x?$CF02x?5in?5name?0?5a@ 0000000180068a58     exnames.obj
 0002:0000fa80       ??_C@_0BF@ONDHHPIC@RootPrefix?$CI?2?$CJ?5at?5?$CFp?6@ 0000000180068a80     exnames.obj
 0002:0000fa98       ??_C@_0BI@MBCDEEOL@ParentPrefix?5?$CI?$FO?$CJ?5at?5?$CFp?6@ 0000000180068a98     exnames.obj
 0002:0000fab0       ??_C@_0BG@JMCNBJGO@DualNamePrefix?5at?5?$CFp?6@ 0000000180068ab0     exnames.obj
 0002:0000fac8       ??_C@_0BH@OKLCEPFN@MultiNamePrefix?5at?5?$CFp?6@ 0000000180068ac8     exnames.obj
 0002:0000fae0       ??_C@_0CB@PNHILEJD@NameSeg?5is?5?$CC?2?$CC?5followed?5by?5NULL@ 0000000180068ae0     exnames.obj
 0002:0000fb08       ??_C@_0BF@HJDOOHBN@Malformed?5Name?5at?5?$CFp@ 0000000180068b08     exnames.obj
 0002:0000fb90       ??_C@_0BI@HOCGMLEM@Unknown?5AML?5opcode?50x?$CFX@ 0000000180068b90     exoparg1.obj
 0002:0000fba8       ??_C@_0CI@DJKLPHFP@BCD?5digit?5too?5large?5?$CInot?5decima@ 0000000180068ba8     exoparg1.obj
 0002:0000fbd0       ??_C@_0DC@PMNAKEFD@Integer?5too?5large?5to?5convert?5to@ 0000000180068bd0     exoparg1.obj
 0002:0000fc08       ??_C@_0CD@ICCLBDBF@?$CFs?5is?5obsolete?5and?5not?5implemen@ 0000000180068c08     exoparg1.obj
 0002:0000fc30       ??_C@_0DO@LMOMPBB@Operand?5must?5be?5Buffer?1Integer?1@ 0000000180068c30     exoparg1.obj
 0002:0000fc70       ??_C@_0DF@HEHDPDJK@Unknown?5Index?5TargetType?50x?$CFX?5i@ 0000000180068c70     exoparg1.obj
 0002:0000fca8       ??_C@_0CJ@LINDCPDP@Unknown?5class?5in?5reference?$CI?$CFp?$CJ?5@ 0000000180068ca8     exoparg1.obj
 0002:0000fd48       ??_C@_0CD@MGABIPED@Unexpected?5notify?5object?5type?5?$FL@ 0000000180068d48     exoparg2.obj
 0002:0000fd70       ??_C@_0BI@MOIGKLEJ@Invalid?5object?5type?3?5?$CFX@ 0000000180068d70     exoparg2.obj
 0002:0000fd88       ??_C@_0DI@BBHDABNF@Index?5?$CI0x?$CFX?$CF8?48X?$CJ?5is?5beyond?5end@ 0000000180068d88     exoparg2.obj
 0002:0000fe00       ??_C@_0EB@PLJDCNJA@FatalOp?3?5Type?5?$CFX?5Code?5?$CFX?5Arg?5?$CFX@ 0000000180068e00     exoparg3.obj
 0002:0000fe48       ??_C@_0BF@FKLKHLNM@Executed?5External?5Op@ 0000000180068e48     exoparg3.obj
 0002:0000fe88       ??_C@_0BM@ECAAIKCI@Match?5operator?5out?5of?5range@ 0000000180068e88     exoparg6.obj
 0002:0000fea8       ??_C@_0CP@GABBKNMA@Index?5?$CI0x?$CF8?48X?$CF8?48X?$CJ?5beyond?5pac@ 0000000180068ea8     exoparg6.obj
 0002:0000ff28       ??_C@_0BP@EDMPENAG@Unknown?5field?5access?5type?50x?$CFX@ 0000000180068f28     exprep.obj
 0002:0000ff48       ??_C@_0BA@HOFLCFOM@Null?5RegionNode@ 0000000180068f48     exprep.obj
 0002:0000ff58       ??_C@_0DE@OGOIPPIN@RegionField?3?5BitOff?5?$CFX?0?5Off?5?$CFX?0@ 0000000180068f58     exprep.obj
 0002:0000ff90       ??_C@_0DP@DAJJCBKO@Bank?5Field?3?5BitOff?5?$CFX?0?5Off?5?$CFX?0?5@ 0000000180068f90     exprep.obj
 0002:0000ffd0       ??_C@_0CE@GNBJCCKA@Null?5Index?5Object?5during?5field?5@ 0000000180068fd0     exprep.obj
 0002:00010000       ??_C@_0EF@LGGCKIC@IndexField?3?5BitOff?5?$CFX?0?5Off?5?$CFX?0?5@ 0000000180069000     exprep.obj
 0002:00010048       ??_C@_0CF@JGBMKIOC@Set?5NamedObj?5?$CFp?5?$FL?$CF4?44s?$FN?0?5ObjDes@ 0000000180069048     exprep.obj
 0002:00010118       ??_C@_0BO@IAIGLIJH@Invalid?5SystemMemory?5width?5?$CFu@ 0000000180069118     exregion.obj
 0002:00010138       ??_C@_0DH@FGNJFKJO@Unable?5to?5save?5memory?5mapping?5a@ 0000000180069138     exregion.obj
 0002:00010170       ??_C@_0CO@KABOLPPG@Could?5not?5map?5memory?5at?50x?$CF8?48X@ 0000000180069170     exregion.obj
 0002:000101a0       ??_C@_0DE@FKLAIMPH@System?9Memory?5?$CIwidth?5?$CFu?$CJ?5R?1W?5?$CFu@ 00000001800691a0     exregion.obj
 0002:000101d8       ??_C@_0DA@HFJCEEAF@System?9IO?5?$CIwidth?5?$CFu?$CJ?5R?1W?5?$CFu?5Add@ 00000001800691d8     exregion.obj
 0002:00010210       ??_C@_0EH@CIAMICEE@Pci?9Config?5?$CFu?5?$CI?$CFu?$CJ?5Seg?$CI?$CF04x?$CJ?5Bu@ 0000000180069210     exregion.obj
 0002:00010280       ??_C@_0BN@HFIBJMAC@Entry?$DN?$CFp?5SourceDesc?$DN?$CFp?5?$FL?$CFs?$FN?6@ 0000000180069280     exresnte.obj
 0002:000102a0       ??_C@_0CG@HLJJEACG@No?5object?5attached?5to?5node?5?$FL?$CF4?4@ 00000001800692a0     exresnte.obj
 0002:000102c8       ??_C@_0BO@LHPLEOCC@Object?5not?5a?5Package?0?5type?5?$CFs@ 00000001800692c8     exresnte.obj
 0002:000102e8       ??_C@_0BN@MCGABPEC@Object?5not?5a?5Buffer?0?5type?5?$CFs@ 00000001800692e8     exresnte.obj
 0002:00010308       ??_C@_0BN@MFIJMBGA@Object?5not?5a?5String?0?5type?5?$CFs@ 0000000180069308     exresnte.obj
 0002:00010328       ??_C@_0BO@JABNGBGH@Object?5not?5a?5Integer?0?5type?5?$CFs@ 0000000180069328     exresnte.obj
 0002:00010348       ??_C@_0CJ@FLNNKMNE@FieldRead?5Node?$DN?$CFp?5SourceDesc?$DN?$CFp@ 0000000180069348     exresnte.obj
 0002:00010378       ??_C@_0CG@LCBNLDCP@Untyped?5entry?5?$CFp?0?5no?5attached?5o@ 0000000180069378     exresnte.obj
 0002:000103a0       ??_C@_0CA@LNGINJD@Unsupported?5Reference?5type?50x?$CFX@ 00000001800693a0     exresnte.obj
 0002:000103c0       ??_C@_0CD@FLEGKFPE@Node?5?$CFp?5?9?5Unknown?5object?5type?50@ 00000001800693c0     exresnte.obj
 0002:00010440       ??_C@_0BI@BEBFMHHH@Internal?5?9?5null?5pointer@ 0000000180069440     exresolv.obj
 0002:00010458       ??_C@_0BE@NNDDADPE@Resolved?5object?5?$CFp?6@ 0000000180069458     exresolv.obj
 0002:00010470       ??_C@_0BP@GPMNONIG@?$FLArg?1Local?5?$CFX?$FN?5ValueObj?5is?5?$CFp?6@ 0000000180069470     exresolv.obj
 0002:00010490       ??_C@_0DP@LOOICMJI@Attempt?5to?5dereference?5an?5Index@ 0000000180069490     exresolv.obj
 0002:000104d0       ??_C@_0DF@HPDMDCGO@Unknown?5TargetType?50x?$CFX?5in?5Inde@ 00000001800694d0     exresolv.obj
 0002:00010508       ??_C@_0CC@OHEKGHDI@Unknown?5Reference?5type?50x?$CFX?5in?5@ 0000000180069508     exresolv.obj
 0002:00010530       ??_C@_0CB@IBHDECOD@FieldRead?5SourceDesc?$DN?$CFp?5Type?$DN?$CFX@ 0000000180069530     exresolv.obj
 0002:00010558       ??_C@_0CM@DMEFAJKF@?$FL?$CF4?44s?$FN?5Node?5is?5unresolved?5or?5u@ 0000000180069558     exresolv.obj
 0002:00010588       ??_C@_0BN@LDPBKGF@Not?5a?5namespace?5node?5?$CFp?5?$FL?$CFs?$FN@ 0000000180069588     exresolv.obj
 0002:000105a8       ??_C@_0CA@LKHAHAIE@Unknown?5Reference?5Class?50x?$CF2?42X@ 00000001800695a8     exresolv.obj
 0002:000105e8       ??_C@_0CA@MDDDMPOH@Needed?5type?5?$FL?$CFs?$FN?0?5found?5?$FL?$CFs?$FN?5?$CFp@ 00000001800695e8     exresop.obj
 0002:00010608       ??_C@_0CL@LFPPAJMD@Opcode?5?$CFX?5?$FL?$CFs?$FN?5RequiredOperandT@ 0000000180069608     exresop.obj
 0002:00010638       ??_C@_0BH@FKAJFOPM@Null?5stack?5entry?5at?5?$CFp@ 0000000180069638     exresop.obj
 0002:00010650       ??_C@_0BP@EMHDKLGP@Bad?5operand?5object?5type?5?$FL0x?$CFX?$FN@ 0000000180069650     exresop.obj
 0002:00010670       ??_C@_0CK@GAMKPNPG@Operand?5is?5a?5Reference?0?5Class?5?$FL@ 0000000180069670     exresop.obj
 0002:000106a0       ??_C@_0CG@KIMKJBLK@Unknown?5Reference?5Class?50x?$CF2?42X@ 00000001800696a0     exresop.obj
 0002:000106c8       ??_C@_0BL@PEEJDMOJ@Invalid?5descriptor?5?$CFp?5?$FL?$CFs?$FN@ 00000001800696c8     exresop.obj
 0002:000106e8       ??_C@_0CO@JIFLNCGH@Needed?5?$FLInteger?1String?1Buffer?$FN?0@ 00000001800696e8     exresop.obj
 0002:00010718       ??_C@_0DI@PLIJGGPB@Needed?5?$FLBuffer?1String?1Package?1R@ 0000000180069718     exresop.obj
 0002:00010750       ??_C@_0CO@JDKHCDLB@Needed?5?$FLBuffer?1String?1Package?$FN?0@ 0000000180069750     exresop.obj
 0002:00010780       ??_C@_0CG@OKJDLHCG@Needed?5?$FLRegion?1Buffer?$FN?0?5found?5?$FL@ 0000000180069780     exresop.obj
 0002:000107a8       ??_C@_0DN@NFJPFJCJ@Needed?5Integer?1Buffer?1String?1Pa@ 00000001800697a8     exresop.obj
 0002:000107e8       ??_C@_0DF@BOGKJOPA@Internal?5?9?5Unknown?5ARGI?5?$CIrequir@ 00000001800697e8     exresop.obj
 0002:00010878       ??_C@_0CI@GGMMOHLB@GPIO?5FieldRead?5?$FLFROM?$FN?3?5?5Pin?5?$CFu?5@ 0000000180069878     exserial.obj
 0002:000108a0       ??_C@_0ED@DGLJCNEJ@GPIO?5FieldWrite?5?$FLFROM?$FN?3?5?$CI?$CFs?3?$CFX?$CJ@ 00000001800698a0     exserial.obj
 0002:000108f0       ??_C@_0EB@GENBFJEH@Invalid?5direct?5read?5using?5bidir@ 00000001800698f0     exserial.obj
 0002:00010938       ??_C@_0CH@KLJEMNJB@Invalid?5protocol?5ID?5for?5GSBus?3?5@ 0000000180069938     exserial.obj
 0002:00010960       ??_C@_0EB@PCAHHNCG@SMBus?1IPMI?1GenericSerialBus?5wri@ 0000000180069960     exserial.obj
 0002:00010a00       ??_C@_0P@HCPAIPMN@Null?5parameter@ 0000000180069a00     exstore.obj
 0002:00010a10       ??_C@_0DH@EEIDPMLH@Target?5is?5not?5a?5Reference?5or?5Co@ 0000000180069a10     exstore.obj
 0002:00010a48       ??_C@_0DD@DCEHAHEL@?$CK?$CK?$CK?$CK?5Write?5to?5Debug?5Object?3?5Obj@ 0000000180069a48     exstore.obj
 0002:00010a80       ??_C@_0DI@BCADGBJI@Source?5must?5be?5type?5?$FLInteger?1Bu@ 0000000180069a80     exstore.obj
 0002:00010ab8       ??_C@_0CM@PHNCPMHK@Target?5is?5not?5of?5type?5?$FLPackage?1@ 0000000180069ab8     exstore.obj
 0002:00010ae8       ??_C@_0CB@OIGIHNCB@Storing?5?$CFp?5?$FL?$CFs?$FN?5to?5node?5?$CFp?5?$FL?$CFs?$FN@ 0000000180069ae8     exstore.obj
 0002:00010b10       ??_C@_0DP@LJENNKAD@Cannot?5assign?5type?5?$FL?$CFs?$FN?5to?5?$FLPac@ 0000000180069b10     exstore.obj
 0002:00010b50       ??_C@_0EF@FBGBHAGB@Target?5must?5be?5?$FLBuffer?1Integer?1@ 0000000180069b50     exstore.obj
 0002:00010b98       ??_C@_0CO@OCOAMFDL@Store?5type?5?$FL?$CFs?$FN?5into?5?$FL?$CFs?$FN?5via?5C@ 0000000180069b98     exstore.obj
 0002:00010bd0       ??_C@_0EM@OOMAHLHG@Storing?5?$FL?$CFs?$FN?5?$CI?$CFp?$CJ?5directly?5into@ 0000000180069bd0     exstore.obj
 0002:00010c58       ??_C@_0DL@PBABNIAN@Cannot?5assign?5type?5?$FL?$CFs?$FN?5to?5?$FL?$CFs?$FN@ 0000000180069c58     exstoren.obj
 0002:00010c98       ??_C@_0CG@KLAPOJCC@Store?5into?5an?5unresolved?5Alias?5@ 0000000180069c98     exstoren.obj
 0002:00010cc0       ??_C@_0CF@OCEECEFH@Store?5into?5type?5?$FL?$CFs?$FN?5not?5implem@ 0000000180069cc0     exstoren.obj
 0002:00010d28       ??_C@_0CI@COOGPJA@Truncating?5source?5buffer?5from?5?$CF@ 0000000180069d28     exstorob.obj
 0002:00010dc0       ??_C@_0CF@FFMONHHM@?$CK?$CK?$CK?5Thread?5awake?5after?5blocking@ 0000000180069dc0     exsystem.obj
 0002:00010de8       ??_C@_0CB@FLOKDLCI@Time?5parameter?5is?5too?5large?5?$CI?$CFu@ 0000000180069de8     exsystem.obj
 0002:00010e10       ??_C@_0EM@DPFBOEK@Time?5parameter?5?$CFu?5us?5?$DO?5100?5us?5v@ 0000000180069e10     exsystem.obj
 0002:00010e78       ??_C@_06FLCJJPBG@Region@   0000000180069e78     extrace.obj
 0002:00010e80       ??_C@_05EHPGHEDK@Begin@    0000000180069e80     extrace.obj
 0002:00010e88       ??_C@_03DBKJMAGF@End@      0000000180069e88     extrace.obj
 0002:00010e90       ??_C@_0BM@LCJDAKII@?$CFs?5?$CFs?5?$FL0x?$CFp?3?$CFs?$FN?5execution?4?6@ 0000000180069e90     extrace.obj
 0002:00010eb0       ??_C@_0BJ@LPDJNPGD@?$CFs?5?$CFs?5?$FL0x?$CFp?$FN?5execution?4?6@ 0000000180069eb0     extrace.obj
 0002:00010f48       ??_C@_0CI@EGOMAENM@Could?5not?5acquire?5AML?5Interpret@ 0000000180069f48     exutils.obj
 0002:00010f70       ??_C@_0CG@JOCNHKMA@Could?5not?5acquire?5AML?5Namespace@ 0000000180069f70     exutils.obj
 0002:00010f98       ??_C@_0CG@BIGOEGHJ@Could?5not?5release?5AML?5Namespace@ 0000000180069f98     exutils.obj
 0002:00010fc0       ??_C@_0CI@FMIEOLOJ@Could?5not?5release?5AML?5Interpret@ 0000000180069fc0     exutils.obj
 0002:00010fe8       ??_C@_0BO@HDPLEJCF@Could?5not?5acquire?5Global?5Lock@ 0000000180069fe8     exutils.obj
 0002:00011008       ??_C@_0BO@KBPJOKPA@Could?5not?5release?5Global?5Lock@ 000000018006a008     exutils.obj
 0002:00011030       ??_C@_0EB@FAKDKJEL@Expected?5EISAID?5is?5larger?5than?5@ 000000018006a030     exutils.obj
 0002:000110a0       ??_C@_0CL@KEBNDHGK@No?5SMI_CMD?5in?5FADT?0?5mode?5transi@ 000000018006a0a0     hwacpi.obj
 0002:000110d0       ??_C@_0EM@MBPHMEJI@No?5ACPI?5mode?5transition?5support@ 000000018006a0d0     hwacpi.obj
 0002:00011120       ??_C@_0CA@KAHNDPGL@Attempting?5to?5enable?5ACPI?5mode?6@ 000000018006a120     hwacpi.obj
 0002:00011140       ??_C@_0CN@OFDAADAC@Attempting?5to?5enable?5Legacy?5?$CIno@ 000000018006a140     hwacpi.obj
 0002:00011170       ??_C@_0CB@BFEEFPDH@Could?5not?5write?5ACPI?5mode?5chang@ 000000018006a170     hwacpi.obj
 0002:00011198       ??_C@_0BO@JEHIHNGG@Mode?5?$CFX?5successfully?5enabled?6@ 000000018006a198     hwacpi.obj
 0002:000111b8       ??_C@_0BO@JNDHILBK@Hardware?5did?5not?5change?5modes@ 000000018006a1b8     hwacpi.obj
 0002:00011238       ??_C@_0BK@NEIHGCP@While?5executing?5method?5?$CFs@ 000000018006a238     hwesleep.obj
 0002:00011258       ??_C@_0BM@HOFLAABD@Entering?5sleep?5state?5?$FLS?$CFu?$FN?6@ 000000018006a258     hwesleep.obj
 0002:00011278       ??_C@_09PGPMCPMO@?2_SI?4_SST@ 000000018006a278     hwesleep.obj
 0002:00011284       ??_C@_05LLDNIIOI@?2_WAK@   000000018006a284     hwesleep.obj
 0002:000112f8       ??_C@_0BH@ILKCGDPF@Invalid?5GPE?5Action?0?5?$CFu@ 000000018006a2f8     hwgpe.obj
 0002:00011340       ??_C@_0DI@KOGGHJKE@Input?5PciId?3?5?5Seg?5?$CF4?44X?5Bus?5?$CF4?4@ 000000018006a340     hwpci.obj
 0002:00011380       ??_C@_0FL@LKHDAJEB@Output?5PciId?3?5Seg?5?$CF4?44X?5Bus?5?$CF4?4@ 000000018006a380     hwpci.obj
 0002:00011448       ??_C@_0CA@JFMNLIPE@Unsupported?5address?5space?3?50x?$CFX@ 000000018006a448     hwregs.obj
 0002:00011468       ??_C@_0CI@PDBGBGMN@Unsupported?5register?5access?5wid@ 000000018006a468     hwregs.obj
 0002:00011490       ??_C@_0EB@IGPBJGCH@Requested?5bit?5width?50x?$CFX?5is?5sma@ 000000018006a490     hwregs.obj
 0002:000114d8       ??_C@_0DC@DIMGIEPN@Read?3?5?5?$CF8?48X?$CF8?48X?5width?5?$CF2d?5fro@ 000000018006a4d8     hwregs.obj
 0002:00011510       ??_C@_0DC@HABIMFMP@Wrote?3?5?$CF8?48X?$CF8?48X?5width?5?$CF2d?5?5?5t@ 000000018006a510     hwregs.obj
 0002:00011548       ??_C@_0CD@FACBACIE@About?5to?5write?5?$CF04X?5to?5?$CF8?48X?$CF8?4@ 000000018006a548     hwregs.obj
 0002:00011570       ??_C@_0BN@GNEKHCC@Invalid?5BitRegister?5ID?3?50x?$CFX@ 000000018006a570     hwregs.obj
 0002:00011590       ??_C@_0BK@MGOAHED@Unknown?5Register?5ID?3?50x?$CFX@ 000000018006a590     hwregs.obj
 0002:00011774       ??_C@_03FLONIPFO@DMA@      000000018006a774     hwvalid.obj
 0002:00011778       ??_C@_04EKEINFPE@PIC0@     000000018006a778     hwvalid.obj
 0002:00011780       ??_C@_04EKDKFBEA@PIT1@     000000018006a780     hwvalid.obj
 0002:00011788       ??_C@_04GBBHACID@PIT2@     000000018006a788     hwvalid.obj
 0002:00011790       ??_C@_03PFOHNGA@RTC@       000000018006a790     hwvalid.obj
 0002:00011794       ??_C@_04KFKAGOPB@CMOS@     000000018006a794     hwvalid.obj
 0002:0001179c       ??_C@_04EKNFJGMO@DMA1@     000000018006a79c     hwvalid.obj
 0002:000117a4       ??_C@_05CAFKDKCI@DMA1L@    000000018006a7a4     hwvalid.obj
 0002:000117ac       ??_C@_04GBPIMFAN@DMA2@     000000018006a7ac     hwvalid.obj
 0002:000117b4       ??_C@_05CCBMIEHB@DMA2L@    000000018006a7b4     hwvalid.obj
 0002:000117bc       ??_C@_04JFAAPLFK@ARBC@     000000018006a7bc     hwvalid.obj
 0002:000117c4       ??_C@_05MAJHNKMG@SETUP@    000000018006a7c4     hwvalid.obj
 0002:000117cc       ??_C@_03PPOGOLCL@POS@      000000018006a7cc     hwvalid.obj
 0002:000117d0       ??_C@_04FDFDOELF@PIC1@     000000018006a7d0     hwvalid.obj
 0002:000117d8       ??_C@_04OJGIJNGH@IDMA@     000000018006a7d8     hwvalid.obj
 0002:000117e0       ??_C@_04ICFNDEBB@ELCR@     000000018006a7e0     hwvalid.obj
 0002:000117e8       ??_C@_03EGNBOIJE@PCI@      000000018006a7e8     hwvalid.obj
 0002:000117f0       ??_C@_0BO@GGKEJNDP@Bad?5BitWidth?5parameter?3?5?$CF8?48X@ 000000018006a7f0     hwvalid.obj
 0002:00011810       ??_C@_0DE@JAMKBIGJ@Address?5?$CF8?48X?$CF8?48X?5LastAddress?5@ 000000018006a810     hwvalid.obj
 0002:00011848       ??_C@_0DL@JBIACOOG@Illegal?5I?1O?5port?5address?1length@ 000000018006a848     hwvalid.obj
 0002:00011888       ??_C@_0DO@PJGHJEDD@Denied?5AML?5access?5to?5port?50x?$CF8?4@ 000000018006a888     hwvalid.obj
 0002:00011928       ??_C@_0DK@JFIIJIKP@BitReg?5?$CFX?0?5ParentReg?5?$CFX?0?5Actual@ 000000018006a928     hwxface.obj
 0002:00011968       ??_C@_0DE@MMEKMLPF@BitReg?5?$CFX?0?5ParentReg?5?$CFX?0?5Value?5@ 000000018006a968     hwxface.obj
 0002:000119a0       ??_C@_0CJ@CAODHO@No?5Sleep?5State?5object?5returned?5@ 000000018006a9a0     hwxface.obj
 0002:000119d0       ??_C@_0CL@HIILFGIH@Sleep?5State?5return?5object?5is?5no@ 000000018006a9d0     hwxface.obj
 0002:00011a00       ??_C@_0CC@IFNJCMGK@While?5evaluating?5Sleep?5State?5?$FL?$CF@ 000000018006aa00     hwxface.obj
 0002:00011af4       ??_C@_05LOBMEJJD@?2_PTS@   000000018006aaf4     hwxfsleep.obj
 0002:00011b00       ??_C@_0CJ@JOECEDAC@Sleep?5values?5out?5of?5range?3?5A?$DN0x@ 000000018006ab00     hwxfsleep.obj
 0002:00011b68       ??_C@_0CM@BBJILCLH@Entering?5predefined?5entries?5int@ 000000018006ab68     nsaccess.obj
 0002:00011b94       ??_C@_04PKIHMDG@_OSI@      000000018006ab94     nsaccess.obj
 0002:00011ba0       ??_C@_0CB@NAAJCPJK@Could?5not?5override?5predefined?5?$CF@ 000000018006aba0     nsaccess.obj
 0002:00011bc4       ??_C@_04MBPOAFED@_GL_@     000000018006abc4     nsaccess.obj
 0002:00011bd0       ??_C@_0CE@FBNPJEMI@Unsupported?5initial?5type?5value?5@ 000000018006abd0     nsaccess.obj
 0002:00011bf4       ??_C@_05GIEDDLLO@?2_GPE@   000000018006abf4     nsaccess.obj
 0002:00011c00       ??_C@_0CJ@PGMEAEHN@Null?5scope?5prefix?0?5using?5root?5n@ 000000018006ac00     nsaccess.obj
 0002:00011c30       ??_C@_0CA@DECDANLJ@?$CFp?5is?5not?5a?5namespace?5node?5?$FL?$CFs?$FN@ 000000018006ac30     nsaccess.obj
 0002:00011c50       ??_C@_0CJ@EADHEMNI@Null?5Pathname?5?$CIZero?5segments?$CJ?0?5@ 000000018006ac50     nsaccess.obj
 0002:00011c80       ??_C@_0CB@KIGOGIKH@Path?5is?5absolute?5from?5root?5?$FL?$CFp?$FN@ 000000018006ac80     nsaccess.obj
 0002:00011ca8       ??_C@_0DB@DAHDDMF@Searching?5relative?5to?5prefix?5sc@ 000000018006aca8     nsaccess.obj
 0002:00011ce0       ??_C@_0CK@PAEEECGN@?$CFs?3?5Path?5has?5too?5many?5parent?5pr@ 000000018006ace0     nsaccess.obj
 0002:00011d10       ??_C@_0CP@FPFIIHMH@Search?5scope?5is?5?$FL?$CF4?44s?$FN?0?5path?5h@ 000000018006ad10     nsaccess.obj
 0002:00011d40       ??_C@_0DF@IIPMNHBH@Prefix?9only?5Pathname?5?$CIZero?5name@ 000000018006ad40     nsaccess.obj
 0002:00011d78       ??_C@_0CG@INBCKHAA@Dual?5Pathname?5?$CI2?5segments?0?5Flag@ 000000018006ad78     nsaccess.obj
 0002:00011da0       ??_C@_0CI@FPLEEJBL@Multi?5Pathname?5?$CI?$CFu?5Segments?0?5Fl@ 000000018006ada0     nsaccess.obj
 0002:00011dc8       ??_C@_0CH@GDIKCNCL@Simple?5Pathname?5?$CI1?5segment?0?5Fla@ 000000018006adc8     nsaccess.obj
 0002:00011df0       ??_C@_0DF@OELEHPIO@Firmware?5Error?5?$CIACPI?$CJ?3?5Object?5d@ 000000018006adf0     nsaccess.obj
 0002:00011e28       ??_C@_0CM@NLAMIKGI@Name?5?$FL?$CF4?44s?$FN?5not?5found?5in?5scope@ 000000018006ae28     nsaccess.obj
 0002:00011e58       ??_C@_0DK@PHLHHLGA@NsLookup?3?5Type?5mismatch?5on?5?$CF4?44@ 000000018006ae58     nsaccess.obj
 0002:00011f38       ??_C@_0BH@MJFLICDH@Node?5?$CFp?0?5Remaining?5?$CFX?6@ 000000018006af38     nsalloc.obj
 0002:00011f50       ??_C@_0EA@PNEOBKPK@?$CF4?44s?5?$CI?$CFs?$CJ?5?$FLNode?5?$CFp?5Owner?5?$CF3?43X@ 000000018006af50     nsalloc.obj
 0002:00011f90       ??_C@_0BO@IOOIAKBI@Found?5a?5grandchild?$CB?5P?$DN?$CFp?5C?$DN?$CFp@ 000000018006af90     nsalloc.obj
 0002:00011fc0       ??_C@_0DM@LOEKFHML@Argument?5?$CD?$CFu?5type?5mismatch?5?9?5Fo@ 000000018006afc0     nsarguments.obj
 0002:00012000       ??_C@_0DH@BOOMKFHL@Object?5?$CI?$CFs?$CJ?5must?5be?5a?5control?5m@ 000000018006b000     nsarguments.obj
 0002:00012040       ??_C@_0EL@NMJOGKFA@Object?5?$CI?$CFs?$CJ?5must?5be?5a?5control?5m@ 000000018006b040     nsarguments.obj
 0002:00012090       ??_C@_0DL@CADDEEDA@Insufficient?5arguments?5?9?5ASL?5de@ 000000018006b090     nsarguments.obj
 0002:000120d0       ??_C@_0DF@LIGFDMIC@Excess?5arguments?5?9?5ASL?5declared@ 000000018006b0d0     nsarguments.obj
 0002:00012108       ??_C@_0DK@GNNHFPNI@?$CFu?5arguments?5were?5passed?5to?5a?5n@ 000000018006b108     nsarguments.obj
 0002:00012148       ??_C@_0DO@BIGANCFH@Insufficient?5arguments?5?9?5Caller@ 000000018006b148     nsarguments.obj
 0002:00012188       ??_C@_0DI@LLFEPPIO@Excess?5arguments?5?9?5Caller?5passe@ 000000018006b188     nsarguments.obj
 0002:000121c0       ??_C@_0DM@MEGNIJCI@Insufficient?5arguments?5?9?5Caller@ 000000018006b1c0     nsarguments.obj
 0002:00012200       ??_C@_0DG@OBJKANPA@Excess?5arguments?5?9?5Caller?5passe@ 000000018006b200     nsarguments.obj
 0002:00012288       ??_C@_02JODFHDIE@?$FN?6@   000000018006b288     nsdump.obj
 0002:00012290       ??_C@_0BE@GOCDIBBH@Null?5object?5handle?6@ 000000018006b290     nsdump.obj
 0002:000122a8       ??_C@_0BK@LILJHOHO@Invalid?5object?5handle?5?$CFp?6@ 000000018006b2a8     nsdump.obj
 0002:000122c4       ??_C@_06HMDCPHJO@?$CF2d?$CF?$CKs@ 000000018006b2c4     nsdump.obj
 0002:000122d0       ??_C@_0CA@HLCLNDCM@Invalid?5ACPI?5Object?5Type?50x?$CF08X@ 000000018006b2d0     nsdump.obj
 0002:000122f0       ??_C@_0BB@FBCEGAJL@?5?$CF?912s?5?$CFp?5?$CF3?43X?5@ 000000018006b2f0     nsdump.obj
 0002:00012304       ??_C@_04COBLKNBP@?$CIT?$CJ?5@ 000000018006b304     nsdump.obj
 0002:00012310       ??_C@_0BF@FOIHOFAO@?$DMNo?5attached?5object?$DO@ 000000018006b310     nsdump.obj
 0002:00012328       ??_C@_0CC@PDMEDONF@ID?5?$CF02X?5Len?5?$CF02X?5Addr?5?$CF8?48X?$CF8?48@ 000000018006b328     nsdump.obj
 0002:00012350       ??_C@_0BD@INMIMEB@Notify?5Object?3?5?$CFp?6@ 000000018006b350     nsdump.obj
 0002:00012368       ??_C@_0BJ@PHPLGFHM@Args?5?$CFX?5Len?5?$CF?44X?5Aml?5?$CFp?6@ 000000018006b368     nsdump.obj
 0002:00012388       ??_C@_0O@HHBBADBL@?$DN?5?$CF8?48X?$CF8?48X?6@ 000000018006b388     nsdump.obj
 0002:00012398       ??_C@_0P@JHCLLCIG@Elements?5?$CF?42X?6@ 000000018006b398     nsdump.obj
 0002:000123a8       ??_C@_0BM@IPPMKKHD@?$FLLength?5not?5yet?5evaluated?$FN?6@ 000000018006b3a8     nsdump.obj
 0002:000123c8       ??_C@_08HJDPBJMI@Len?5?$CF?42X@ 000000018006b3c8     nsdump.obj
 0002:000123d4       ??_C@_02FCBLCILD@?5?$DN@   000000018006b3d4     nsdump.obj
 0002:000123d8       ??_C@_09ECFBDJ@Len?5?$CF?42X?5@ 000000018006b3d8     nsdump.obj
 0002:000123e4       ??_C@_04LIFAFMCE@?$FL?$CFs?$FN@ 000000018006b3e4     nsdump.obj
 0002:000123f0       ??_C@_0BL@IABMNFEE@?5Addr?5?$CF8?48X?$CF8?48X?5Len?5?$CF?44X?6@ 000000018006b3f0     nsdump.obj
 0002:00012410       ??_C@_0CF@HALBJPLE@?5?$FLAddress?1Length?5not?5yet?5evalua@ 000000018006b410     nsdump.obj
 0002:00012438       ??_C@_05MGFEFMAH@?$FL?$CFs?$FN?6@ 000000018006b438     nsdump.obj
 0002:00012440       ??_C@_0M@NLDHKPEJ@Buf?5?$FL?$CF4?44s?$FN@ 000000018006b440     nsdump.obj
 0002:00012450       ??_C@_0M@DCGCHPEL@Rgn?5?$FL?$CF4?44s?$FN@ 000000018006b450     nsdump.obj
 0002:00012460       ??_C@_0BI@GNLEJMMB@Rgn?5?$FL?$CF4?44s?$FN?5Bnk?5?$FL?$CF4?44s?$FN@ 000000018006b460     nsdump.obj
 0002:00012478       ??_C@_0BI@JPEPNENF@Idx?5?$FL?$CF4?44s?$FN?5Dat?5?$FL?$CF4?44s?$FN@ 000000018006b478     nsdump.obj
 0002:00012490       ??_C@_0BD@EMOALOBG@Target?5?$CF4?44s?5?$CI?$CFp?$CJ?6@ 000000018006b490     nsdump.obj
 0002:000124a8       ??_C@_0L@IHECDLOP@Object?5?$CFp?6@ 000000018006b4a8     nsdump.obj
 0002:000124b8       ??_C@_0BN@MCMGOPOI@?5Off?5?$CF?43X?5Len?5?$CF?42X?5Acc?5?$CF?42X?6@ 000000018006b4b8     nsdump.obj
 0002:000124d8       ??_C@_04GNFBCCEC@O?3?$CFp@ 000000018006b4d8     nsdump.obj
 0002:000124e0       ??_C@_05GGIBCPPA@?$CIR?$CFu?$CJ@ 000000018006b4e0     nsdump.obj
 0002:000124e8       ??_C@_09MIKCAHHN@?5M?3?$CFp?9?$CFX?6@ 000000018006b4e8     nsdump.obj
 0002:000124f8       ??_C@_0P@BKHCEKOP@?5I?3?$CF8?48X8?48?$CFX?6@ 000000018006b4f8     nsdump.obj
 0002:00012508       ??_C@_09KMKAJOJO@?5S?3?$CFp?9?$CFX?6@ 000000018006b508     nsdump.obj
 0002:00012518       ??_C@_09BHBLMIKM@?5B?3?$CFp?9?$CFX?6@ 000000018006b518     nsdump.obj
 0002:00012528       ??_C@_0BF@PFLMHNIC@Attached?5Object?5?$CFp?3?5@ 000000018006b528     nsdump.obj
 0002:00012540       ??_C@_0P@LJGKLKAB@?$CIPtr?5to?5Node?$CJ?6@ 000000018006b540     nsdump.obj
 0002:00012550       ??_C@_0CO@IHFDOAOF@?$CIPointer?5to?5ACPI?5Object?5type?5?$CF?4@ 000000018006b550     nsdump.obj
 0002:00012580       ??_C@_0CJ@NDPJNDJA@?$CIPointer?5to?5ACPI?5Object?5type?5?$CF?4@ 000000018006b580     nsdump.obj
 0002:000125b0       ??_C@_0CG@OIJGJHGK@?$CIBuffer?1String?5pointer?5?$CFp?5lengt@ 000000018006b5b0     nsdump.obj
 0002:000125d8       ??_C@_0CD@HNHLFPC@Could?5not?5acquire?5namespace?5mut@ 000000018006b5d8     nsdump.obj
 0002:00012600       ??_C@_0BM@MIKCPKDN@?6Namespace?5node?5count?3?5?$CFu?6?6@ 000000018006b600     nsdump.obj
 0002:00012620       ??_C@_0P@BLKGJNMH@?$CF2d?$CF?$CKs?$CF?912s?$CF?$CKs@ 000000018006b620     nsdump.obj
 0002:00012648       ??_C@_0BC@OAFDLMIM@?$CFs?5?$FL?$CFp?$FN?5Value?5?$CFp?6@ 000000018006b648     nseval.obj
 0002:00012660       ??_C@_0BE@POABLMMC@?5?5?5Enter?5evaluation@ 000000018006b660     nseval.obj
 0002:00012678       ??_C@_0BB@IGJPGBMB@?$CF?926s?3?5?5?$CFs?5?$CI?$CFs?$CJ?6@ 000000018006b678     nseval.obj
 0002:00012690       ??_C@_0CG@CKLDIPJN@Excess?5arguments?5?$CI?$CFu?$CJ?5?9?5using?5o@ 000000018006b690     nseval.obj
 0002:000126c0       ??_C@_0EG@EDMIMCJA@?$CFs?3?5This?5object?5type?5?$FL?$CFs?$FN?5never@ 000000018006b6c0     nseval.obj
 0002:00012708       ??_C@_0CG@ONBMHIN@?$CFs?3?5Method?5has?5no?5attached?5sub?9@ 000000018006b708     nseval.obj
 0002:00012730       ??_C@_0DG@CADBPBPD@?$CK?$CK?$CK?$CK?5Execute?5method?5?$FL?$CFs?$FN?5at?5AML@ 000000018006b730     nseval.obj
 0002:00012768       ??_C@_0BJ@PDHFIDMF@Returned?5object?5?$CFp?5?$FL?$CFs?$FN?6@ 000000018006b768     nseval.obj
 0002:00012788       ??_C@_0CL@EHHAJHA@?$CK?$CK?$CK?5Completed?5evaluation?5of?5obj@ 000000018006b788     nseval.obj
 0002:000127b8       ??_C@_0BD@DEGKLCHN@?5?5?5Exit?5evaluation@ 000000018006b7b8     nseval.obj
 0002:000127d0       ??_C@_0M@KLIIJLCH@?$CF?926s?3?5?5?$CFs?6@ 000000018006b7d0     nseval.obj
 0002:00012828       ??_C@_0DC@IIBDPOCJ@?$FLInit?$FN?5Completing?5Initializatio@ 000000018006b828     nsinit.obj
 0002:00012860       ??_C@_0CD@CFHEIEPP@Final?5data?5object?5initializatio@ 000000018006b860     nsinit.obj
 0002:00012888       ??_C@_0CG@PJFGGFFA@Namespace?5contains?5?$CFu?5?$CI0x?$CFX?$CJ?5ob@ 000000018006b888     nsinit.obj
 0002:000128b0       ??_C@_0CO@FOOFFMNE@?$CFu?5Control?5Methods?5found?6?$CFu?5Op?5@ 000000018006b8b0     nsinit.obj
 0002:000128e0       ??_C@_0CC@COFHBHFI@?$FLInit?$FN?5Initializing?5ACPI?5Device@ 000000018006b8e0     nsinit.obj
 0002:00012910       ??_C@_0FA@JIEKDHCC@Initializing?5Device?1Processor?1T@ 000000018006b910     nsinit.obj
 0002:00012960       ??_C@_04DODNBDMJ@_INI@     000000018006b960     nsinit.obj
 0002:00012968       ??_C@_04PLOFIILC@?2_SB@    000000018006b968     nsinit.obj
 0002:00012970       ??_C@_0CI@NCFGJIPI@?$FLInit?$FN?5Executing?5_REG?5OpRegion?5@ 000000018006b970     nsinit.obj
 0002:000129a0       ??_C@_0FB@CPNIMHOL@?5?5?5?5Executed?5?$CFu?5_INI?5methods?5re@ 000000018006b9a0     nsinit.obj
 0002:000129f8       ??_C@_0BN@GILCBGJ@During?5device?5initialization@ 000000018006b9f8     nsinit.obj
 0002:00012a18       ??_C@_0CE@NNMFNLHJ@Opcode?5is?5not?5deferred?5?$FL?$CF4?44s?$FN?5@ 000000018006ba18     nsinit.obj
 0002:00012a40       ??_C@_0CN@FGJNKMBG@Could?5not?5execute?5arguments?5for@ 000000018006ba40     nsinit.obj
 0002:00012a70       ??_C@_04NIPBAIJM@_STA@     000000018006ba70     nsinit.obj
 0002:00012a78       ??_C@_0BJ@OBPFJGDF@during?5?$CFs?4_INI?5execution@ 000000018006ba78     nsinit.obj
 0002:00012ab0       ??_C@_0CI@NFAKOEGF@?$CK?$CK?$CK?$CK?5Loading?5table?5into?5namespa@ 000000018006bab0     nsload.obj
 0002:00012ad8       ??_C@_0CI@NLBLKIEJ@?$CK?$CK?$CK?$CK?5Begin?5Table?5Object?5Initial@ 000000018006bad8     nsload.obj
 0002:00012b00       ??_C@_0CM@GBHEKBJA@?$CK?$CK?$CK?$CK?5Completed?5Table?5Object?5Ini@ 000000018006bb00     nsload.obj
 0002:00012ba8       ??_C@_0DN@JHAGGMPG@Invalid?1cached?5reference?5target@ 000000018006bba8     nsnames.obj
 0002:00012be8       ??_C@_06MNBNLDBB@?$CF4?44s?6@ 000000018006bbe8     nsnames.obj
 0002:00012bf0       ??_C@_08MDKIKJDG@?$CFs?5?$FL?$CFX?$FN?6@ 000000018006bbf0     nsnames.obj
 0002:00012c00       ??_C@_0BM@KMHDIFHP@Could?5not?5allocate?5?$CFu?5bytes@ 000000018006bc00     nsnames.obj
 0002:00012c20       ??_C@_0P@PMPJGJHM@?$CFs?3?5Path?5?$CC?$CFs?$CC?6@ 000000018006bc20     nsnames.obj
 0002:00012c90       ??_C@_0BF@MFLGCMFA@Null?5NamedObj?5handle@ 000000018006bc90     nsobject.obj
 0002:00012ca8       ??_C@_0CI@DFHANHAN@Null?5object?0?5but?5type?5not?5ACPI_@ 000000018006bca8     nsobject.obj
 0002:00012cd0       ??_C@_0BH@PKPKIBNM@Invalid?5handle?5?$CFp?5?$FL?$CFs?$FN@ 000000018006bcd0     nsobject.obj
 0002:00012ce8       ??_C@_0CI@LDMLHPNA@Obj?5?$CFp?5already?5installed?5in?5Nam@ 000000018006bce8     nsobject.obj
 0002:00012d10       ??_C@_0CE@DOINPOJM@Installing?5?$CFp?5into?5Node?5?$CFp?5?$FL?$CF4?4@ 000000018006bd10     nsobject.obj
 0002:00012d38       ??_C@_0BL@GJHDBAEA@Node?5?$CFp?5?$FL?$CF4?44s?$FN?5Object?5?$CFp?6@ 000000018006bd38     nsobject.obj
 0002:00012d58       ??_C@_0O@OHCCAFIF@Null?5Node?5ptr@ 000000018006bd58     nsobject.obj
 0002:00012da8       ??_C@_0DL@LFAKKICB@?$CFs?3?5Create?5table?5pseudo?9method?5@ 000000018006bda8     nsparse.obj
 0002:00012de8       ??_C@_0BI@BBBIHEDN@Module?9level?5evaluation@ 000000018006bde8     nsparse.obj
 0002:00012e00       ??_C@_0CC@GBFAPLE@?$CF?926s?3?5?5?$CIDefinition?5Block?5level@ 000000018006be00     nsparse.obj
 0002:00012e28       ??_C@_0BG@CDCHAAIH@Module?9level?5complete@ 000000018006be28     nsparse.obj
 0002:00012e40       ??_C@_0BH@JDFJEOBC@?$CKPARSE?$CK?5pass?5?$CFu?5parse?6@ 000000018006be40     nsparse.obj
 0002:00012e58       ??_C@_0CF@DKJJJJJM@?$CFs?3?5?$CK?$CK?$CK?$CK?5Start?5table?5execution?5@ 000000018006be58     nsparse.obj
 0002:00012e80       AcpiGbl_PredefinedMethods  000000018006be80     nspredef.obj
 0002:000137f8       ??_C@_0DN@KPCNNPAL@Invalid?5return?5type?5?9?5Found?5a?5N@ 000000018006c7f8     nspredef.obj
 0002:00013838       ??_C@_0CC@IAHBGCGO@Expected?5return?5object?5of?5type?5@ 000000018006c838     nspredef.obj
 0002:00013860       ??_C@_0CN@FDFCEDME@Return?5type?5mismatch?5?9?5found?5?$CFs@ 000000018006c860     nspredef.obj
 0002:00013890       ??_C@_0EB@GGIMIAML@Return?5Package?5type?5mismatch?5at@ 000000018006c890     nspredef.obj
 0002:000138e0       ??_C@_0ED@HPKEEKPJ@Return?5type?5mismatch?5?9?5unexpect@ 000000018006c8e0     nspredef.obj
 0002:00013970       ??_C@_0DD@FOKJDHBE@?$CFs?5Validating?5return?5Package?5of@ 000000018006c970     nsprepkg.obj
 0002:000139a8       ??_C@_0CH@IDLELAJG@Return?5Package?5has?5no?5elements?5@ 000000018006c9a8     nsprepkg.obj
 0002:000139d0       ??_C@_0EC@HMBNFCAJ@?$CFs?3?5Return?5Package?5is?5larger?5th@ 000000018006c9d0     nsprepkg.obj
 0002:00013a18       ??_C@_0BP@JCDJKBGG@Invalid?5length?5for?5UUID?5Buffer@ 000000018006ca18     nsprepkg.obj
 0002:00013a38       ??_C@_0DA@LCFKCFKF@Invalid?5internal?5return?5type?5in@ 000000018006ca38     nsprepkg.obj
 0002:00013a68       ??_C@_0DN@HAIJDAIF@Return?5Package?5is?5too?5small?5?9?5f@ 000000018006ca68     nsprepkg.obj
 0002:00013aa8       ??_C@_0BJ@HNFOKOHB@Invalid?5Package?5type?3?5?$CFX@ 000000018006caa8     nsprepkg.obj
 0002:00013ad0       ??_C@_0EE@DBOKMOHJ@Return?5SubPackage?$FL?$CFu?$FN?5is?5too?5sm@ 000000018006cad0     nsprepkg.obj
 0002:00013b18       ??_C@_0DK@CIIJOAGE@Return?5Package?5has?5invalid?5obje@ 000000018006cb18     nsprepkg.obj
 0002:00013c70       ??_C@_0BO@PAJPOFNC@Missing?5expected?5return?5value@ 000000018006cc70     nsrepair.obj
 0002:00013c90       ??_C@_0BO@FDMJFKAM@During?5return?5object?5analysis@ 000000018006cc90     nsrepair.obj
 0002:00013cb0       ??_C@_0CG@JKGPJBLA@Found?5unexpected?5NULL?5package?5e@ 000000018006ccb0     nsrepair.obj
 0002:00013cd8       ??_C@_0DF@HJHEPDBN@?$CFs?3?5Converted?5?$CFs?5to?5expected?5?$CFs@ 000000018006ccd8     nsrepair.obj
 0002:00013d10       ??_C@_0CB@EJBKNEBB@?$CFs?3?5Converted?5?$CFs?5to?5expected?5?$CFs@ 000000018006cd10     nsrepair.obj
 0002:00013d38       ??_C@_0DP@MMKANGJO@?$CFs?3?5Converted?5NULL?5package?5elem@ 000000018006cd38     nsrepair.obj
 0002:00013d78       ??_C@_0CI@KGJEJHJB@?$CFs?3?5Found?5and?5removed?5?$CFu?5NULL?5e@ 000000018006cd78     nsrepair.obj
 0002:00013da0       ??_C@_0CN@ECFFKPBM@?$CFs?3?5Wrapped?5?$CFs?5with?5expected?5Pa@ 000000018006cda0     nsrepair.obj
 0002:00013f00       ??_C@_0BD@GIEJCDMC@AmbientIlluminance@ 000000018006cf00     nsrepair2.obj
 0002:00013f18       ??_C@_0CP@ELPDLHHA@Incorrect?5return?5buffer?5length?5@ 000000018006cf18     nsrepair2.obj
 0002:00013f48       ??_C@_0DC@FJPPFNMO@?$CFs?5Expanded?5Byte?5Buffer?5to?5expe@ 000000018006cf48     nsrepair2.obj
 0002:00013f80       ??_C@_0DC@NCDGBGBJ@SubPackage?$FL?$CFu?$FN?5?9?5removing?5entry@ 000000018006cf80     nsrepair2.obj
 0002:00013fb8       ??_C@_0DH@EEFJBHCO@SubPackage?$FL?$CFu?$FN?5?9?5removing?5entry@ 000000018006cfb8     nsrepair2.obj
 0002:00013ff0       ??_C@_0N@ECFDBNJP@C?9State?5Type@ 000000018006cff0     nsrepair2.obj
 0002:00014000       ??_C@_0CI@NDPDCLMP@Invalid?5zero?9length?5_HID?5or?5_CI@ 000000018006d000     nsrepair2.obj
 0002:00014028       ??_C@_0CG@NDKBCEHJ@?$CFs?3?5Removed?5invalid?5leading?5ast@ 000000018006d028     nsrepair2.obj
 0002:00014050       ??_C@_0DD@GFGPLIDJ@PRT?$FL?$CFX?$FN?3?5Fixed?5reversed?5SourceN@ 000000018006d050     nsrepair2.obj
 0002:00014088       ??_C@_0N@KBLOIBBA@CpuFrequency@ 000000018006d088     nsrepair2.obj
 0002:00014098       ??_C@_0DI@MLJAPCIP@SubPackage?$FL?$CFu?0?$CFu?$FN?5?9?5suspicious?5@ 000000018006d098     nsrepair2.obj
 0002:000140d0       ??_C@_05PGJLPOBN@?$FO_PSS@ 000000018006d0d0     nsrepair2.obj
 0002:000140d8       ??_C@_0BB@FKGGIDAE@PowerDissipation@ 000000018006d0d8     nsrepair2.obj
 0002:000140f0       ??_C@_0CP@INBOMNLE@?$CFs?3?5Repaired?5unsorted?5list?5?9?5no@ 000000018006d0f0     nsrepair2.obj
 0002:00014178       ??_C@_0CE@EPHLJJLK@Searching?5?$CFs?5?$CI?$CFp?$CJ?5For?5?$FL?$CF4?44s?$FN?5?$CI@ 000000018006d178     nssearch.obj
 0002:000141a0       ??_C@_0DA@BKPDKHFG@Name?5?$FL?$CF4?44s?$FN?5?$CI?$CFs?$CJ?5?$CFp?5found?5in?5s@ 000000018006d1a0     nssearch.obj
 0002:000141d0       ??_C@_0EK@NOEHGIIP@Name?5?$FL?$CF4?44s?$FN?5?$CI?$CFs?$CJ?5not?5found?5in?5@ 000000018006d1d0     nssearch.obj
 0002:00014220       ??_C@_0BH@IGDIDIOF@?$FL?$CF4?44s?$FN?5has?5no?5parent?6@ 000000018006d220     nssearch.obj
 0002:00014240       ??_C@_0EC@JGMDNIO@?$FL?$CF4?44s?$FN?5type?5?$FL?$CFs?$FN?5must?5be?5local@ 000000018006d240     nssearch.obj
 0002:00014288       ??_C@_0CG@JHNODLF@Searching?5parent?5?$FL?$CF4?44s?$FN?5for?5?$FL?$CF@ 000000018006d288     nssearch.obj
 0002:000142b0       ??_C@_0DA@FHAAEHOC@Null?5parameter?3?5Node?5?$CFp?5Name?50x@ 000000018006d2b0     nssearch.obj
 0002:000142e0       ??_C@_0DE@GGBHDJKK@Namespace?5override?3?5?$CF4?44s?5pass?5@ 000000018006d2e0     nssearch.obj
 0002:00014318       ??_C@_0CE@CDDNMLBF@?$CF4?44s?5Not?5found?5in?5?$CFp?5?$FLNot?5addi@ 000000018006d318     nssearch.obj
 0002:000143e0       ??_C@_0BE@LJGNCKCJ@Null?5Node?5parameter@ 000000018006d3e0     nsutils.obj
 0002:000143f8       ??_C@_0BJ@LLLBADOK@Invalid?5Object?5Type?50x?$CFX@ 000000018006d3f8     nsutils.obj
 0002:00014418       ??_C@_0BM@CENMGJNE@Returning?5?$FL?$CFp?$FN?5?$CIabs?$CJ?5?$CC?2?$CFs?$CC?6@ 000000018006d418     nsutils.obj
 0002:00014438       ??_C@_0BL@ECJJHBD@Returning?5?$FL?$CFp?$FN?5?$CIrel?$CJ?5?$CC?$CFs?$CC?6@ 000000018006d438     nsutils.obj
 0002:00014458       ??_C@_0BG@OEOEDOKD@Invalid?5internal?5name@ 000000018006d458     nsutils.obj
 0002:00014470       ??_C@_0BB@CKPODJHK@Namespace?5freed?6@ 000000018006d470     nsutils.obj
 0002:00014488       ??_C@_07HMNAANNE@?$CFs?0?5?$CFs?6@ 000000018006d488     nsutils.obj
 0002:00014510       ??_C@_0BN@DGKJOIBC@?$CFs?5did?5not?5return?5any?5object@ 000000018006d510     nsxfeval.obj
 0002:00014530       ??_C@_0DO@HELHBGHE@Incorrect?5return?5type?5from?5?$CFs?5?9@ 000000018006d530     nsxfeval.obj
 0002:00014570       ??_C@_0CC@KJLDJKCH@Both?5Handle?5and?5Pathname?5are?5NU@ 000000018006d570     nsxfeval.obj
 0002:00014598       ??_C@_0CI@GEKAEFBC@Null?5Handle?5with?5relative?5pathn@ 000000018006d598     nsxfeval.obj
 0002:000145c0       ??_C@_0BL@MAHEJKBB@Needed?5buffer?5size?5?$CFX?0?5?$CFs?6@ 000000018006d5c0     nsxfeval.obj
 0002:00014690       ??_C@_0DG@BDCJFNJE@Control?5Method?5invocation?5?$CF4?44s@ 000000018006d690     psargs.obj
 0002:000146c8       ??_C@_0CJ@GKHALKOC@Control?5Method?5?$CFp?5has?5no?5attach@ 000000018006d6c8     psargs.obj
 0002:000146f8       ??_C@_0BN@JCBPCFMG@Control?5Method?5?9?5?$CFp?5Args?5?$CFX?6@ 000000018006d6f8     psargs.obj
 0002:00014718       ??_C@_0BF@CAOCGFNJ@Invalid?5ArgType?50x?$CFX@ 000000018006d718     psargs.obj
 0002:00014730       ??_C@_0CJ@GHDDEEBJ@Expected?5argument?5type?5ARGP?3?5?$CFs@ 000000018006d730     psargs.obj
 0002:00014760       ??_C@_0CH@LOPIIKBC@?$CK?$CK?$CK?$CK?5SimpleName?1NameOrRef?3?5?$CFs?5?$CI@ 000000018006d760     psargs.obj
 0002:00014788       ??_C@_0CD@DKAFCCIN@?$CK?$CK?$CK?$CK?5Target?1Supername?3?5?$CFs?5?$CI?$CF2?42@ 000000018006d788     psargs.obj
 0002:000147b0       ??_C@_0CC@HCPIALGM@?$CK?$CK?$CK?$CK?5TermArg?1DataObj?3?5?$CFs?5?$CI?$CF2?42X@ 000000018006d7b0     psargs.obj
 0002:000147d8       ??_C@_0BG@EAPIKBKG@Invalid?5ArgType?3?50x?$CFX@ 000000018006d7d8     psargs.obj
 0002:00014818       ??_C@_0BP@NEFKJLKE@Get?5arguments?5for?5opcode?5?$FL?$CFs?$FN?6@ 000000018006d818     psloop.obj
 0002:00014838       ??_C@_0CF@FCPKJCJD@Final?5argument?5count?3?5?$CF8?48X?5pas@ 000000018006d838     psloop.obj
 0002:00014860       ??_C@_0CM@CGLPCGIA@Setup?5Package?1Buffer?3?5Pass?5?$CFu?0?5@ 000000018006d860     psloop.obj
 0002:00014890       ??_C@_0CG@DFNBKEJO@Invoked?5method?5did?5not?5return?5a@ 000000018006d890     psloop.obj
 0002:000148b8       ??_C@_0BE@FMLFGFCM@GetPredicate?5Failed@ 000000018006d8b8     psloop.obj
 0002:000148d0       ??_C@_0BF@PDLBGCNG@Popped?5scope?0?5Op?$DN?$CFp?6@ 000000018006d8d0     psloop.obj
 0002:000148e8       ??_C@_0CL@JBEBDELO@Skipping?5parse?5of?5AML?5opcode?3?5?$CF@ 000000018006d8e8     psloop.obj
 0002:00014918       ??_C@_0BI@KEOMPBHL@Skipping?5While?1If?5block@ 000000018006d918     psloop.obj
 0002:00014930       ??_C@_0BE@LDBICMMK@Skipping?5Else?5block@ 000000018006d930     psloop.obj
 0002:00014948       ??_C@_0CC@ECFLHBKM@Parseloop?3?5argument?5count?3?5?$CF8?48@ 000000018006d948     psloop.obj
 0002:000149d8       ??_C@_0DH@DPBAPDNA@Unknown?5opcode?50x?$CF?42X?5at?5table?5@ 000000018006d9d8     psobject.obj
 0002:00014a10       ??_C@_0BL@MAMPFOMG@During?5name?5lookup?1catalog@ 000000018006da10     psobject.obj
 0002:00014a30       ??_C@_0CJ@CCJNAJIE@Ignoring?5error?5and?5continuing?5t@ 000000018006da30     psobject.obj
 0002:00014a60       ??_C@_0BP@DBAPLLD@AML?5package?5complete?5at?5Op?5?$CFp?6@ 000000018006da60     psobject.obj
 0002:00014a80       AcpiGbl_AmlOpInfo          000000018006da80     psopcode.obj
 0002:000156c8       ??_C@_04PCJGBDOP@Zero@     000000018006e6c8     psopcode.obj
 0002:000156d0       ??_C@_03EHAPBBEA@One@      000000018006e6d0     psopcode.obj
 0002:000156d4       ??_C@_05NNNCCOHC@Alias@    000000018006e6d4     psopcode.obj
 0002:000156e0       ??_C@_09HPBNLLCH@ByteConst@ 000000018006e6e0     psopcode.obj
 0002:000156f0       ??_C@_09BFIMIED@WordConst@ 000000018006e6f0     psopcode.obj
 0002:00015700       ??_C@_0L@KAJJHIGE@DwordConst@ 000000018006e700     psopcode.obj
 0002:0001570c       ??_C@_06ENNEIMBA@String@   000000018006e70c     psopcode.obj
 0002:00015714       ??_C@_05DFILDJHP@Scope@    000000018006e714     psopcode.obj
 0002:00015720       ??_C@_07FEDAHNII@Package@  000000018006e720     psopcode.obj
 0002:00015728       ??_C@_06NLBJBLEP@Local0@   000000018006e728     psopcode.obj
 0002:00015730       ??_C@_06MCACCKAO@Local1@   000000018006e730     psopcode.obj
 0002:00015738       ??_C@_06OJCPHJMN@Local2@   000000018006e738     psopcode.obj
 0002:00015740       ??_C@_06PADEEIIM@Local3@   000000018006e740     psopcode.obj
 0002:00015748       ??_C@_06LPHFNOEL@Local4@   000000018006e748     psopcode.obj
 0002:00015750       ??_C@_06KGGOOPAK@Local5@   000000018006e750     psopcode.obj
 0002:00015758       ??_C@_06INEDLMMJ@Local6@   000000018006e758     psopcode.obj
 0002:00015760       ??_C@_06JEFIINII@Local7@   000000018006e760     psopcode.obj
 0002:00015768       ??_C@_04PKGPKFK@Arg0@      000000018006e768     psopcode.obj
 0002:00015770       ??_C@_04BGLNMLBL@Arg1@     000000018006e770     psopcode.obj
 0002:00015778       ??_C@_04DNJAJINI@Arg2@     000000018006e778     psopcode.obj
 0002:00015780       ??_C@_04CEILKJJJ@Arg3@     000000018006e780     psopcode.obj
 0002:00015788       ??_C@_04GLMKDPFO@Arg4@     000000018006e788     psopcode.obj
 0002:00015790       ??_C@_04HCNBAOBP@Arg5@     000000018006e790     psopcode.obj
 0002:00015798       ??_C@_04FJPMFNNM@Arg6@     000000018006e798     psopcode.obj
 0002:000157a0       ??_C@_05OEMPKGID@Store@    000000018006e7a0     psopcode.obj
 0002:000157a8       ??_C@_05IIFKBJO@RefOf@     000000018006e7a8     psopcode.obj
 0002:000157b0       ??_C@_03LDFMNCOE@Add@      000000018006e7b0     psopcode.obj
 0002:000157b8       ??_C@_0M@BIIOHLBM@Concatenate@ 000000018006e7b8     psopcode.obj
 0002:000157c8       ??_C@_08DLEJPBEP@Subtract@ 000000018006e7c8     psopcode.obj
 0002:000157d8       ??_C@_09PDJBPHHD@Increment@ 000000018006e7d8     psopcode.obj
 0002:000157e8       ??_C@_09IEDKOCBO@Decrement@ 000000018006e7e8     psopcode.obj
 0002:000157f8       ??_C@_08EOBDLMOI@Multiply@ 000000018006e7f8     psopcode.obj
 0002:00015804       ??_C@_06JKMEHOIB@Divide@   000000018006e804     psopcode.obj
 0002:00015810       ??_C@_09IIGOLNPP@ShiftLeft@ 000000018006e810     psopcode.obj
 0002:00015820       ??_C@_0L@DHHFIOFJ@ShiftRight@ 000000018006e820     psopcode.obj
 0002:0001582c       ??_C@_03LOMLFHDC@And@      000000018006e82c     psopcode.obj
 0002:00015830       ??_C@_04LOGOJJBL@NAnd@     000000018006e830     psopcode.obj
 0002:00015838       ??_C@_02GGHBPHGE@Or@       000000018006e838     psopcode.obj
 0002:0001583c       ??_C@_03MDLPNOGE@NOr@      000000018006e83c     psopcode.obj
 0002:00015840       ??_C@_03LGMNNGCH@XOr@      000000018006e840     psopcode.obj
 0002:00015848       ??_C@_0P@ODBIGOM@FindSetLeftBit@ 000000018006e848     psopcode.obj
 0002:00015858       ??_C@_0BA@EOIDDDOF@FindSetRightBit@ 000000018006e858     psopcode.obj
 0002:00015868       ??_C@_07KPJAHFDH@DerefOf@  000000018006e868     psopcode.obj
 0002:00015870       ??_C@_06HHNOBIIB@Notify@   000000018006e870     psopcode.obj
 0002:00015878       ??_C@_06KIKOHELK@SizeOf@   000000018006e878     psopcode.obj
 0002:00015880       ??_C@_05FNNGFGLF@Index@    000000018006e880     psopcode.obj
 0002:00015888       ??_C@_05FKEBLKAO@Match@    000000018006e888     psopcode.obj
 0002:00015890       ??_C@_0BB@OEFFBONM@CreateDWordField@ 000000018006e890     psopcode.obj
 0002:000158a8       ??_C@_0BA@CPOFLFDF@CreateWordField@ 000000018006e8a8     psopcode.obj
 0002:000158b8       ??_C@_0BA@FBKAMGFB@CreateByteField@ 000000018006e8b8     psopcode.obj
 0002:000158c8       ??_C@_0P@HNFDOCJ@CreateBitField@ 000000018006e8c8     psopcode.obj
 0002:000158d8       ??_C@_0L@OIKOLKJC@ObjectType@ 000000018006e8d8     psopcode.obj
 0002:000158e4       ??_C@_04MEKOMKHL@LAnd@     000000018006e8e4     psopcode.obj
 0002:000158ec       ??_C@_03GJLGBGOP@LOr@      000000018006e8ec     psopcode.obj
 0002:000158f0       ??_C@_04NHMNKCEL@LNot@     000000018006e8f0     psopcode.obj
 0002:000158f8       ??_C@_06KGKDLIDO@LEqual@   000000018006e8f8     psopcode.obj
 0002:00015900       ??_C@_08DCNMPENE@LGreater@ 000000018006e900     psopcode.obj
 0002:0001590c       ??_C@_05PFPJNKAO@LLess@    000000018006e90c     psopcode.obj
 0002:00015914       ??_C@_02EMFCFMID@If@       000000018006e914     psopcode.obj
 0002:00015918       ??_C@_05OJJNEPLA@While@    000000018006e918     psopcode.obj
 0002:00015920       ??_C@_04NBOPPMHE@Noop@     000000018006e920     psopcode.obj
 0002:00015928       ??_C@_06HCFIKKEA@Return@   000000018006e928     psopcode.obj
 0002:00015930       ??_C@_05EMFLFCNO@Break@    000000018006e930     psopcode.obj
 0002:00015938       ??_C@_0L@DDDMMNHD@BreakPoint@ 000000018006e938     psopcode.obj
 0002:00015944       ??_C@_04HCIJGELE@Ones@     000000018006e944     psopcode.obj
 0002:0001594c       ??_C@_05GCNIINAF@Event@    000000018006e94c     psopcode.obj
 0002:00015958       ??_C@_09BGACEAOC@CondRefOf@ 000000018006e958     psopcode.obj
 0002:00015968       ??_C@_0M@OJFMHGMC@CreateField@ 000000018006e968     psopcode.obj
 0002:00015974       ??_C@_04IPBPFFEL@Load@     000000018006e974     psopcode.obj
 0002:0001597c       ??_C@_05MDGKOEID@Stall@    000000018006e97c     psopcode.obj
 0002:00015984       ??_C@_05PFDOMJEF@Sleep@    000000018006e984     psopcode.obj
 0002:00015990       ??_C@_07DNCJJOBD@Acquire@  000000018006e990     psopcode.obj
 0002:00015998       ??_C@_06CPODCDOI@Signal@   000000018006e998     psopcode.obj
 0002:000159a0       ??_C@_04DMCBMHAC@Wait@     000000018006e9a0     psopcode.obj
 0002:000159a8       ??_C@_05CCGMLFNG@Reset@    000000018006e9a8     psopcode.obj
 0002:000159b0       ??_C@_07LHBDFJPO@Release@  000000018006e9b0     psopcode.obj
 0002:000159b8       ??_C@_07EBAMANKD@FromBCD@  000000018006e9b8     psopcode.obj
 0002:000159c0       ??_C@_05BFJENNAP@ToBCD@    000000018006e9c0     psopcode.obj
 0002:000159c8       ??_C@_06FGIDPKBG@Unload@   000000018006e9c8     psopcode.obj
 0002:000159d0       ??_C@_08DNLDHPFP@Revision@ 000000018006e9d0     psopcode.obj
 0002:000159dc       ??_C@_05GCIPIGEI@Debug@    000000018006e9dc     psopcode.obj
 0002:000159e4       ??_C@_05FHGOFLKH@Fatal@    000000018006e9e4     psopcode.obj
 0002:000159f0       ??_C@_0BA@MIKFLKIK@OperationRegion@ 000000018006e9f0     psopcode.obj
 0002:00015a00       ??_C@_05EPLKDJMH@Field@    000000018006ea00     psopcode.obj
 0002:00015a08       ??_C@_06OIEJKIHP@Device@   000000018006ea08     psopcode.obj
 0002:00015a10       ??_C@_09JOCICBA@Processor@ 000000018006ea10     psopcode.obj
 0002:00015a20       ??_C@_0O@OBLDBIEP@PowerResource@ 000000018006ea20     psopcode.obj
 0002:00015a30       ??_C@_0M@OKOHHPBE@ThermalZone@ 000000018006ea30     psopcode.obj
 0002:00015a40       ??_C@_0L@LBNHNKBK@IndexField@ 000000018006ea40     psopcode.obj
 0002:00015a50       ??_C@_09IAHFBIPO@BankField@ 000000018006ea50     psopcode.obj
 0002:00015a60       ??_C@_0L@KKBEFJKJ@?9NamePath?9@ 000000018006ea60     psopcode.obj
 0002:00015a70       ??_C@_0N@NIDEMEAC@?9MethodCall?9@ 000000018006ea70     psopcode.obj
 0002:00015a80       ??_C@_0L@IELJIMC@?9ByteList?9@ 000000018006ea80     psopcode.obj
 0002:00015a90       ??_C@_0BA@MMCFNBDI@?9ReservedField?9@ 000000018006ea90     psopcode.obj
 0002:00015aa0       ??_C@_0N@GNGLMNMO@?9NamedField?9@ 000000018006eaa0     psopcode.obj
 0002:00015ab0       ??_C@_0O@DJPCLJEH@?9AccessField?9@ 000000018006eab0     psopcode.obj
 0002:00015ac0       ??_C@_0O@CIMNDPKD@?9StaticString@ 000000018006eac0     psopcode.obj
 0002:00015ad0       ??_C@_0P@FDLEGGLM@?9Return?5Value?9@ 000000018006ead0     psopcode.obj
 0002:00015ae0       ??_C@_0N@ECAKKBIL@?9UNKNOWN_OP?9@ 000000018006eae0     psopcode.obj
 0002:00015af0       ??_C@_0N@CBPIGNOP@?9ASCII_ONLY?9@ 000000018006eaf0     psopcode.obj
 0002:00015b00       ??_C@_0O@BDIMINKG@?9PREFIX_ONLY?9@ 000000018006eb00     psopcode.obj
 0002:00015b10       ??_C@_0L@HPDIBAON@QwordConst@ 000000018006eb10     psopcode.obj
 0002:00015b20       ??_C@_0BH@IFONNCFH@ConcatenateResTemplate@ 000000018006eb20     psopcode.obj
 0002:00015b38       ??_C@_03PFNPICLN@Mod@      000000018006eb38     psopcode.obj
 0002:00015b40       ??_C@_0BB@DLPEHGFF@CreateQWordField@ 000000018006eb40     psopcode.obj
 0002:00015b58       ??_C@_08OMNCIJJD@ToBuffer@ 000000018006eb58     psopcode.obj
 0002:00015b68       ??_C@_0BA@OBAELCJH@ToDecimalString@ 000000018006eb68     psopcode.obj
 0002:00015b78       ??_C@_0M@LDBAJPBG@ToHexString@ 000000018006eb78     psopcode.obj
 0002:00015b88       ??_C@_09PGIOHLFP@ToInteger@ 000000018006eb88     psopcode.obj
 0002:00015b98       ??_C@_08BAMEOFKN@ToString@ 000000018006eb98     psopcode.obj
 0002:00015ba8       ??_C@_0L@JBEFCNPJ@CopyObject@ 000000018006eba8     psopcode.obj
 0002:00015bb4       ??_C@_03PBFCPOAP@Mid@      000000018006ebb4     psopcode.obj
 0002:00015bb8       ??_C@_08LJHDLOLO@Continue@ 000000018006ebb8     psopcode.obj
 0002:00015bc8       ??_C@_09IDLEHADD@LoadTable@ 000000018006ebc8     psopcode.obj
 0002:00015bd8       ??_C@_0BA@FCLLDAGH@DataTableRegion@ 000000018006ebd8     psopcode.obj
 0002:00015be8       ??_C@_0O@JNJJLGME@?$FLEvalSubTree?$FN@ 000000018006ebe8     psopcode.obj
 0002:00015bf8       ??_C@_05NHFJDMOA@Timer@    000000018006ebf8     psopcode.obj
 0002:00015c00       ??_C@_0P@LGLBBFJI@?9ConnectField?9@ 000000018006ec00     psopcode.obj
 0002:00015c10       ??_C@_0BB@JBEKJMP@?9ExtAccessField?9@ 000000018006ec10     psopcode.obj
 0002:00015c28       ??_C@_08GKOOPLMO@External@ 000000018006ec28     psopcode.obj
 0002:00015c38       ??_C@_07JABLCLAF@Comment@  000000018006ec38     psopcode.obj
 0002:00015c40       AcpiGbl_ShortOpIndex       000000018006ec40     psopinfo.obj
 0002:00015d40       AcpiGbl_LongOpIndex        000000018006ed40     psopinfo.obj
 0002:00015e00       ??_C@_0BD@DAEAODGF@Unknown?5AML?5opcode@ 000000018006ee00     psopinfo.obj
 0002:00015e18       ??_C@_0M@MIKNJIKG@?$CFs?5?$FL?$CF4?44X?$FN?6@ 000000018006ee18     psopinfo.obj
 0002:00015e70       ??_C@_0CK@ECOIMAOC@Entered?5with?5WalkState?$DN?$CFp?5Aml?$DN?$CF@ 000000018006ee70     psparse.obj
 0002:00015ea0       ??_C@_09NPAFFBAO@State?$DN?$CFp?6@ 000000018006eea0     psparse.obj
 0002:00015eb0       ??_C@_0CO@IFAGLICA@Completed?5one?5call?5to?5walk?5loop@ 000000018006eeb0     psparse.obj
 0002:00015ee0       ??_C@_0BG@OKAHFEMA@?5?5?5Exit?5nested?5method@ 000000018006eee0     psparse.obj
 0002:00015ef8       ??_C@_0BA@HJAGHFPM@Aborting?5method@ 000000018006eef8     psparse.obj
 0002:00015f08       ??_C@_0CL@PGPIDOKI@ReturnValue?$DN?$CFp?0?5ImplicitValue?$DN?$CF@ 000000018006ef08     psparse.obj
 0002:00015f80       ??_C@_0BG@GEGFEOCH@Popped?5Op?5?$CFp?5Args?5?$CFX?6@ 000000018006ef80     psscope.obj
 0002:00015fb0       ??_C@_0BM@JBONOGAJ@Invalid?5AML?5Opcode?3?50x?$CF2?42X@ 000000018006efb0     pstree.obj
 0002:00015fe8       ??_C@_0BE@KJFBLGMB@Free?5retval?5op?3?5?$CFp?6@ 000000018006efe8     psutils.obj
 0002:00016020       ??_C@_09JBMIEOBE@?5root?5?$CFp?6@ 000000018006f020     pswalk.obj
 0002:00016030       ??_C@_0BC@EDADLOLL@?5?5?5?5?5?5?5?5?$CF?$CK?4s?$CFs?5?$CFp@ 000000018006f030     pswalk.obj
 0002:00016048       ??_C@_09IDEPHIIH@?5?5?5?5?$CF4?44s@ 000000018006f048     pswalk.obj
 0002:00016054       ??_C@_06PBOFDCCP@?5?5?5?5?$CFs@ 000000018006f054     pswalk.obj
 0002:00016088       ??_C@_0DN@FNJPDKEF@?$CK?$CK?$CK?$CK?5Begin?5Method?5Parse?1Execute@ 000000018006f088     psxface.obj
 0002:000160c8       ??_C@_0BM@HPJKDKHE@Method?5returned?5ObjDesc?$DN?$CFp?6@ 000000018006f0c8     psxface.obj
 0002:000160e8       AcpiRsConvertAddress32     000000018006f0e8     rsaddr.obj
 0002:00016100       AcpiRsConvertAddress16     000000018006f100     rsaddr.obj
 0002:00016118       AcpiRsConvertAddress64     000000018006f118     rsaddr.obj
 0002:00016130       AcpiRsConvertExtAddress64  000000018006f130     rsaddr.obj
 0002:000161d0       ??_C@_0DC@LFPFGOCB@Type?5?$CF?42X?0?5AmlLength?5?$CF?42X?5Inter@ 000000018006f1d0     rscalc.obj
 0002:00016278       ??_C@_0BA@PJABIPFJ@AmlBuffer?5?$DN?5?$CFp?6@ 000000018006f278     rscreate.obj
 0002:00016288       ??_C@_0BN@JLMKHAJI@Status?$DN?$CFX?5ListSizeNeeded?$DN?$CFX?6@ 000000018006f288     rscreate.obj
 0002:000162a8       ??_C@_0BL@JOKGPAKB@OutputBuffer?5?$CFp?5Length?5?$CFX?6@ 000000018006f2a8     rscreate.obj
 0002:000162c8       ??_C@_0BH@DMLCPJL@BufferSizeNeeded?5?$DN?5?$CFX?6@ 000000018006f2c8     rscreate.obj
 0002:000162e0       ??_C@_0DE@MDMAJIDA@?$CIPRT?$FL?$CFu?$FN?$CJ?5Need?5package?5of?5lengt@ 000000018006f2e0     rscreate.obj
 0002:00016318       ??_C@_0CJ@FOEPDJID@?$CIPRT?$FL?$CFu?$FN?4Address?$CJ?5Need?5Integer?0@ 000000018006f318     rscreate.obj
 0002:00016348       ??_C@_0CF@DANBMKAN@?$CIPRT?$FL?$CFu?$FN?4Pin?$CJ?5Need?5Integer?0?5fou@ 000000018006f348     rscreate.obj
 0002:00016370       ??_C@_0DH@NDONNMN@?$CIPRT?$FL?$CFu?$FN?4Source?$CJ?5Need?5name?0?5fou@ 000000018006f370     rscreate.obj
 0002:000163a8       ??_C@_0DD@PFDOFEEG@?$CIPRT?$FL?$CFu?$FN?4Source?$CJ?5Need?5Ref?1Strin@ 000000018006f3a8     rscreate.obj
 0002:000163e0       ??_C@_0CN@HEPNOPFL@?$CIPRT?$FL?$CFu?$FN?4SourceIndex?$CJ?5Need?5Inte@ 000000018006f3e0     rscreate.obj
 0002:00016410       ??_C@_0BK@DIDPJHIJ@ResourceList?5Buffer?5?$DN?5?$CFp?6@ 000000018006f410     rscreate.obj
 0002:00016430       ??_C@_0BG@FABGKHLO@AmlSizeNeeded?$DN?$CFX?0?5?$CFs?6@ 000000018006f430     rscreate.obj
 0002:00016450       ??_C@_08DJNDMKCD@?6?$FL?$CF02X?$FN?5@ 000000018006f450     rsdump.obj
 0002:00016460       ??_C@_0CP@LPOBAJEM@Invalid?5descriptor?5type?5?$CI?$CFX?$CJ?5in@ 000000018006f460     rsdump.obj
 0002:00016490       ??_C@_0BL@BIAJIGLF@Invalid?5Zero?5Resource?5Type@ 000000018006f490     rsdump.obj
 0002:000164b0       ??_C@_0DB@HAAEANAN@Invalid?5zero?5length?5descriptor?5@ 000000018006f4b0     rsdump.obj
 0002:000164e8       ??_C@_0CH@CPMEOHCL@?6?$FL?$CF02X?$FN?5PCI?5IRQ?5Routing?5Table?5P@ 000000018006f4e8     rsdump.obj
 0002:00016510       ??_C@_0N@DKDLDDNI@?$CFs?5Resource?6@ 000000018006f510     rsdump.obj
 0002:00016520       ??_C@_0P@NOJHKMPI@Resource?5Label@ 000000018006f520     rsdump.obj
 0002:00016530       ??_C@_0BG@OGKHKFDJ@Resource?5Source?5Label@ 000000018006f530     rsdump.obj
 0002:00016548       ??_C@_0BG@DPPPCLNC@Resource?5Source?5Index@ 000000018006f548     rsdump.obj
 0002:00016560       ??_C@_0BA@FJGMCINJ@?$FLNot?5Specified?$FN@ 000000018006f560     rsdump.obj
 0002:00016570       ??_C@_0BA@BEPMJMLO@Resource?5Source@ 000000018006f570     rsdump.obj
 0002:00016580       ??_C@_0BB@CJADGHBC@Bus?5Number?5Range@ 000000018006f580     rsdump.obj
 0002:00016598       ??_C@_0O@LCKJMELD@Resource?5Type@ 000000018006f598     rsdump.obj
 0002:000165a8       ??_C@_09JBNFIDIK@?$CF27s?5?3?5?$CFs@ 000000018006f5a8     rsdump.obj
 0002:000165b8       ??_C@_0BC@CAALENIK@?$FLNULL?5NAMESTRING?$FN@ 000000018006f5b8     rsdump.obj
 0002:000165d0       ??_C@_0O@GCEHIOAK@?$CF27s?5?3?5?$CF2?42X?6@ 000000018006f5d0     rsdump.obj
 0002:000165e0       ??_C@_0O@JBHFDCML@?$CF27s?5?3?5?$CF4?44X?6@ 000000018006f5e0     rsdump.obj
 0002:000165f0       ??_C@_0O@KMGBENAI@?$CF27s?5?3?5?$CF8?48X?6@ 000000018006f5f0     rsdump.obj
 0002:00016600       ??_C@_0BD@BAFLIDMP@?$CF27s?5?3?5?$CF8?48X?$CF8?48X?6@ 000000018006f600     rsdump.obj
 0002:00016618       ??_C@_07KPPALOAP@?$CF27s?5?3?5@ 000000018006f618     rsdump.obj
 0002:00016620       ??_C@_04EGKLLDLD@Byte@     000000018006f620     rsdump.obj
 0002:00016628       ??_C@_0BD@JHKHHMFM@?$CF25s?$CF2?42X?5?3?5?$CF2?42X?6@ 000000018006f628     rsdump.obj
 0002:0001663c       ??_C@_05KEKHNPDB@Dword@    000000018006f63c     rsdump.obj
 0002:00016648       ??_C@_0BD@FJIBLPFO@?$CF25s?$CF2?42X?5?3?5?$CF8?48X?6@ 000000018006f648     rsdump.obj
 0002:00016660       ??_C@_0BD@GEJFMAJN@?$CF25s?$CF2?42X?5?3?5?$CF4?44X?6@ 000000018006f660     rsdump.obj
 0002:00016680       AcpiRsDumpIrq              000000018006f680     rsdumpinfo.obj
 0002:00016700       AcpiRsDumpPrt              000000018006f700     rsdumpinfo.obj
 0002:00016760       AcpiRsDumpDma              000000018006f760     rsdumpinfo.obj
 0002:000167d0       AcpiRsDumpStartDpf         000000018006f7d0     rsdumpinfo.obj
 0002:00016818       AcpiRsDumpEndDpf           000000018006f818     rsdumpinfo.obj
 0002:00016830       AcpiRsDumpIo               000000018006f830     rsdumpinfo.obj
 0002:000168a0       AcpiRsDumpIoFlags          000000018006f8a0     rsdumpinfo.obj
 0002:000168e8       AcpiRsDumpFixedIo          000000018006f8e8     rsdumpinfo.obj
 0002:00016920       AcpiRsDumpVendor           000000018006f920     rsdumpinfo.obj
 0002:00016958       AcpiRsDumpEndTag           000000018006f958     rsdumpinfo.obj
 0002:00016970       AcpiRsDumpMemory24         000000018006f970     rsdumpinfo.obj
 0002:000169e0       AcpiRsDumpMemory32         000000018006f9e0     rsdumpinfo.obj
 0002:00016a50       AcpiRsDumpMemoryFlags      000000018006fa50     rsdumpinfo.obj
 0002:00016ab0       AcpiRsDumpFixedMemory32    000000018006fab0     rsdumpinfo.obj
 0002:00016b00       AcpiRsDumpAddress16        000000018006fb00     rsdumpinfo.obj
 0002:00016b90       AcpiRsDumpAddress32        000000018006fb90     rsdumpinfo.obj
 0002:00016c20       AcpiRsDumpAddress64        000000018006fc20     rsdumpinfo.obj
 0002:00016cb0       AcpiRsDumpExtAddress64     000000018006fcb0     rsdumpinfo.obj
 0002:00016d40       AcpiRsDumpExtIrq           000000018006fd40     rsdumpinfo.obj
 0002:00016dd0       AcpiRsDumpGenericReg       000000018006fdd0     rsdumpinfo.obj
 0002:00016e40       AcpiRsDumpGpio             000000018006fe40     rsdumpinfo.obj
 0002:00016f60       AcpiRsDumpPinFunction      000000018006ff60     rsdumpinfo.obj
 0002:00017020       AcpiRsDumpFixedDma         0000000180070020     rsdumpinfo.obj
 0002:00017070       AcpiRsDumpCommonSerialBus  0000000180070070     rsdumpinfo.obj
 0002:00017140       AcpiRsDumpCsi2SerialBus    0000000180070140     rsdumpinfo.obj
 0002:00017210       AcpiRsDumpI2cSerialBus     0000000180070210     rsdumpinfo.obj
 0002:00017310       AcpiRsDumpSpiSerialBus     0000000180070310     rsdumpinfo.obj
 0002:00017460       AcpiRsDumpUartSerialBus    0000000180070460     rsdumpinfo.obj
 0002:000175d0       AcpiRsDumpGeneralFlags     00000001800705d0     rsdumpinfo.obj
 0002:00017630       AcpiRsDumpPinConfig        0000000180070630     rsdumpinfo.obj
 0002:00017700       AcpiRsDumpPinGroup         0000000180070700     rsdumpinfo.obj
 0002:00017790       AcpiRsDumpPinGroupFunction 0000000180070790     rsdumpinfo.obj
 0002:00017840       AcpiRsDumpPinGroupConfig   0000000180070840     rsdumpinfo.obj
 0002:00017900       AcpiRsDumpClockInput       0000000180070900     rsdumpinfo.obj
 0002:00017980       ??_C@_0BC@EBMDHDFF@Descriptor?5Length@ 0000000180070980     rsdumpinfo.obj
 0002:00017998       ??_C@_0L@DPKMNHKD@Triggering@ 0000000180070998     rsdumpinfo.obj
 0002:000179a8       ??_C@_08IFOIOLEL@Polarity@ 00000001800709a8     rsdumpinfo.obj
 0002:000179b8       ??_C@_07JHEMBKKC@Sharing@  00000001800709b8     rsdumpinfo.obj
 0002:000179c0       ??_C@_0BA@BBNAJIF@Interrupt?5Count@ 00000001800709c0     rsdumpinfo.obj
 0002:000179d0       ??_C@_0P@ICILHIAA@Interrupt?5List@ 00000001800709d0     rsdumpinfo.obj
 0002:000179e0       ??_C@_05HOIAGEJD@Speed@    00000001800709e0     rsdumpinfo.obj
 0002:000179e8       ??_C@_09PDCBGCLA@Mastering@ 00000001800709e8     rsdumpinfo.obj
 0002:000179f8       ??_C@_0O@DKJGELNJ@Transfer?5Type@ 00000001800709f8     rsdumpinfo.obj
 0002:00017a08       ??_C@_0O@KAEPCOBA@Channel?5Count@ 0000000180070a08     rsdumpinfo.obj
 0002:00017a18       ??_C@_0N@BDPJDKB@Channel?5List@ 0000000180070a18     rsdumpinfo.obj
 0002:00017a28       ??_C@_0BK@OKBMJIG@Start?9Dependent?9Functions@ 0000000180070a28     rsdumpinfo.obj
 0002:00017a48       ??_C@_0BH@FDPDOOIJ@Compatibility?5Priority@ 0000000180070a48     rsdumpinfo.obj
 0002:00017a60       ??_C@_0BH@HALDGPGO@Performance?1Robustness@ 0000000180070a60     rsdumpinfo.obj
 0002:00017a78       ??_C@_0BI@JEKJKBK@End?9Dependent?9Functions@ 0000000180070a78     rsdumpinfo.obj
 0002:00017a90       ??_C@_03HMFHGFED@I?1O@     0000000180070a90     rsdumpinfo.obj
 0002:00017a98       ??_C@_0BB@LALGFOJL@Address?5Decoding@ 0000000180070a98     rsdumpinfo.obj
 0002:00017ab0       ??_C@_0BA@BNDIJMPN@Address?5Minimum@ 0000000180070ab0     rsdumpinfo.obj
 0002:00017ac0       ??_C@_0BA@PLFIDDBM@Address?5Maximum@ 0000000180070ac0     rsdumpinfo.obj
 0002:00017ad0       ??_C@_09CJGCBJBO@Fixed?5I?1O@ 0000000180070ad0     rsdumpinfo.obj
 0002:00017ae0       ??_C@_0BA@PADEBIAF@Vendor?5Specific@ 0000000180070ae0     rsdumpinfo.obj
 0002:00017af0       ??_C@_0M@MMCJJKML@Vendor?5Data@ 0000000180070af0     rsdumpinfo.obj
 0002:00017afc       ??_C@_06NCKABHK@EndTag@    0000000180070afc     rsdumpinfo.obj
 0002:00017b08       ??_C@_0BE@KGGNGMIH@24?9Bit?5Memory?5Range@ 0000000180070b08     rsdumpinfo.obj
 0002:00017b20       ??_C@_0O@COAOBDCL@Write?5Protect@ 0000000180070b20     rsdumpinfo.obj
 0002:00017b30       ??_C@_0BE@FONGFMNC@32?9Bit?5Memory?5Range@ 0000000180070b30     rsdumpinfo.obj
 0002:00017b48       ??_C@_0BK@CMDIJLGI@32?9Bit?5Fixed?5Memory?5Range@ 0000000180070b48     rsdumpinfo.obj
 0002:00017b68       ??_C@_0BK@GLLHCCDF@16?9Bit?5WORD?5Address?5Space@ 0000000180070b68     rsdumpinfo.obj
 0002:00017b88       ??_C@_0BL@OEAAFDBM@32?9Bit?5DWORD?5Address?5Space@ 0000000180070b88     rsdumpinfo.obj
 0002:00017ba8       ??_C@_0BL@BPFPIFJD@64?9Bit?5QWORD?5Address?5Space@ 0000000180070ba8     rsdumpinfo.obj
 0002:00017bc8       ??_C@_0BO@CBDNJKCC@64?9Bit?5Extended?5Address?5Space@ 0000000180070bc8     rsdumpinfo.obj
 0002:00017be8       ??_C@_0BI@LPAKLDBP@Type?9Specific?5Attribute@ 0000000180070be8     rsdumpinfo.obj
 0002:00017c00       ??_C@_0N@GKPEPGIL@Extended?5IRQ@ 0000000180070c00     rsdumpinfo.obj
 0002:00017c10       ??_C@_0BB@OKKIMDLM@Generic?5Register@ 0000000180070c10     rsdumpinfo.obj
 0002:00017c28       ??_C@_08EHGGFGJK@Space?5ID@ 0000000180070c28     rsdumpinfo.obj
 0002:00017c34       ??_C@_04BAKJGGJM@GPIO@     0000000180070c34     rsdumpinfo.obj
 0002:00017c40       ??_C@_0L@IDEDAIGJ@RevisionId@ 0000000180070c40     rsdumpinfo.obj
 0002:00017c50       ??_C@_0P@LNPCDAPC@ConnectionType@ 0000000180070c50     rsdumpinfo.obj
 0002:00017c60       ??_C@_0BB@JPKOGLJB@ProducerConsumer@ 0000000180070c60     rsdumpinfo.obj
 0002:00017c78       ??_C@_09EJHECKOA@PinConfig@ 0000000180070c78     rsdumpinfo.obj
 0002:00017c88       ??_C@_0O@CFGIAFNE@IoRestriction@ 0000000180070c88     rsdumpinfo.obj
 0002:00017c98       ??_C@_0O@GHPKMIH@DriveStrength@ 0000000180070c98     rsdumpinfo.obj
 0002:00017ca8       ??_C@_0BA@BODLGALN@DebounceTimeout@ 0000000180070ca8     rsdumpinfo.obj
 0002:00017cb8       ??_C@_0P@JCBJLAPA@ResourceSource@ 0000000180070cb8     rsdumpinfo.obj
 0002:00017cc8       ??_C@_0P@IMPPDIFF@PinTableLength@ 0000000180070cc8     rsdumpinfo.obj
 0002:00017cd8       ??_C@_08IEKMKADN@PinTable@ 0000000180070cd8     rsdumpinfo.obj
 0002:00017ce8       ??_C@_0N@PLKJCNDE@VendorLength@ 0000000180070ce8     rsdumpinfo.obj
 0002:00017cf8       ??_C@_0L@MJFOAGHE@VendorData@ 0000000180070cf8     rsdumpinfo.obj
 0002:00017d08       ??_C@_0M@LCLOGEGF@PinFunction@ 0000000180070d08     rsdumpinfo.obj
 0002:00017d18       ??_C@_0P@MMMJBIAD@FunctionNumber@ 0000000180070d18     rsdumpinfo.obj
 0002:00017d28       ??_C@_0L@DIAFAAGM@ClockInput@ 0000000180070d28     rsdumpinfo.obj
 0002:00017d38       ??_C@_0BD@CMIJADFN@FrequencyNumerator@ 0000000180070d38     rsdumpinfo.obj
 0002:00017d50       ??_C@_0BB@DMINOGAJ@FrequencyDivisor@ 0000000180070d50     rsdumpinfo.obj
 0002:00017d64       ??_C@_05MAGIBEFI@Scale@    0000000180070d64     rsdumpinfo.obj
 0002:00017d6c       ??_C@_04KNKPIPFB@Mode@     0000000180070d6c     rsdumpinfo.obj
 0002:00017d78       ??_C@_0O@DACJLGGH@PinConfigType@ 0000000180070d78     rsdumpinfo.obj
 0002:00017d88       ??_C@_0P@NANNHELA@PinConfigValue@ 0000000180070d88     rsdumpinfo.obj
 0002:00017d98       ??_C@_08PAIGJLGM@PinGroup@ 0000000180070d98     rsdumpinfo.obj
 0002:00017da8       ??_C@_0O@OIGJDGCI@ResourceLabel@ 0000000180070da8     rsdumpinfo.obj
 0002:00017db8       ??_C@_0BB@EAOKLCN@PinGroupFunction@ 0000000180070db8     rsdumpinfo.obj
 0002:00017dd0       ??_C@_0BE@MPHFOIKC@ResourceSourceLabel@ 0000000180070dd0     rsdumpinfo.obj
 0002:00017de8       ??_C@_0P@HNKCPNEA@PinGroupConfig@ 0000000180070de8     rsdumpinfo.obj
 0002:00017df8       ??_C@_08LIEJDGJL@FixedDma@ 0000000180070df8     rsdumpinfo.obj
 0002:00017e08       ??_C@_0N@FHCDDJPF@RequestLines@ 0000000180070e08     rsdumpinfo.obj
 0002:00017e18       ??_C@_08INPNJAIK@Channels@ 0000000180070e18     rsdumpinfo.obj
 0002:00017e28       ??_C@_0O@GFNEFDEE@TransferWidth@ 0000000180070e28     rsdumpinfo.obj
 0002:00017e38       ??_C@_0BC@PGLOKEAN@Common?5Serial?5Bus@ 0000000180070e38     rsdumpinfo.obj
 0002:00017e50       ??_C@_09KLLDIEBM@SlaveMode@ 0000000180070e50     rsdumpinfo.obj
 0002:00017e60       ??_C@_0BC@MFEIKFMM@ConnectionSharing@ 0000000180070e60     rsdumpinfo.obj
 0002:00017e78       ??_C@_0P@HFMOBAKK@TypeRevisionId@ 0000000180070e78     rsdumpinfo.obj
 0002:00017e88       ??_C@_0P@COPCMHFO@TypeDataLength@ 0000000180070e88     rsdumpinfo.obj
 0002:00017e98       ??_C@_0BC@IOCLAJBO@Camera?5Serial?5Bus@ 0000000180070e98     rsdumpinfo.obj
 0002:00017eb0       ??_C@_07MMFAPMHE@PhyType@  0000000180070eb0     rsdumpinfo.obj
 0002:00017eb8       ??_C@_0BC@BLOAFIED@LocalPortInstance@ 0000000180070eb8     rsdumpinfo.obj
 0002:00017ed0       ??_C@_0P@PFALKFBA@I2C?5Serial?5Bus@ 0000000180070ed0     rsdumpinfo.obj
 0002:00017ee0       ??_C@_0L@IAMPBGJL@AccessMode@ 0000000180070ee0     rsdumpinfo.obj
 0002:00017ef0       ??_C@_0BA@CFENDKMH@ConnectionSpeed@ 0000000180070ef0     rsdumpinfo.obj
 0002:00017f00       ??_C@_0N@MBIOBEOM@SlaveAddress@ 0000000180070f00     rsdumpinfo.obj
 0002:00017f10       ??_C@_0P@PPJAFJMG@Spi?5Serial?5Bus@ 0000000180070f10     rsdumpinfo.obj
 0002:00017f20       ??_C@_08HHNNKECG@WireMode@ 0000000180070f20     rsdumpinfo.obj
 0002:00017f30       ??_C@_0P@KNNJMJJF@DevicePolarity@ 0000000180070f30     rsdumpinfo.obj
 0002:00017f40       ??_C@_0O@PEAKNHCD@DataBitLength@ 0000000180070f40     rsdumpinfo.obj
 0002:00017f50       ??_C@_0L@CMGNMJMH@ClockPhase@ 0000000180070f50     rsdumpinfo.obj
 0002:00017f60       ??_C@_0O@KBDMMLGK@ClockPolarity@ 0000000180070f60     rsdumpinfo.obj
 0002:00017f70       ??_C@_0BA@BLMCDPCI@DeviceSelection@ 0000000180070f70     rsdumpinfo.obj
 0002:00017f80       ??_C@_0BA@JMBGEP@Uart?5Serial?5Bus@ 0000000180070f80     rsdumpinfo.obj
 0002:00017f90       ??_C@_0M@BKCBMPBI@FlowControl@ 0000000180070f90     rsdumpinfo.obj
 0002:00017fa0       ??_C@_08DPBIGBFM@StopBits@ 0000000180070fa0     rsdumpinfo.obj
 0002:00017fb0       ??_C@_08GOLBGIKB@DataBits@ 0000000180070fb0     rsdumpinfo.obj
 0002:00017fbc       ??_C@_06NOKJJKEP@Endian@   0000000180070fbc     rsdumpinfo.obj
 0002:00017fc4       ??_C@_06OKNHBMNM@Parity@   0000000180070fc4     rsdumpinfo.obj
 0002:00017fd0       ??_C@_0N@DKNGKGJO@LinesEnabled@ 0000000180070fd0     rsdumpinfo.obj
 0002:00017fe0       ??_C@_0L@FKKNJFCB@RxFifoSize@ 0000000180070fe0     rsdumpinfo.obj
 0002:00017ff0       ??_C@_0L@LCBIFPGC@TxFifoSize@ 0000000180070ff0     rsdumpinfo.obj
 0002:00018000       ??_C@_0BC@MFJIHONL@Consumer?1Producer@ 0000000180071000     rsdumpinfo.obj
 0002:00018018       ??_C@_0P@MGDNLDOO@Address?5Decode@ 0000000180071018     rsdumpinfo.obj
 0002:00018028       ??_C@_0BD@EHCKOEMH@Min?5Relocatability@ 0000000180071028     rsdumpinfo.obj
 0002:00018040       ??_C@_0BD@OABOGELO@Max?5Relocatability@ 0000000180071040     rsdumpinfo.obj
 0002:00018058       ??_C@_0N@MIHPLKHA@Memory?5Range@ 0000000180071058     rsdumpinfo.obj
 0002:00018068       ??_C@_07BJPHEAHC@Caching@  0000000180071068     rsdumpinfo.obj
 0002:00018070       ??_C@_0L@INPNKBPH@Range?5Type@ 0000000180071070     rsdumpinfo.obj
 0002:00018080       ??_C@_0M@OIHFNOAG@Translation@ 0000000180071080     rsdumpinfo.obj
 0002:00018090       ??_C@_09HHGNCKDK@I?1O?5Range@ 0000000180071090     rsdumpinfo.obj
 0002:000180a0       ??_C@_0BB@BNCFJMMM@Translation?5Type@ 00000001800710a0     rsdumpinfo.obj
 0002:000180b4       ??_C@_03KJMOJJMH@Pin@      00000001800710b4     rsdumpinfo.obj
 0002:000180b8       ??_C@_06CLBDIDBH@Source@   00000001800710b8     rsdumpinfo.obj
 0002:000180c0       ??_C@_0N@ECHHJIGE@Source?5Index@ 00000001800710c0     rsdumpinfo.obj
 0002:000180d0       AcpiGbl_AmlResourceSizes   00000001800710d0     rsinfo.obj
 0002:000180ec       AcpiGbl_AmlResourceSerialBusSizes 00000001800710ec     rsinfo.obj
 0002:000180f8       AcpiGbl_ResourceStructSizes 00000001800710f8     rsinfo.obj
 0002:0001811c       AcpiGbl_ResourceStructSerialBusSizes 000000018007111c     rsinfo.obj
 0002:00018128       AcpiRsConvertEndDpf        0000000180071128     rsio.obj
 0002:00018130       AcpiRsConvertIo            0000000180071130     rsio.obj
 0002:00018148       AcpiRsConvertFixedIo       0000000180071148     rsio.obj
 0002:00018158       AcpiRsConvertEndTag        0000000180071158     rsio.obj
 0002:00018160       AcpiRsConvertGenericReg    0000000180071160     rsio.obj
 0002:00018170       AcpiRsGetStartDpf          0000000180071170     rsio.obj
 0002:00018188       AcpiRsSetStartDpf          0000000180071188     rsio.obj
 0002:000181b0       AcpiRsConvertDma           00000001800711b0     rsirq.obj
 0002:000181c8       AcpiRsConvertExtIrq        00000001800711c8     rsirq.obj
 0002:000181f0       AcpiRsConvertFixedDma      00000001800711f0     rsirq.obj
 0002:00018200       AcpiRsGetIrq               0000000180071200     rsirq.obj
 0002:00018228       AcpiRsSetIrq               0000000180071228     rsirq.obj
 0002:00018298       ??_C@_0BP@HOPOMHPJ@Misaligned?5resource?5pointer?5?$CFp@ 0000000180071298     rslist.obj
 0002:000182b8       ??_C@_0DG@JOJJFHIF@Invalid?1unsupported?5resource?5de@ 00000001800712b8     rslist.obj
 0002:000182f0       ??_C@_0CL@GPLIMDHC@Could?5not?5convert?5AML?5resource?5@ 00000001800712f0     rslist.obj
 0002:00018320       ??_C@_0DK@EJGABGGA@Zero?9length?5resource?5returned?5f@ 0000000180071320     rslist.obj
 0002:00018360       ??_C@_0CP@JJOHKHNM@Type?5?$CF?42X?0?5AmlLength?5?$CF?42X?5Inter@ 0000000180071360     rslist.obj
 0002:00018390       ??_C@_0DA@OHFHLKFL@Invalid?5descriptor?5type?5?$CI0x?$CFX?$CJ?5@ 0000000180071390     rslist.obj
 0002:000183c0       ??_C@_0CO@HOINCCNM@Could?5not?5convert?5resource?5?$CItyp@ 00000001800713c0     rslist.obj
 0002:000183f0       AcpiRsConvertMemory24      00000001800713f0     rsmemory.obj
 0002:00018400       AcpiRsConvertMemory32      0000000180071400     rsmemory.obj
 0002:00018410       AcpiRsConvertFixedMemory32 0000000180071410     rsmemory.obj
 0002:00018420       AcpiRsGetVendorSmall       0000000180071420     rsmemory.obj
 0002:00018430       AcpiRsGetVendorLarge       0000000180071430     rsmemory.obj
 0002:00018440       AcpiRsSetVendor            0000000180071440     rsmemory.obj
 0002:00018498       ??_C@_0DN@PBPHDENK@Misaligned?5resource?5pointer?5?$CIge@ 0000000180071498     rsmisc.obj
 0002:000184d8       ??_C@_0BO@HHKJPBGI@Invalid?5conversion?5sub?9opcode@ 00000001800714d8     rsmisc.obj
 0002:000184f8       ??_C@_0BK@CGMBENJF@Invalid?5conversion?5opcode@ 00000001800714f8     rsmisc.obj
 0002:00018520       AcpiRsConvertGpio          0000000180071520     rsserial.obj
 0002:00018568       AcpiRsConvertCsi2SerialBus 0000000180071568     rsserial.obj
 0002:000185a0       AcpiRsConvertI2cSerialBus  00000001800715a0     rsserial.obj
 0002:000185f0       AcpiRsConvertSpiSerialBus  00000001800715f0     rsserial.obj
 0002:00018650       AcpiRsConvertUartSerialBus 0000000180071650     rsserial.obj
 0002:000186b0       AcpiRsConvertPinFunction   00000001800716b0     rsserial.obj
 0002:000186e8       AcpiRsConvertPinConfig     00000001800716e8     rsserial.obj
 0002:00018720       AcpiRsConvertPinGroup      0000000180071720     rsserial.obj
 0002:00018748       AcpiRsConvertPinGroupFunction 0000000180071748     rsserial.obj
 0002:00018780       AcpiRsConvertPinGroupConfig 0000000180071780     rsserial.obj
 0002:000187b8       AcpiRsConvertClockInput    00000001800717b8     rsserial.obj
 0002:00018864       ??_C@_04KEIIAEPN@_SRS@     0000000180071864     rsutils.obj
 0002:00018a60       ??_C@_0DF@EPHJNGCD@Invalid?5signature?50x?$CFX?5for?5ACPI@ 0000000180071a60     tbdata.obj
 0002:00018a98       ??_C@_04MFANEHND@?$DP?$DP?$DP?$DP@ 0000000180071a98     tbdata.obj
 0002:00018aa0       ??_C@_0DC@JJLFGNPA@?$CF4?44s?50x?$CF8?48X?$CF8?48X?5Attempted?5ta@ 0000000180071aa0     tbdata.obj
 0002:00018ad8       ??_C@_0CL@PFLOJNCB@?$CF4?44s?50x?$CF8?48X?$CF8?48X?5Table?5is?5alr@ 0000000180071ad8     tbdata.obj
 0002:00018b08       ??_C@_0CK@FGKHLDNC@Resize?5of?5Root?5Table?5Array?5is?5n@ 0000000180071b08     tbdata.obj
 0002:00018b38       ??_C@_0CI@KOCLNJMI@Could?5not?5allocate?5new?5root?5tab@ 0000000180071b38     tbdata.obj
 0002:00018b60       ??_C@_0BD@OMKFIPPJ@ACPI?5Tables?5freed?6@ 0000000180071b60     tbdata.obj
 0002:00018b80       ??_C@_0P@NCPPCANG@Pm1aEventBlock@ 0000000180071b80     tbfadt.obj
 0002:00018b90       ??_C@_0P@KFGBPCCG@Pm1bEventBlock@ 0000000180071b90     tbfadt.obj
 0002:00018ba0       ??_C@_0BB@KFAENBAN@Pm1aControlBlock@ 0000000180071ba0     tbfadt.obj
 0002:00018bb8       ??_C@_0BB@NJGFPENG@Pm1bControlBlock@ 0000000180071bb8     tbfadt.obj
 0002:00018bd0       ??_C@_0BA@KCBDDDEG@Pm2ControlBlock@ 0000000180071bd0     tbfadt.obj
 0002:00018be0       ??_C@_0N@FFDGHKLD@PmTimerBlock@ 0000000180071be0     tbfadt.obj
 0002:00018bf0       ??_C@_09BBFHFCGD@Gpe0Block@ 0000000180071bf0     tbfadt.obj
 0002:00018c00       ??_C@_09LHCAFJNH@Gpe1Block@ 0000000180071c00     tbfadt.obj
 0002:00018c10       ??_C@_0GO@KBIJOHJJ@?$CFs?5?9?532?9bit?5FADT?5register?5is?5to@ 0000000180071c10     tbfadt.obj
 0002:00018c80       ??_C@_0EP@MOGMOHKD@32?164X?5?$CFs?5address?5mismatch?5in?5F@ 0000000180071c80     tbfadt.obj
 0002:00018cd0       ??_C@_0BK@LDMPBEGO@ACPI?56?41?5?$CIFADT?5version?56?$CJ@ 0000000180071cd0     tbfadt.obj
 0002:00018cf0       ??_C@_0EI@FENFOONM@FADT?5?$CIrevision?5?$CFu?$CJ?5is?5longer?5th@ 0000000180071cf0     tbfadt.obj
 0002:00018d38       ??_C@_04OEFCOLGL@DSDT@     0000000180071d38     tbfadt.obj
 0002:00018d40       ??_C@_0EP@KCNLFKIL@32?164X?5address?5mismatch?5in?5FADT@ 0000000180071d40     tbfadt.obj
 0002:00018d90       ??_C@_0CJ@IBJJNBOO@32?164X?5length?5mismatch?5in?5FADT?1@ 0000000180071d90     tbfadt.obj
 0002:00018dc0       ??_C@_0EJ@HEHPCNBO@Required?5FADT?5field?5?$CFs?5has?5zero@ 0000000180071dc0     tbfadt.obj
 0002:00018e10       ??_C@_0ED@OKLJHIGJ@Optional?5FADT?5field?5?$CFs?5has?5vali@ 0000000180071e10     tbfadt.obj
 0002:00018e58       ??_C@_0DB@JEJIHLEA@Invalid?5length?5for?5FADT?1?$CFs?3?5?$CFu?0@ 0000000180071e58     tbfadt.obj
 0002:00018e90       ??_C@_0M@JCHPCCPD@PmRegisters@ 0000000180071e90     tbfadt.obj
 0002:00018eb8       ??_C@_0BF@GDKMLLPD@Found?5table?5?$FL?$CF4?44s?$FN?6@ 0000000180071eb8     tbfind.obj
 0002:00018f10       ??_C@_0CN@MPHJOELM@Could?5not?5acquire?5table?5length?5@ 0000000180071f10     tbinstal.obj
 0002:00018f40       ??_C@_0CN@CMCHKEGF@Ignoring?5installation?5of?5?$CF4?44s?5@ 0000000180071f40     tbinstal.obj
 0002:00018f70       ??_C@_07LBAMDMLH@Logical@  0000000180071f70     tbinstal.obj
 0002:00018f78       ??_C@_08KBAADDND@Physical@ 0000000180071f78     tbinstal.obj
 0002:00018f88       ??_C@_0DO@JDLGCBCE@?$CF4?44s?50x?$CF8?48X?$CF8?48X?5?$CFs?5table?5ove@ 0000000180071f88     tbinstal.obj
 0002:00018fc8       ??_C@_0BJ@CGBLBPHF@?$CF?94?44s?50x?$CF8?48X?$CF8?48X?5?$CF06X@ 0000000180071fc8     tbprint.obj
 0002:00018fe8       ??_C@_08KPNDKLJK@RSD?5PTR?5@ 0000000180071fe8     tbprint.obj
 0002:00018ff8       ??_C@_0CG@IHPOOEIB@RSDP?50x?$CF8?48X?$CF8?48X?5?$CF06X?5?$CIv?$CF?42d?5?$CF@ 0000000180071ff8     tbprint.obj
 0002:00019020       ??_C@_0EA@NOELHAIN@?$CF?94?44s?50x?$CF8?48X?$CF8?48X?5?$CF06X?5?$CIv?$CF?42d@ 0000000180072020     tbprint.obj
 0002:000190a0       ??_C@_0EB@NEFGACBF@The?5DSDT?5has?5been?5corrupted?5or?5@ 00000001800720a0     tbutils.obj
 0002:000190e8       ??_C@_0CD@JDNAICIL@Could?5not?5copy?5DSDT?5of?5length?50@ 00000001800720e8     tbutils.obj
 0002:00019110       ??_C@_0EC@DEAHMDAL@Forced?5DSDT?5copy?3?5length?50x?$CF05X@ 0000000180072110     tbutils.obj
 0002:00019158       ??_C@_0CH@LLGOACIO@Invalid?5table?5length?50x?$CFX?5in?5RS@ 0000000180072158     tbutils.obj
 0002:00019180       ??_C@_0CG@PAKCBBEN@Table?5?$CFp?0?5Validation?5count?5over@ 0000000180072180     tbutils.obj
 0002:000191a8       ??_C@_0CH@HJMMBJNJ@Table?5?$CFp?0?5Validation?5count?5unde@ 00000001800721a8     tbutils.obj
 0002:00019260       ??_C@_0DJ@EMKLELBI@Table?5?$FL?$CF4?44s?$FN?5is?5not?5invalidate@ 0000000180072260     tbxface.obj
 0002:00019340       ??_C@_0BN@HJMAFOBI@During?5Region?5initialization@ 0000000180072340     tbxfload.obj
 0002:00019360       ??_C@_0CJ@HPHFAGFH@While?5loading?5namespace?5from?5AC@ 0000000180072360     tbxfload.obj
 0002:00019390       ??_C@_0BJ@DCADMKBK@?$FLDSDT?$FN?5table?5load?5failed@ 0000000180072390     tbxfload.obj
 0002:000193b0       ??_C@_0CC@BLMFOKAB@?$CI?$CF4?44s?3?$CF8?48s?$CJ?5while?5loading?5tab@ 00000001800723b0     tbxfload.obj
 0002:000193d8       ??_C@_0DM@OBBAAEDB@Table?5?$FL?$CF4?44s?3?$CF8?48s?$FN?5?$CIid?5FF?$CJ?5?9?5T@ 00000001800723d8     tbxfload.obj
 0002:00019418       ??_C@_0DE@JJGBHLPF@?$CFu?5ACPI?5AML?5tables?5successfully@ 0000000180072418     tbxfload.obj
 0002:00019450       ??_C@_0CG@EELHIPKK@?$CFu?5table?5load?5failures?0?5?$CFu?5succ@ 0000000180072450     tbxfload.obj
 0002:00019478       ??_C@_0CH@EGEELCLO@Host?9directed?5Dynamic?5ACPI?5Tabl@ 0000000180072478     tbxfload.obj
 0002:000194e0       ??_C@_0CO@POADIAOH@Could?5not?5map?5memory?5at?50x?$CF8?48X@ 00000001800724e0     tbxfroot.obj
 0002:00019510       ??_C@_0BL@IFGNPANF@A?5valid?5RSDP?5was?5not?5found@ 0000000180072510     tbxfroot.obj
 0002:00019530       ??_C@_0CF@CCLCNBE@RSDP?5located?5at?5physical?5addres@ 0000000180072530     tbxfroot.obj
 0002:00019558       ??_C@_0DJ@KIMJEKKI@Searched?5entire?5block?5from?5?$CFp?0?5@ 0000000180072558     tbxfroot.obj
 0002:000195f0       ??_C@_0DJ@FNMJNJGN@?6Added?5?$FL?$CF4?44s?$FN?5address?5range?3?50@ 00000001800725f0     utaddress.obj
 0002:00019630       ??_C@_0DL@BHELELBA@?6Removed?5?$FL?$CF4?44s?$FN?5address?5range?3@ 0000000180072630     utaddress.obj
 0002:00019670       ??_C@_0FK@KLKLIIDO@?$CFs?5range?50x?$CF8?48X?$CF8?48X?90x?$CF8?48X?$CF8@ 0000000180072670     utaddress.obj
 0002:000196d8       ??_C@_0P@BFHJIPDD@Acpi?9Namespace@ 00000001800726d8     utalloc.obj
 0002:000196e8       ??_C@_0L@GGKDOEAI@Acpi?9State@ 00000001800726e8     utalloc.obj
 0002:000196f8       ??_C@_0L@PNEGAKA@Acpi?9Parse@ 00000001800726f8     utalloc.obj
 0002:00019708       ??_C@_0O@IAEAANBA@Acpi?9ParseExt@ 0000000180072708     utalloc.obj
 0002:00019718       ??_C@_0N@GIIOKCNF@Acpi?9Operand@ 0000000180072718     utalloc.obj
 0002:00019728       ??_C@_0M@HGKKCJKI@Acpi?9Global@ 0000000180072728     utalloc.obj
 0002:00019738       ??_C@_0CE@JNKLINAF@Null?5Buffer?5Pointer?5in?5DumpBuff@ 0000000180072738     utbuffer.obj
 0002:00019760       ??_C@_07GLABLODI@?$CF8?44X?3?5@ 0000000180072760     utbuffer.obj
 0002:00019768       ??_C@_03HIJPJGOM@?$CF?$CKs@ 0000000180072768     utbuffer.obj
 0002:0001976c       ??_C@_05BFHEBJNP@?$CF02X?5@ 000000018007276c     utbuffer.obj
 0002:00019774       ??_C@_05DABPEGAD@?$CF04X?5@ 0000000180072774     utbuffer.obj
 0002:0001977c       ??_C@_05HKMJPJLL@?$CF08X?5@ 000000018007277c     utbuffer.obj
 0002:00019784       ??_C@_04JIMNDDED@?$CF08X@  0000000180072784     utbuffer.obj
 0002:0001978c       ??_C@_03IAHPLKPE@?1?1?5@   000000018007278c     utbuffer.obj
 0002:000197a8       ??_C@_0BN@OOALFKBD@?$CFs?3?5Object?5?$CFp?5from?5?$CFs?5cache?6@ 00000001800727a8     utcache.obj
 0002:000198a8       ??_C@_0DP@CFAHEDNB@Unsupported?5object?5type?0?5cannot@ 00000001800728a8     utcopy.obj
 0002:000198e8       ??_C@_0DP@HIKPEOCD@Unsupported?5object?5type?0?5cannot@ 00000001800728e8     utcopy.obj
 0002:00019928       ??_C@_0BL@NIKJBDNE@Package?5allocation?5failure@ 0000000180072928     utcopy.obj
 0002:00019948       ??_C@_09CNDDEOHP@?9?9?9?9Entry@ 0000000180072948     utdebug.obj
 0002:00019958       ??_C@_09LKLKEHPN@?9?9?9?9Exit?9@ 0000000180072958     utdebug.obj
 0002:00019968       ??_C@_0DC@HIPCILG@?6?$CK?$CK?$CK?$CK?5Context?5Switch?5from?5TID?5?$CF@ 0000000180072968     utdebug.obj
 0002:000199a0       ??_C@_09OIHFODBA@?$CF9s?9?$CF04d?5@ 00000001800729a0     utdebug.obj
 0002:000199ac       ??_C@_05IMFEMPPD@?$FL?$CFu?$FN?5@ 00000001800729ac     utdebug.obj
 0002:000199b8       ??_C@_0L@CHEGKCOB@?$FL?$CF02d?$FN?5?$CF?$CKs@ 00000001800729b8     utdebug.obj
 0002:000199c8       ??_C@_07OPCJGOKE@?$CFs?$CF?$CKs?3?5@ 00000001800729c8     utdebug.obj
 0002:000199d0       ??_C@_06IKJDLJAH@?$CFs?5?$CFp?6@ 00000001800729d0     utdebug.obj
 0002:000199d8       ??_C@_06IINFAHFO@?$CFs?5?$CFs?6@ 00000001800729d8     utdebug.obj
 0002:000199e0       ??_C@_08GHGNOIJN@?$CFs?5?$CF08X?6@ 00000001800729e0     utdebug.obj
 0002:000199f0       ??_C@_0BK@JIDPNBED@?$CFs?5?$CK?$CK?$CK?$CKException?$CK?$CK?$CK?$CK?3?5?$CFs?6@ 00000001800729f0     utdebug.obj
 0002:00019a10       ??_C@_0P@EABJFLFP@?$CFs?5?$CF8?48X?$CF8?48X?6@ 0000000180072a10     utdebug.obj
 0002:00019a20       AcpiGbl_NsProperties       0000000180072a20     utdecode.obj
 0002:00019a78       ??_C@_0N@OONKJJEO@SystemMemory@ 0000000180072a78     utdecode.obj
 0002:00019a88       ??_C@_08DMDBKLFO@SystemIO@ 0000000180072a88     utdecode.obj
 0002:00019a98       ??_C@_0L@LOMIMFPF@PCI_Config@ 0000000180072a98     utdecode.obj
 0002:00019aa8       ??_C@_0BA@NFJBDGLH@EmbeddedControl@ 0000000180072aa8     utdecode.obj
 0002:00019ab8       ??_C@_05DHBKIMF@SMBus@     0000000180072ab8     utdecode.obj
 0002:00019ac0       ??_C@_0L@GPNFCCML@SystemCMOS@ 0000000180072ac0     utdecode.obj
 0002:00019ad0       ??_C@_0N@GDMCCAHD@PCIBARTarget@ 0000000180072ad0     utdecode.obj
 0002:00019ae0       ??_C@_04POMKNHKH@IPMI@     0000000180072ae0     utdecode.obj
 0002:00019ae8       ??_C@_0BB@ELEFLBHL@GeneralPurposeIo@ 0000000180072ae8     utdecode.obj
 0002:00019b00       ??_C@_0BB@EFFJKECB@GenericSerialBus@ 0000000180072b00     utdecode.obj
 0002:00019b14       ??_C@_03LMDOAABO@PCC@      0000000180072b14     utdecode.obj
 0002:00019b18       ??_C@_0BE@KPJKLLLI@PlatformRtMechanism@ 0000000180072b18     utdecode.obj
 0002:00019b30       ??_C@_08JFMFIGPJ@PM_Timer@ 0000000180072b30     utdecode.obj
 0002:00019b40       ??_C@_0L@NBONFCEK@GlobalLock@ 0000000180072b40     utdecode.obj
 0002:00019b50       ??_C@_0M@EPOIIOFH@PowerButton@ 0000000180072b50     utdecode.obj
 0002:00019b60       ??_C@_0M@MAOKGMAO@SleepButton@ 0000000180072b60     utdecode.obj
 0002:00019b70       ??_C@_0O@LKEIMBPG@RealTimeClock@ 0000000180072b70     utdecode.obj
 0002:00019b80       ??_C@_07BMFBCABB@Untyped@  0000000180072b80     utdecode.obj
 0002:00019b88       ??_C@_07EDADKEAH@Integer@  0000000180072b88     utdecode.obj
 0002:00019b90       ??_C@_09BPDGJOEF@FieldUnit@ 0000000180072b90     utdecode.obj
 0002:00019b9c       ??_C@_05PMCMDMKN@Power@    0000000180072b9c     utdecode.obj
 0002:00019ba8       ??_C@_07GBNCFIAM@Thermal@  0000000180072ba8     utdecode.obj
 0002:00019bb0       ??_C@_0M@MGPMGKBB@BufferField@ 0000000180072bb0     utdecode.obj
 0002:00019bc0       ??_C@_09GHCIKEAC@DdbHandle@ 0000000180072bc0     utdecode.obj
 0002:00019bd0       ??_C@_0M@KADHOIH@DebugObject@ 0000000180072bd0     utdecode.obj
 0002:00019be0       ??_C@_0M@GFNHANLL@RegionField@ 0000000180072be0     utdecode.obj
 0002:00019bf0       ??_C@_09OGLAPBDF@Reference@ 0000000180072bf0     utdecode.obj
 0002:00019c00       ??_C@_0M@PGKBBJGF@MethodAlias@ 0000000180072c00     utdecode.obj
 0002:00019c10       ??_C@_0M@GCKIBDEG@AddrHandler@ 0000000180072c10     utdecode.obj
 0002:00019c20       ??_C@_0N@GBEKIEGD@ResourceDesc@ 0000000180072c20     utdecode.obj
 0002:00019c30       ??_C@_0M@FFJLPHKO@ResourceFld@ 0000000180072c30     utdecode.obj
 0002:00019c3c       ??_C@_05BHMELPJO@Extra@    0000000180072c3c     utdecode.obj
 0002:00019c44       ??_C@_04DICKPMGH@Data@     0000000180072c44     utdecode.obj
 0002:00019c50       ??_C@_07DJMIGIHO@Invalid@  0000000180072c50     utdecode.obj
 0002:00019c58       ??_C@_0BB@MGNNEEEF@Not?5a?5Descriptor@ 0000000180072c58     utdecode.obj
 0002:00019c70       ??_C@_0O@JDNCOJBB@Cached?5Object@ 0000000180072c70     utdecode.obj
 0002:00019c80       ??_C@_0O@OHAFELMH@State?9Generic@ 0000000180072c80     utdecode.obj
 0002:00019c90       ??_C@_0N@KHGNFCGL@State?9Update@ 0000000180072c90     utdecode.obj
 0002:00019ca0       ??_C@_0O@HIPCIIKE@State?9Package@ 0000000180072ca0     utdecode.obj
 0002:00019cb0       ??_C@_0O@BJKKMEDM@State?9Control@ 0000000180072cb0     utdecode.obj
 0002:00019cc0       ??_C@_0BF@PGOPJMNA@State?9RootParseScope@ 0000000180072cc0     utdecode.obj
 0002:00019cd8       ??_C@_0BB@KBKHIMPE@State?9ParseScope@ 0000000180072cd8     utdecode.obj
 0002:00019cf0       ??_C@_0BA@INAABEGI@State?9WalkScope@ 0000000180072cf0     utdecode.obj
 0002:00019d00       ??_C@_0N@HNIGKFEP@State?9Result@ 0000000180072d00     utdecode.obj
 0002:00019d10       ??_C@_0N@GMLFLPDP@State?9Notify@ 0000000180072d10     utdecode.obj
 0002:00019d20       ??_C@_0N@INKLHMIG@State?9Thread@ 0000000180072d20     utdecode.obj
 0002:00019d30       ??_C@_0BA@HLAOKLPD@Tree?5Walk?5State@ 0000000180072d30     utdecode.obj
 0002:00019d40       ??_C@_0O@JHBPGOKP@Parse?5Tree?5Op@ 0000000180072d40     utdecode.obj
 0002:00019d50       ??_C@_0P@INHEEMJ@Operand?5Object@ 0000000180072d50     utdecode.obj
 0002:00019d60       ??_C@_0P@GOFNEILF@Namespace?5Node@ 0000000180072d60     utdecode.obj
 0002:00019d70       ??_C@_05IEALKJIG@Local@    0000000180072d70     utdecode.obj
 0002:00019d78       ??_C@_08EPNEGKPE@Argument@ 0000000180072d78     utdecode.obj
 0002:00019d88       ??_C@_0N@HJKHKIGD@Named?5Object@ 0000000180072d88     utdecode.obj
 0002:00019d98       ??_C@_0BF@CCOKINDK@ACPI_MTX_Interpreter@ 0000000180072d98     utdecode.obj
 0002:00019db0       ??_C@_0BD@JOLKJKDM@ACPI_MTX_Namespace@ 0000000180072db0     utdecode.obj
 0002:00019dc8       ??_C@_0BA@DPLJHJIL@ACPI_MTX_Tables@ 0000000180072dc8     utdecode.obj
 0002:00019dd8       ??_C@_0BA@OFAOABAO@ACPI_MTX_Events@ 0000000180072dd8     utdecode.obj
 0002:00019de8       ??_C@_0BA@CPMCGFCM@ACPI_MTX_Caches@ 0000000180072de8     utdecode.obj
 0002:00019df8       ??_C@_0BA@CFANIHMA@ACPI_MTX_Memory@ 0000000180072df8     utdecode.obj
 0002:00019e08       ??_C@_09DBICONAL@Bus?5Check@ 0000000180072e08     utdecode.obj
 0002:00019e18       ??_C@_0N@NEJNEABK@Device?5Check@ 0000000180072e18     utdecode.obj
 0002:00019e28       ??_C@_0M@EILMLEPH@Device?5Wake@ 0000000180072e28     utdecode.obj
 0002:00019e38       ??_C@_0O@PFLLKEFE@Eject?5Request@ 0000000180072e38     utdecode.obj
 0002:00019e48       ??_C@_0BD@LHHHNCEG@Device?5Check?5Light@ 0000000180072e48     utdecode.obj
 0002:00019e60       ??_C@_0BD@LNLNEBKL@Frequency?5Mismatch@ 0000000180072e60     utdecode.obj
 0002:00019e78       ??_C@_0BC@HNKPKCNF@Bus?5Mode?5Mismatch@ 0000000180072e78     utdecode.obj
 0002:00019e90       ??_C@_0M@HDPIJNIN@Power?5Fault@ 0000000180072e90     utdecode.obj
 0002:00019ea0       ??_C@_0BD@KBFNKAEH@Capabilities?5Check@ 0000000180072ea0     utdecode.obj
 0002:00019eb8       ??_C@_0BB@NLAJEHDK@Device?5PLD?5Check@ 0000000180072eb8     utdecode.obj
 0002:00019ed0       ??_C@_08NKCLJDKG@Reserved@ 0000000180072ed0     utdecode.obj
 0002:00019ee0       ??_C@_0BH@DJMFMKMA@System?5Locality?5Update@ 0000000180072ee0     utdecode.obj
 0002:00019ef8       ??_C@_0CL@OIHINGLO@Reserved?5?$CIwas?5previously?5Shutdo@ 0000000180072ef8     utdecode.obj
 0002:00019f28       ??_C@_0CA@PPAJAPKG@System?5Resource?5Affinity?5Update@ 0000000180072f28     utdecode.obj
 0002:00019f48       ??_C@_0CH@DOKAOCEP@Heterogeneous?5Memory?5Attributes@ 0000000180072f48     utdecode.obj
 0002:00019f70       ??_C@_0BJ@FFLEHJLJ@Error?5Disconnect?5Recover@ 0000000180072f70     utdecode.obj
 0002:00019f90       ??_C@_0O@GJKKNCLJ@Status?5Change@ 0000000180072f90     utdecode.obj
 0002:00019fa0       ??_C@_0BD@JHKLALGB@Information?5Change@ 0000000180072fa0     utdecode.obj
 0002:00019fb8       ??_C@_0BH@CEKIBGCE@Device?9Specific?5Change@ 0000000180072fb8     utdecode.obj
 0002:00019fd0       ??_C@_0BO@KJGOKHBB@Performance?5Capability?5Change@ 0000000180072fd0     utdecode.obj
 0002:00019ff0       ??_C@_0P@CALPLAFF@C?9State?5Change@ 0000000180072ff0     utdecode.obj
 0002:0001a000       ??_C@_0BN@IFKFJEN@Throttling?5Capability?5Change@ 0000000180073000     utdecode.obj
 0002:0001a020       ??_C@_0BC@PNGMCELB@Guaranteed?5Change@ 0000000180073020     utdecode.obj
 0002:0001a038       ??_C@_0BC@JHBMBGAL@Minimum?5Excursion@ 0000000180073038     utdecode.obj
 0002:0001a050       ??_C@_0BG@JHIKPNKF@Thermal?5Status?5Change@ 0000000180073050     utdecode.obj
 0002:0001a068       ??_C@_0BK@CGIIHALG@Thermal?5Trip?5Point?5Change@ 0000000180073068     utdecode.obj
 0002:0001a088       ??_C@_0BL@EOCGKMFN@Thermal?5Device?5List?5Change@ 0000000180073088     utdecode.obj
 0002:0001a0a8       ??_C@_0BM@KKBODMLH@Thermal?5Relationship?5Change@ 00000001800730a8     utdecode.obj
 0002:0001a0c8       ??_C@_0N@KLAFDDAF@Unknown?5ARGP@ 00000001800730c8     utdecode.obj
 0002:0001a0d8       ??_C@_08BLGENEDP@ByteData@ 00000001800730d8     utdecode.obj
 0002:0001a0e8       ??_C@_08NMFKEHIA@ByteList@ 00000001800730e8     utdecode.obj
 0002:0001a0f8       ??_C@_08FAAFODDM@CharList@ 00000001800730f8     utdecode.obj
 0002:0001a108       ??_C@_0L@FEAFHDFL@DataObject@ 0000000180073108     utdecode.obj
 0002:0001a118       ??_C@_0P@JNADFIDI@DataObjectList@ 0000000180073118     utdecode.obj
 0002:0001a128       ??_C@_09HNLJNGDA@DWordData@ 0000000180073128     utdecode.obj
 0002:0001a138       ??_C@_09POKAHFKJ@FieldList@ 0000000180073138     utdecode.obj
 0002:0001a148       ??_C@_0L@DEADHHAJ@NameString@ 0000000180073148     utdecode.obj
 0002:0001a158       ??_C@_0L@LJLIKMAH@ObjectList@ 0000000180073158     utdecode.obj
 0002:0001a168       ??_C@_0O@MNICGKFH@PackageLength@ 0000000180073168     utdecode.obj
 0002:0001a178       ??_C@_09PLIKMDJP@SuperName@ 0000000180073178     utdecode.obj
 0002:0001a184       ??_C@_06FGANPIPG@Target@   0000000180073184     utdecode.obj
 0002:0001a190       ??_C@_07OLBGNPNI@TermArg@  0000000180073190     utdecode.obj
 0002:0001a198       ??_C@_08KHBHOPEI@TermList@ 0000000180073198     utdecode.obj
 0002:0001a1a8       ??_C@_08OPGLANDC@WordData@ 00000001800731a8     utdecode.obj
 0002:0001a1b8       ??_C@_09LMDOJMJM@QWordData@ 00000001800731b8     utdecode.obj
 0002:0001a1c8       ??_C@_0L@HBFJCEEI@SimpleName@ 00000001800731c8     utdecode.obj
 0002:0001a1d8       ??_C@_09CENNOKIA@NameOrRef@ 00000001800731d8     utdecode.obj
 0002:0001a1e8       ??_C@_0BC@CBCCECHK@UserDefinedRegion@ 00000001800731e8     utdecode.obj
 0002:0001a200       ??_C@_09DOMCPLLN@DataTable@ 0000000180073200     utdecode.obj
 0002:0001a210       ??_C@_0BC@CIHEPHDN@FunctionalFixedHW@ 0000000180073210     utdecode.obj
 0002:0001a228       ??_C@_0P@FEGPNIMB@InvalidSpaceId@ 0000000180073228     utdecode.obj
 0002:0001a238       ??_C@_0P@JDELEHKI@InvalidEventID@ 0000000180073238     utdecode.obj
 0002:0001a248       ??_C@_0BJ@JKPCGODJ@?$FLNULL?5Object?5Descriptor?$FN@ 0000000180073248     utdecode.obj
 0002:0001a268       ??_C@_0DD@KPCEFPDG@Invalid?5object?5descriptor?5type?3@ 0000000180073268     utdecode.obj
 0002:0001a2a0       ??_C@_0P@BDLKGDCN@Invalid?5object@ 00000001800732a0     utdecode.obj
 0002:0001a2b0       ??_C@_04HIBGFPH@NULL@      00000001800732b0     utdecode.obj
 0002:0001a2b8       ??_C@_04KNEKHCLA@?$CC?2?$CC?5@ 00000001800732b8     utdecode.obj
 0002:0001a2c0       ??_C@_04IJJJNCDO@?$CD?$CD?$CD?$CD@ 00000001800732c0     utdecode.obj
 0002:0001a2c8       ??_C@_0M@PDJGLEKK@NULL?5OBJECT@ 00000001800732c8     utdecode.obj
 0002:0001a2d8       ??_C@_0M@DIAAFDOE@NULL?5Object@ 00000001800732d8     utdecode.obj
 0002:0001a2e8       ??_C@_0BG@BMJMBLDD@Not?5an?5Operand?5object@ 00000001800732e8     utdecode.obj
 0002:0001a300       ??_C@_0BH@NEBHNPBE@Not?5a?5Reference?5object@ 0000000180073300     utdecode.obj
 0002:0001a318       ??_C@_0BI@IKEOHIML@Unknown?5Reference?5class@ 0000000180073318     utdecode.obj
 0002:0001a330       ??_C@_0BB@KBAIAOBL@Invalid?5Mutex?5ID@ 0000000180073330     utdecode.obj
 0002:0001a348       ??_C@_0CN@ENKKNKIJ@Target?5object?5type?5does?5not?5sup@ 0000000180073348     utdecode.obj
 0002:0001a378       ??_C@_0BA@PEENFGKF@Device?9Specific@ 0000000180073378     utdecode.obj
 0002:0001a388       ??_C@_0BC@GNLBPEPL@Hardware?9Specific@ 0000000180073388     utdecode.obj
 0002:0001a420       ??_C@_0BI@CIFJPNCM@?$CK?$CK?$CK?$CK?5String?5?$CFp?0?5ptr?5?$CFp?6@ 0000000180073420     utdelete.obj
 0002:0001a438       ??_C@_0BI@NFPNNNOI@?$CK?$CK?$CK?$CK?5Buffer?5?$CFp?0?5ptr?5?$CFp?6@ 0000000180073438     utdelete.obj
 0002:0001a450       ??_C@_0BL@BDDHDHEM@?5?$CK?$CK?$CK?$CK?5Package?5of?5count?5?$CFX?6@ 0000000180073450     utdelete.obj
 0002:0001a470       ??_C@_0BN@KNMOIKAJ@?$CK?$CK?$CK?$CK?$CK?5Mutex?5?$CFp?0?5OS?5Mutex?5?$CFp?6@ 0000000180073470     utdelete.obj
 0002:0001a490       ??_C@_0CB@ELIDAHBL@?$CK?$CK?$CK?$CK?$CK?5Event?5?$CFp?0?5OS?5Semaphore?5?$CFp@ 0000000180073490     utdelete.obj
 0002:0001a4b8       ??_C@_0BB@DKGBAGMJ@?$CK?$CK?$CK?$CK?$CK?5Method?5?$CFp?6@ 00000001800734b8     utdelete.obj
 0002:0001a4d0       ??_C@_0BB@PPBDGLII@?$CK?$CK?$CK?$CK?$CK?5Region?5?$CFp?6@ 00000001800734d0     utdelete.obj
 0002:0001a4e8       ??_C@_0DC@NLFJCENI@Circular?5region?5list?5in?5address@ 00000001800734e8     utdelete.obj
 0002:0001a520       ??_C@_0BH@NJFJHAJC@?$CK?$CK?$CK?$CK?$CK?5Buffer?5Field?5?$CFp?6@ 0000000180073520     utdelete.obj
 0002:0001a538       ??_C@_0BF@DOMHCBNH@?$CK?$CK?$CK?$CK?$CK?5Bank?5Field?5?$CFp?6@ 0000000180073538     utdelete.obj
 0002:0001a550       ??_C@_0BK@GPOHOLBG@?$CK?$CK?$CK?$CK?$CK?5Address?5handler?5?$CFp?6@ 0000000180073550     utdelete.obj
 0002:0001a570       ??_C@_0BL@LCEDCBNI@Deleting?5Object?5Subptr?5?$CFp?6@ 0000000180073570     utdelete.obj
 0002:0001a590       ??_C@_0BN@BIDDCKAG@?$CFs?3?5Deleting?5Object?5?$CFp?5?$FL?$CFs?$FN?6@ 0000000180073590     utdelete.obj
 0002:0001a5b0       ??_C@_0DD@KFBDDMOG@Obj?5?$CFp?0?5Reference?5Count?5was?5zer@ 00000001800735b0     utdelete.obj
 0002:0001a5e8       ??_C@_0CP@IHNBFBHL@Obj?5?$CFp?5Type?5?$CF?42X?5?$FL?$CFs?$FN?5Refs?5?$CF?42X@ 00000001800735e8     utdelete.obj
 0002:0001a618       ??_C@_0M@IBNEKOOJ@Incremement@ 0000000180073618     utdelete.obj
 0002:0001a628       ??_C@_0DL@LFJAOGFJ@Obj?5?$CFp?0?5Reference?5Count?5is?5alre@ 0000000180073628     utdelete.obj
 0002:0001a668       ??_C@_0CO@EINFBLIJ@?$CFs?3?5Obj?5?$CFp?5Type?5?$CF?42X?5Refs?5?$CF?42X?5@ 0000000180073668     utdelete.obj
 0002:0001a698       ??_C@_0CG@KOOBONAJ@Unknown?5Reference?5Count?5action?5@ 0000000180073698     utdelete.obj
 0002:0001a6c0       ??_C@_0EE@HFNBHJLO@Large?5Reference?5Count?5?$CI0x?$CFX?$CJ?5in@ 00000001800736c0     utdelete.obj
 0002:0001a708       ??_C@_0BI@FFINJFHA@Object?5?$CFp?5is?5NS?5handle?6@ 0000000180073708     utdelete.obj
 0002:0001a720       ??_C@_0CI@LJHIFPME@Could?5not?5update?5object?5referen@ 0000000180073720     utdelete.obj
 0002:0001a748       ??_C@_0CM@CDAFALEG@Obj?5?$CFp?5Current?5Refs?$DN?$CFX?5?$FLTo?5Be?5I@ 0000000180073748     utdelete.obj
 0002:0001a778       ??_C@_0DA@OCFFMJGG@?$CFs?3?5Obj?5?$CFp?5Current?5Refs?$DN?$CFX?5?$FLTo?5@ 0000000180073778     utdelete.obj
 0002:0001a7b0       ??_C@_0BD@CBKAMFOE@ACPI?5Warning?3?5?$CFs?3?5@ 00000001800737b0     uterror.obj
 0002:0001a7c8       ??_C@_0BA@IMDPOJBL@?5?$CI?$CF8?48X?1?$CFs?9?$CFu?$CJ?6@ 00000001800737c8     uterror.obj
 0002:0001a7d8       ??_C@_0L@HFNPLIOH@ACPI?3?5?$CFs?3?5@ 00000001800737d8     uterror.obj
 0002:0001a7e8       ??_C@_0BM@CPEGOPEI@Firmware?5Error?5?$CIACPI?$CJ?3?5?$CFs?3?5@ 00000001800737e8     uterror.obj
 0002:0001a808       ??_C@_0BI@JMEGFGNN@Firmware?5Error?5?$CIACPI?$CJ?3?5@ 0000000180073808     uterror.obj
 0002:0001a820       ??_C@_0BO@LNLDELAJ@Failure?5creating?5named?5object@ 0000000180073820     uterror.obj
 0002:0001a840       ??_C@_0BJ@CCOAMNBL@Could?5not?5resolve?5symbol@ 0000000180073840     uterror.obj
 0002:0001a860       ??_C@_0N@HFMBIKJA@ACPI?5Error?3?5@ 0000000180073860     uterror.obj
 0002:0001a870       ??_C@_0BJ@MDHLMCNN@Failure?5resolving?5symbol@ 0000000180073870     uterror.obj
 0002:0001a890       ??_C@_0BH@NMDKOKD@Could?5not?5get?5pathname@ 0000000180073890     uterror.obj
 0002:0001a8a8       ??_C@_0M@JOLDADFJ@?$CFs?5?$FL?$CFs?$FN?0?5?$CFs@ 00000001800738a8     uterror.obj
 0002:0001a8b8       ??_C@_0CB@LPJFGMAD@?$FLCould?5not?5get?5node?5by?5pathname@ 00000001800738b8     uterror.obj
 0002:0001a8e0       ??_C@_0BM@DCJOPBKE@?5due?5to?5previous?5error?5?$CI?$CFs?$CJ@ 00000001800738e0     uterror.obj
 0002:0001a960       ??_C@_0BK@ICHBPHDD@?$FL?$CF4?44s?4?$CFs?$FN?5was?5not?5found?6@ 0000000180073960     uteval.obj
 0002:0001a980       ??_C@_0BI@GMDGNDDG@Method?5execution?5failed@ 0000000180073980     uteval.obj
 0002:0001a998       ??_C@_0BM@PPNDLHBO@No?5object?5was?5returned?5from@ 0000000180073998     uteval.obj
 0002:0001a9b8       ??_C@_0CA@FDCHKJLL@Return?5object?5type?5is?5incorrect@ 00000001800739b8     uteval.obj
 0002:0001a9d8       ??_C@_0DP@JMCBJKHK@Type?5returned?5from?5?$CFs?5was?5incor@ 00000001800739d8     uteval.obj
 0002:0001aa18       ??_C@_0DJ@JEJCMACD@_STA?5on?5?$CF4?44s?5was?5not?5found?0?5as@ 0000000180073a18     uteval.obj
 0002:0001aa58       ??_C@_0BP@KJCJOPNB@Failed?5?$CFs?5on?5Device?5?$CF4?44s?0?5?$CFs?6@ 0000000180073a58     uteval.obj
 0002:0001adc8       ??_C@_05OBAPBDGL@AE_OK@    0000000180073dc8     utexcep.obj
 0002:0001add0       ??_C@_08OLPGJMLE@AE_ERROR@ 0000000180073dd0     utexcep.obj
 0002:0001ade0       ??_C@_0BC@JINIPNCM@AE_NO_ACPI_TABLES@ 0000000180073de0     utexcep.obj
 0002:0001adf8       ??_C@_0BA@HGCJFKIC@AE_NO_NAMESPACE@ 0000000180073df8     utexcep.obj
 0002:0001ae08       ??_C@_0N@MDFEEFMI@AE_NO_MEMORY@ 0000000180073e08     utexcep.obj
 0002:0001ae18       ??_C@_0N@EHNPHEEE@AE_NOT_FOUND@ 0000000180073e18     utexcep.obj
 0002:0001ae28       ??_C@_0N@FHHIIHCN@AE_NOT_EXIST@ 0000000180073e28     utexcep.obj
 0002:0001ae38       ??_C@_0BC@KJMMOBPP@AE_ALREADY_EXISTS@ 0000000180073e38     utexcep.obj
 0002:0001ae50       ??_C@_07OCFLOMK@AE_TYPE@   0000000180073e50     utexcep.obj
 0002:0001ae58       ??_C@_0P@LCAACJFD@AE_NULL_OBJECT@ 0000000180073e58     utexcep.obj
 0002:0001ae68       ??_C@_0O@KMMNEPLB@AE_NULL_ENTRY@ 0000000180073e68     utexcep.obj
 0002:0001ae78       ??_C@_0BD@FAHLAIFN@AE_BUFFER_OVERFLOW@ 0000000180073e78     utexcep.obj
 0002:0001ae90       ??_C@_0BC@FEOJPKCP@AE_STACK_OVERFLOW@ 0000000180073e90     utexcep.obj
 0002:0001aea8       ??_C@_0BD@MFEPEJKM@AE_STACK_UNDERFLOW@ 0000000180073ea8     utexcep.obj
 0002:0001aec0       ??_C@_0BD@IGFFMNIC@AE_NOT_IMPLEMENTED@ 0000000180073ec0     utexcep.obj
 0002:0001aed8       ??_C@_0L@LKIHBFJD@AE_SUPPORT@ 0000000180073ed8     utexcep.obj
 0002:0001aee8       ??_C@_08IBGEPHBC@AE_LIMIT@ 0000000180073ee8     utexcep.obj
 0002:0001aef8       ??_C@_07EKMCNJHG@AE_TIME@  0000000180073ef8     utexcep.obj
 0002:0001af00       ??_C@_0BE@FGDBKHMM@AE_ACQUIRE_DEADLOCK@ 0000000180073f00     utexcep.obj
 0002:0001af18       ??_C@_0BE@FOBDECPM@AE_RELEASE_DEADLOCK@ 0000000180073f18     utexcep.obj
 0002:0001af30       ??_C@_0BA@PPOMDOJD@AE_NOT_ACQUIRED@ 0000000180073f30     utexcep.obj
 0002:0001af40       ??_C@_0BE@HIPEDKOJ@AE_ALREADY_ACQUIRED@ 0000000180073f40     utexcep.obj
 0002:0001af58       ??_C@_0BI@KNLEMKLH@AE_NO_HARDWARE_RESPONSE@ 0000000180073f58     utexcep.obj
 0002:0001af70       ??_C@_0BC@JPCCIPIN@AE_NO_GLOBAL_LOCK@ 0000000180073f70     utexcep.obj
 0002:0001af88       ??_C@_0BA@PKLCJEBC@AE_ABORT_METHOD@ 0000000180073f88     utexcep.obj
 0002:0001af98       ??_C@_0BA@GDKIHKKP@AE_SAME_HANDLER@ 0000000180073f98     utexcep.obj
 0002:0001afa8       ??_C@_0O@PFOADCGB@AE_NO_HANDLER@ 0000000180073fa8     utexcep.obj
 0002:0001afb8       ??_C@_0BC@JGFDFDLG@AE_OWNER_ID_LIMIT@ 0000000180073fb8     utexcep.obj
 0002:0001afd0       ??_C@_0BC@PMNNBAHK@AE_NOT_CONFIGURED@ 0000000180073fd0     utexcep.obj
 0002:0001afe8       ??_C@_09FCELEONC@AE_ACCESS@ 0000000180073fe8     utexcep.obj
 0002:0001aff8       ??_C@_0M@BIPEGDFC@AE_IO_ERROR@ 0000000180073ff8     utexcep.obj
 0002:0001b008       ??_C@_0BE@GCBICNJK@AE_NUMERIC_OVERFLOW@ 0000000180074008     utexcep.obj
 0002:0001b020       ??_C@_0BA@JDMHIEGJ@AE_HEX_OVERFLOW@ 0000000180074020     utexcep.obj
 0002:0001b030       ??_C@_0BE@HHBGLENC@AE_DECIMAL_OVERFLOW@ 0000000180074030     utexcep.obj
 0002:0001b048       ??_C@_0BC@DKCJMEPN@AE_OCTAL_OVERFLOW@ 0000000180074048     utexcep.obj
 0002:0001b060       ??_C@_0BA@EAJEGCAK@AE_END_OF_TABLE@ 0000000180074060     utexcep.obj
 0002:0001b070       ??_C@_0BB@GGMNEPFA@AE_BAD_PARAMETER@ 0000000180074070     utexcep.obj
 0002:0001b088       ??_C@_0BB@FKHHEGKA@AE_BAD_CHARACTER@ 0000000180074088     utexcep.obj
 0002:0001b0a0       ??_C@_0BA@NBPLLLII@AE_BAD_PATHNAME@ 00000001800740a0     utexcep.obj
 0002:0001b0b0       ??_C@_0M@JECPJBCE@AE_BAD_DATA@ 00000001800740b0     utexcep.obj
 0002:0001b0c0       ??_C@_0BE@IPFKHDDI@AE_BAD_HEX_CONSTANT@ 00000001800740c0     utexcep.obj
 0002:0001b0d8       ??_C@_0BG@MIDKBGIL@AE_BAD_OCTAL_CONSTANT@ 00000001800740d8     utexcep.obj
 0002:0001b0f0       ??_C@_0BI@BEMEOOAI@AE_BAD_DECIMAL_CONSTANT@ 00000001800740f0     utexcep.obj
 0002:0001b108       ??_C@_0BF@HKJOKEC@AE_MISSING_ARGUMENTS@ 0000000180074108     utexcep.obj
 0002:0001b120       ??_C@_0P@JBCHJANB@AE_BAD_ADDRESS@ 0000000180074120     utexcep.obj
 0002:0001b130       ??_C@_0BB@HKCFDBKC@AE_BAD_SIGNATURE@ 0000000180074130     utexcep.obj
 0002:0001b148       ??_C@_0O@ELNDGGAE@AE_BAD_HEADER@ 0000000180074148     utexcep.obj
 0002:0001b158       ??_C@_0BA@BIILNBAK@AE_BAD_CHECKSUM@ 0000000180074158     utexcep.obj
 0002:0001b168       ??_C@_0N@HBAFKHEM@AE_BAD_VALUE@ 0000000180074168     utexcep.obj
 0002:0001b178       ??_C@_0BI@DKLNCMJF@AE_INVALID_TABLE_LENGTH@ 0000000180074178     utexcep.obj
 0002:0001b190       ??_C@_0BC@KGKLJMBP@AE_AML_BAD_OPCODE@ 0000000180074190     utexcep.obj
 0002:0001b1a8       ??_C@_0BC@ILAINBHF@AE_AML_NO_OPERAND@ 00000001800741a8     utexcep.obj
 0002:0001b1c0       ??_C@_0BE@CMBNMMAM@AE_AML_OPERAND_TYPE@ 00000001800741c0     utexcep.obj
 0002:0001b1d8       ??_C@_0BF@JPCFNMLI@AE_AML_OPERAND_VALUE@ 00000001800741d8     utexcep.obj
 0002:0001b1f0       ??_C@_0BL@BJKBHBGD@AE_AML_UNINITIALIZED_LOCAL@ 00000001800741f0     utexcep.obj
 0002:0001b210       ??_C@_0BJ@BDDHFJEF@AE_AML_UNINITIALIZED_ARG@ 0000000180074210     utexcep.obj
 0002:0001b230       ??_C@_0BN@INAHBINF@AE_AML_UNINITIALIZED_ELEMENT@ 0000000180074230     utexcep.obj
 0002:0001b250       ??_C@_0BI@COHNKOEN@AE_AML_NUMERIC_OVERFLOW@ 0000000180074250     utexcep.obj
 0002:0001b268       ??_C@_0BE@ODNDBIBN@AE_AML_REGION_LIMIT@ 0000000180074268     utexcep.obj
 0002:0001b280       ??_C@_0BE@NFHDHJIM@AE_AML_BUFFER_LIMIT@ 0000000180074280     utexcep.obj
 0002:0001b298       ??_C@_0BF@PAHJLGEL@AE_AML_PACKAGE_LIMIT@ 0000000180074298     utexcep.obj
 0002:0001b2b0       ??_C@_0BG@PJELJHDF@AE_AML_DIVIDE_BY_ZERO@ 00000001800742b0     utexcep.obj
 0002:0001b2c8       ??_C@_0BA@CIMDLPJI@AE_AML_BAD_NAME@ 00000001800742c8     utexcep.obj
 0002:0001b2d8       ??_C@_0BG@NBCCMIJD@AE_AML_NAME_NOT_FOUND@ 00000001800742d8     utexcep.obj
 0002:0001b2f0       ??_C@_0BA@JDIOKGCC@AE_AML_INTERNAL@ 00000001800742f0     utexcep.obj
 0002:0001b300       ??_C@_0BI@IGMDDMCI@AE_AML_INVALID_SPACE_ID@ 0000000180074300     utexcep.obj
 0002:0001b318       ??_C@_0BE@HOGNAHOK@AE_AML_STRING_LIMIT@ 0000000180074318     utexcep.obj
 0002:0001b330       ??_C@_0BH@OKOBGBEM@AE_AML_NO_RETURN_VALUE@ 0000000180074330     utexcep.obj
 0002:0001b348       ??_C@_0BE@DJLCLOMO@AE_AML_METHOD_LIMIT@ 0000000180074348     utexcep.obj
 0002:0001b360       ??_C@_0BB@OOHNPDEB@AE_AML_NOT_OWNER@ 0000000180074360     utexcep.obj
 0002:0001b378       ??_C@_0BD@BIFMCDBD@AE_AML_MUTEX_ORDER@ 0000000180074378     utexcep.obj
 0002:0001b390       ??_C@_0BK@FDAGLEMK@AE_AML_MUTEX_NOT_ACQUIRED@ 0000000180074390     utexcep.obj
 0002:0001b3b0       ??_C@_0BN@ONMIFGCB@AE_AML_INVALID_RESOURCE_TYPE@ 00000001800743b0     utexcep.obj
 0002:0001b3d0       ??_C@_0BF@KCCFIGMH@AE_AML_INVALID_INDEX@ 00000001800743d0     utexcep.obj
 0002:0001b3e8       ??_C@_0BG@GLGAPHBJ@AE_AML_REGISTER_LIMIT@ 00000001800743e8     utexcep.obj
 0002:0001b400       ??_C@_0BA@BJMBKDJP@AE_AML_NO_WHILE@ 0000000180074400     utexcep.obj
 0002:0001b410       ??_C@_0BB@PJHGPBLK@AE_AML_ALIGNMENT@ 0000000180074410     utexcep.obj
 0002:0001b428       ??_C@_0BL@EJHJMLPF@AE_AML_NO_RESOURCE_END_TAG@ 0000000180074428     utexcep.obj
 0002:0001b448       ??_C@_0BK@JPDPGMEO@AE_AML_BAD_RESOURCE_VALUE@ 0000000180074448     utexcep.obj
 0002:0001b468       ??_C@_0BK@NNHAJIBC@AE_AML_CIRCULAR_REFERENCE@ 0000000180074468     utexcep.obj
 0002:0001b488       ??_C@_0BL@GMFABCFD@AE_AML_BAD_RESOURCE_LENGTH@ 0000000180074488     utexcep.obj
 0002:0001b4a8       ??_C@_0BH@HMBGODKD@AE_AML_ILLEGAL_ADDRESS@ 00000001800744a8     utexcep.obj
 0002:0001b4c0       ??_C@_0BE@NCFBHLCM@AE_AML_LOOP_TIMEOUT@ 00000001800744c0     utexcep.obj
 0002:0001b4d8       ??_C@_0BK@KJMOJPMM@AE_AML_UNINITIALIZED_NODE@ 00000001800744d8     utexcep.obj
 0002:0001b4f8       ??_C@_0BD@GABIPGIC@AE_AML_TARGET_TYPE@ 00000001800744f8     utexcep.obj
 0002:0001b510       ??_C@_0BA@HFCOMJIC@AE_AML_PROTOCOL@ 0000000180074510     utexcep.obj
 0002:0001b520       ??_C@_0BF@MMGLEOH@AE_AML_BUFFER_LENGTH@ 0000000180074520     utexcep.obj
 0002:0001b538       ??_C@_0BF@GEIGFIMD@AE_CTRL_RETURN_VALUE@ 0000000180074538     utexcep.obj
 0002:0001b550       ??_C@_0BA@NFCAKKBE@AE_CTRL_PENDING@ 0000000180074550     utexcep.obj
 0002:0001b560       ??_C@_0BC@GMBKOLLO@AE_CTRL_TERMINATE@ 0000000180074560     utexcep.obj
 0002:0001b578       ??_C@_0N@KLLLBMCF@AE_CTRL_TRUE@ 0000000180074578     utexcep.obj
 0002:0001b588       ??_C@_0O@JKEFFNAO@AE_CTRL_FALSE@ 0000000180074588     utexcep.obj
 0002:0001b598       ??_C@_0O@IICDNKCK@AE_CTRL_DEPTH@ 0000000180074598     utexcep.obj
 0002:0001b5a8       ??_C@_0M@MCNHIAMO@AE_CTRL_END@ 00000001800745a8     utexcep.obj
 0002:0001b5b8       ??_C@_0BB@CKDICBC@AE_CTRL_TRANSFER@ 00000001800745b8     utexcep.obj
 0002:0001b5d0       ??_C@_0O@NKLNOHFA@AE_CTRL_BREAK@ 00000001800745d0     utexcep.obj
 0002:0001b5e0       ??_C@_0BB@IPPIFIGO@AE_CTRL_CONTINUE@ 00000001800745e0     utexcep.obj
 0002:0001b5f8       ??_C@_0BH@JBJBIHAH@AE_CTRL_PARSE_CONTINUE@ 00000001800745f8     utexcep.obj
 0002:0001b610       ??_C@_0BG@LNANKLIG@AE_CTRL_PARSE_PENDING@ 0000000180074610     utexcep.obj
 0002:0001b628       ??_C@_0CA@HAPNOHJM@Unknown?5exception?5code?3?50x?$CF8?48X@ 0000000180074628     utexcep.obj
 0002:0001b648       ??_C@_0BE@JENJPLOL@UNKNOWN_STATUS_CODE@ 0000000180074648     utexcep.obj
 0002:0001b660       AcpiGbl_LowerHexDigits     0000000180074660     utglobal.obj
 0002:0001b678       AcpiGbl_UpperHexDigits     0000000180074678     utglobal.obj
 0002:0001b690       AcpiGbl_PreDefinedNames    0000000180074690     utglobal.obj
 0002:0001b780       ??_C@_05EPMCMKIN@?2_S0_@   0000000180074780     utglobal.obj
 0002:0001b788       ??_C@_05EOAAKALK@?2_S1_@   0000000180074788     utglobal.obj
 0002:0001b790       ??_C@_05EMEGBOOD@?2_S2_@   0000000180074790     utglobal.obj
 0002:0001b798       ??_C@_05ENIEHENE@?2_S3_@   0000000180074798     utglobal.obj
 0002:0001b7a0       ??_C@_05EIMLGCFB@?2_S4_@   00000001800747a0     utglobal.obj
 0002:0001b7a8       ??_C@_05EJAJAIGG@?2_S5_@   00000001800747a8     utglobal.obj
 0002:0001b7b0       ??_C@_04ILLHNOLH@_S0W@     00000001800747b0     utglobal.obj
 0002:0001b7b8       ??_C@_04IKHFLEIA@_S1W@     00000001800747b8     utglobal.obj
 0002:0001b7c0       ??_C@_04IIDDAKNJ@_S2W@     00000001800747c0     utglobal.obj
 0002:0001b7c8       ??_C@_04IJPBGAOO@_S3W@     00000001800747c8     utglobal.obj
 0002:0001b7d0       ??_C@_04IMLOHGGL@_S4W@     00000001800747d0     utglobal.obj
 0002:0001b7d8       ??_C@_04OLJKPFBC@_S1D@     00000001800747d8     utglobal.obj
 0002:0001b7e0       ??_C@_04OJNMELEL@_S2D@     00000001800747e0     utglobal.obj
 0002:0001b7e8       ??_C@_04OIBOCBHM@_S3D@     00000001800747e8     utglobal.obj
 0002:0001b7f0       ??_C@_04ONFBDHPJ@_S4D@     00000001800747f0     utglobal.obj
 0002:0001b7f8       ??_C@_04GEOPKFIM@_GPE@     00000001800747f8     utglobal.obj
 0002:0001b800       ??_C@_04BKIIOEBP@_PR_@     0000000180074800     utglobal.obj
 0002:0001b808       ??_C@_04BEBLOIIB@_SB_@     0000000180074808     utglobal.obj
 0002:0001b810       ??_C@_04BIEOAHGA@_SI_@     0000000180074810     utglobal.obj
 0002:0001b818       ??_C@_04JLPJCCPA@_TZ_@     0000000180074818     utglobal.obj
 0002:0001b820       ??_C@_04HICKCCCI@_REV@     0000000180074820     utglobal.obj
 0002:0001b828       ??_C@_04BDDAMJOB@_OS_@     0000000180074828     utglobal.obj
 0002:0001b830       ??_C@_0BF@BPDEPEPO@Microsoft?5Windows?5NT@ 0000000180074830     utglobal.obj
 0002:0001b848       ??_C@_03FLKJCPLP@TOP@      0000000180074848     utglobal.obj
 0002:0001b84c       ??_C@_06PIOEPGCD@BOTTOM@   000000018007484c     utglobal.obj
 0002:0001b854       ??_C@_04KCNEHMIH@LEFT@     0000000180074854     utglobal.obj
 0002:0001b85c       ??_C@_05PMAFOJDE@RIGHT@    000000018007485c     utglobal.obj
 0002:0001b864       ??_C@_05LCELFLHH@FRONT@    0000000180074864     utglobal.obj
 0002:0001b86c       ??_C@_04FJBHJJME@BACK@     000000018007486c     utglobal.obj
 0002:0001b874       ??_C@_05BPLMHHIM@UPPER@    0000000180074874     utglobal.obj
 0002:0001b87c       ??_C@_06BFJFNKJK@CENTER@   000000018007487c     utglobal.obj
 0002:0001b884       ??_C@_05EEACBMDF@LOWER@    0000000180074884     utglobal.obj
 0002:0001b88c       ??_C@_05MHBKONGD@ROUND@    000000018007488c     utglobal.obj
 0002:0001b894       ??_C@_04CAIMHAPK@OVAL@     0000000180074894     utglobal.obj
 0002:0001b89c       ??_C@_06IGBBDGIE@SQUARE@   000000018007489c     utglobal.obj
 0002:0001b8a8       ??_C@_0BC@PAJIEIBE@VERTICALRECTANGLE@ 00000001800748a8     utglobal.obj
 0002:0001b8c0       ??_C@_0BE@OFGOADHN@HORIZONTALRECTANGLE@ 00000001800748c0     utglobal.obj
 0002:0001b8d8       ??_C@_0BC@FHNIJMJE@VERTICALTRAPEZOID@ 00000001800748d8     utglobal.obj
 0002:0001b8f0       ??_C@_0BE@ECCONHPN@HORIZONTALTRAPEZOID@ 00000001800748f0     utglobal.obj
 0002:0001b908       ??_C@_09GALGALE@CHAMFERED@ 0000000180074908     utglobal.obj
 0002:0001b970       ??_C@_04DGGABMGE@_HID@     0000000180074970     utids.obj
 0002:0001b978       ??_C@_04JEBDJDCG@_UID@     0000000180074978     utids.obj
 0002:0001b980       ??_C@_04OBGBJLGF@_CID@     0000000180074980     utids.obj
 0002:0001b988       ??_C@_04OCCJNNBI@_CLS@     0000000180074988     utids.obj
 0002:0001b9d0       ??_C@_0CF@PFGOBBPB@ACPI?5Subsystem?5is?5already?5termi@ 00000001800749d0     utinit.obj
 0002:0001b9f8       ??_C@_0BO@MADHHDNM@Shutting?5down?5ACPI?5Subsystem?6@ 00000001800749f8     utinit.obj
 0002:0001ba80       ??_C@_0P@FGOAMMID@Divide?5by?5zero@ 0000000180074a80     utmath.obj
 0002:0001baac       ??_C@_03COEKBGOL@OEM@      0000000180074aac     utmisc.obj
 0002:0001bab0       ??_C@_0O@CKHNGNL@Executing?5?5?5?5@ 0000000180074ab0     utmisc.obj
 0002:0001bac0       ??_C@_0O@MEAGLLM@Initializing?5@ 0000000180074ac0     utmisc.obj
 0002:0001bad0       ??_C@_09GGPFIMBK@?$CF?912s?5?5?$CFs@ 0000000180074ad0     utmisc.obj
 0002:0001badc       ??_C@_03KEMCFGNA@?4?$CFs@  0000000180074adc     utmisc.obj
 0002:0001bb58       ??_C@_0DA@MEDFHLAB@Mutex?5?$FL?$CFs?$FN?5already?5acquired?5by?5@ 0000000180074b58     utmutex.obj
 0002:0001bb88       ??_C@_0DH@DOOJKOBJ@Invalid?5acquire?5order?3?5Thread?5?$CF@ 0000000180074b88     utmutex.obj
 0002:0001bbc0       ??_C@_0CM@OEMBAEDA@Thread?5?$CFu?5attempting?5to?5acquire@ 0000000180074bc0     utmutex.obj
 0002:0001bbf0       ??_C@_0BP@IAHCOMCC@Thread?5?$CFu?5acquired?5Mutex?5?$FL?$CFs?$FN?6@ 0000000180074bf0     utmutex.obj
 0002:0001bc10       ??_C@_0CO@INCBPACH@Thread?5?$CFu?5could?5not?5acquire?5Mut@ 0000000180074c10     utmutex.obj
 0002:0001bc40       ??_C@_0CA@LAJIIJMN@Thread?5?$CFu?5releasing?5Mutex?5?$FL?$CFs?$FN?6@ 0000000180074c40     utmutex.obj
 0002:0001bc60       ??_C@_0DC@BJFIFFLH@Mutex?5?$FL?$CFs?$FN?5?$CI0x?$CFX?$CJ?5is?5not?5acquir@ 0000000180074c60     utmutex.obj
 0002:0001bc98       ??_C@_0DB@JIIDHAIC@Invalid?5release?5order?3?5owns?5?$FL?$CFs@ 0000000180074c98     utmutex.obj
 0002:0001bdd8       ??_C@_0BG@FEBPNMLJ@?$CK?$CK?$CK?$CK?5Null?5Object?5Ptr?6@ 0000000180074dd8     utobject.obj
 0002:0001bdf0       ??_C@_0CE@MMDCHCGM@?$CFp?5is?5not?5an?5ACPI?5operand?5obj?5?$FL@ 0000000180074df0     utobject.obj
 0002:0001be18       ??_C@_0CI@LPLJGHCI@Could?5not?5allocate?5an?5object?5de@ 0000000180074e18     utobject.obj
 0002:0001be40       ??_C@_0M@OPPAPEHO@?$CFp?5Size?5?$CFX?6@ 0000000180074e40     utobject.obj
 0002:0001be50       ??_C@_0CG@IOJJIBIA@?$CFp?5is?5not?5an?5ACPI?5Operand?5objec@ 0000000180074e50     utobject.obj
 0002:0001be80       ??_C@_0EG@DDJLELO@Received?5a?5namespace?5node?5?$FL?$CF4?44@ 0000000180074e80     utobject.obj
 0002:0001bed0       ??_C@_0FH@JOOFLFAH@Cannot?5convert?5to?5external?5obje@ 0000000180074ed0     utobject.obj
 0002:0001bf30       ??_C@_0EM@GBHMKOLP@Cannot?5convert?5to?5external?5obje@ 0000000180074f30     utobject.obj
 0002:0001bfa0       ??_C@_0N@MEKDBOKB@Windows?52000@ 0000000180074fa0     utosi.obj
 0002:0001bfb0       ??_C@_0N@NNLICPOA@Windows?52001@ 0000000180074fb0     utosi.obj
 0002:0001bfc0       ??_C@_0BB@IDIIGMHG@Windows?52001?5SP1@ 0000000180074fc0     utosi.obj
 0002:0001bfd8       ??_C@_0P@BCBHPFF@Windows?52001?41@ 0000000180074fd8     utosi.obj
 0002:0001bfe8       ??_C@_0BB@KIKFDPLF@Windows?52001?5SP2@ 0000000180074fe8     utosi.obj
 0002:0001c000       ??_C@_0BD@OKHOFDMC@Windows?52001?41?5SP1@ 0000000180075000     utosi.obj
 0002:0001c018       ??_C@_0N@JCPJLJCH@Windows?52006@ 0000000180075018     utosi.obj
 0002:0001c028       ??_C@_0P@JMPGEHOM@Windows?52006?41@ 0000000180075028     utosi.obj
 0002:0001c038       ??_C@_0BB@JOINFMMO@Windows?52006?5SP1@ 0000000180075038     utosi.obj
 0002:0001c050       ??_C@_0BB@LFKAAPAN@Windows?52006?5SP2@ 0000000180075050     utosi.obj
 0002:0001c068       ??_C@_0N@BFGBKFOI@Windows?52009@ 0000000180075068     utosi.obj
 0002:0001c078       ??_C@_0N@PHFHBGBE@Windows?52012@ 0000000180075078     utosi.obj
 0002:0001c088       ??_C@_0N@OOEMCHFF@Windows?52013@ 0000000180075088     utosi.obj
 0002:0001c098       ??_C@_0N@LIBGIAND@Windows?52015@ 0000000180075098     utosi.obj
 0002:0001c0a8       ??_C@_0N@JDDLNDBA@Windows?52016@ 00000001800750a8     utosi.obj
 0002:0001c0b8       ??_C@_0N@IKCAOCFB@Windows?52017@ 00000001800750b8     utosi.obj
 0002:0001c0c8       ??_C@_0P@DCAHFKPK@Windows?52017?42@ 00000001800750c8     utosi.obj
 0002:0001c0d8       ??_C@_0N@NLIPOJO@Windows?52018@ 00000001800750d8     utosi.obj
 0002:0001c0e8       ??_C@_0P@GKGEEKKM@Windows?52018?42@ 00000001800750e8     utosi.obj
 0002:0001c0f8       ??_C@_0N@BEKDMPNP@Windows?52019@ 00000001800750f8     utosi.obj
 0002:0001c108       ??_C@_0N@MHCHMKMP@Windows?52020@ 0000000180075108     utosi.obj
 0002:0001c118       ??_C@_0N@NODMPLIO@Windows?52021@ 0000000180075118     utosi.obj
 0002:0001c128       ??_C@_0N@PFBBKIEN@Windows?52022@ 0000000180075128     utosi.obj
 0002:0001c138       ??_C@_0CC@ONCHIMLP@Extended?5Address?5Space?5Descript@ 0000000180075138     utosi.obj
 0002:0001c160       ??_C@_0BC@NHHJCHCD@3?40?5Thermal?5Model@ 0000000180075160     utosi.obj
 0002:0001c178       ??_C@_0BE@CPPEEBBG@3?40?5_SCP?5Extensions@ 0000000180075178     utosi.obj
 0002:0001c18c       ??_C@_04LKOGMCLF@not?5@    000000018007518c     utosi.obj
 0002:0001c198       ??_C@_0CG@HBMDJHGF@ACPI?3?5BIOS?5_OSI?$CI?$CC?$CFs?$CC?$CJ?5is?5?$CFssupp@ 0000000180075198     utosi.obj
 0002:0001c200       ??_C@_0CC@FJGIFMF@Owner?5ID?5?$FL0x?$CF3?43X?$FN?5already?5exis@ 0000000180075200     utownerid.obj
 0002:0001c228       ??_C@_0BM@MEDFCJPE@Allocated?5OwnerId?3?50x?$CF3?43X?6@ 0000000180075228     utownerid.obj
 0002:0001c248       ??_C@_0DN@EAACMGEF@Could?5not?5allocate?5new?5OwnerId?5@ 0000000180075248     utownerid.obj
 0002:0001c288       ??_C@_0BJ@PHNODPAL@Invalid?5OwnerId?3?50x?$CF3?43X@ 0000000180075288     utownerid.obj
 0002:0001c2a8       ??_C@_0DE@CGCOLJEP@Attempted?5release?5of?5non?9alloca@ 00000001800752a8     utownerid.obj
 0002:0001c2e0       ??_C@_08JNGACCLC@?1Integer@ 00000001800752e0     utpredef.obj
 0002:0001c2f0       ??_C@_07JFMMPMPN@?1String@ 00000001800752f0     utpredef.obj
 0002:0001c2f8       ??_C@_07GJNKJAMD@?1Buffer@ 00000001800752f8     utpredef.obj
 0002:0001c300       ??_C@_08IKFDPLDN@?1Package@ 0000000180075300     utpredef.obj
 0002:0001c310       ??_C@_0L@HLNJFDLO@?1Reference@ 0000000180075310     utpredef.obj
 0002:0001c31c       ??_C@_04OKGDLNCL@NONE@     000000018007531c     utpredef.obj
 0002:0001c328       ??_C@_0N@EODHEGDH@NotBusMaster@ 0000000180075328     utresdecode.obj
 0002:0001c338       ??_C@_09PBJPCHNA@BusMaster@ 0000000180075338     utresdecode.obj
 0002:0001c348       ??_C@_0BH@DDCNODHC@0?5?9?5Good?5Configuration@ 0000000180075348     utresdecode.obj
 0002:0001c360       ??_C@_0BN@OFBEDEME@1?5?9?5Acceptable?5Configuration@ 0000000180075360     utresdecode.obj
 0002:0001c380       ??_C@_0BN@HLEAGCID@2?5?9?5Suboptimal?5Configuration@ 0000000180075380     utresdecode.obj
 0002:0001c3a0       ??_C@_0CA@OKNNMAG@3?5?9?5?$CK?$CK?$CKInvalid?5Configuration?$CK?$CK?$CK@ 00000001800753a0     utresdecode.obj
 0002:0001c3c0       ??_C@_0BB@IOBBNFFA@ResourceProducer@ 00000001800753c0     utresdecode.obj
 0002:0001c3d8       ??_C@_0BB@KEJJMBLK@ResourceConsumer@ 00000001800753d8     utresdecode.obj
 0002:0001c3f0       ??_C@_09GJKBAJC@PosDecode@ 00000001800753f0     utresdecode.obj
 0002:0001c400       ??_C@_09GEFCFCML@SubDecode@ 0000000180075400     utresdecode.obj
 0002:0001c40c       ??_C@_05KOHFLOFG@Level@    000000018007540c     utresdecode.obj
 0002:0001c414       ??_C@_04EIJIPNMI@Edge@     0000000180075414     utresdecode.obj
 0002:0001c420       ??_C@_08NLNKJDJK@Decode10@ 0000000180075420     utresdecode.obj
 0002:0001c430       ??_C@_08INIADEBM@Decode16@ 0000000180075430     utresdecode.obj
 0002:0001c440       ??_C@_0L@MCBFPCPF@ActiveHigh@ 0000000180075440     utresdecode.obj
 0002:0001c450       ??_C@_09EAEJECGC@ActiveLow@ 0000000180075450     utresdecode.obj
 0002:0001c460       ??_C@_0L@LDKOKIKB@ActiveBoth@ 0000000180075460     utresdecode.obj
 0002:0001c470       ??_C@_0M@PFLLEOPG@MaxNotFixed@ 0000000180075470     utresdecode.obj
 0002:0001c480       ??_C@_08FJMIOCDO@MaxFixed@ 0000000180075480     utresdecode.obj
 0002:0001c490       ??_C@_0N@DCPLEIF@NonCacheable@ 0000000180075490     utresdecode.obj
 0002:0001c4a0       ??_C@_09PANOEJCN@Cacheable@ 00000001800754a0     utresdecode.obj
 0002:0001c4b0       ??_C@_0P@DPKOBOJC@WriteCombining@ 00000001800754b0     utresdecode.obj
 0002:0001c4c0       ??_C@_0N@MACHJDDH@Prefetchable@ 00000001800754c0     utresdecode.obj
 0002:0001c4d0       ??_C@_0M@GFMIFOBM@MinNotFixed@ 00000001800754d0     utresdecode.obj
 0002:0001c4e0       ??_C@_08IOCDFAHP@MinFixed@ 00000001800754e0     utresdecode.obj
 0002:0001c4f0       ??_C@_0BD@BDGLIFND@AddressRangeMemory@ 00000001800754f0     utresdecode.obj
 0002:0001c508       ??_C@_0BF@MFCKAMHD@AddressRangeReserved@ 0000000180075508     utresdecode.obj
 0002:0001c520       ??_C@_0BB@GBIOPJGJ@AddressRangeACPI@ 0000000180075520     utresdecode.obj
 0002:0001c538       ??_C@_0BA@IDKFGBOE@AddressRangeNVS@ 0000000180075538     utresdecode.obj
 0002:0001c548       ??_C@_06IPBHAMPE@Type?5C@  0000000180075548     utresdecode.obj
 0002:0001c550       ??_C@_06MAFGJKDD@Type?5D@  0000000180075550     utresdecode.obj
 0002:0001c558       ??_C@_0N@PHCDDCGL@Unknown?5Type@ 0000000180075558     utresdecode.obj
 0002:0001c568       ??_C@_0O@LNDGEJMC@InvalidRanges@ 0000000180075568     utresdecode.obj
 0002:0001c578       ??_C@_0BB@PMDEKMHC@NonISAOnlyRanges@ 0000000180075578     utresdecode.obj
 0002:0001c590       ??_C@_0O@OAOEAOEB@ISAOnlyRanges@ 0000000180075590     utresdecode.obj
 0002:0001c5a0       ??_C@_0M@HNCOJGIK@EntireRange@ 00000001800755a0     utresdecode.obj
 0002:0001c5b0       ??_C@_08NNJHJJDA@ReadOnly@ 00000001800755b0     utresdecode.obj
 0002:0001c5c0       ??_C@_09ELBNKBMD@ReadWrite@ 00000001800755c0     utresdecode.obj
 0002:0001c5d0       ??_C@_09NGKKIOIN@Exclusive@ 00000001800755d0     utresdecode.obj
 0002:0001c5dc       ??_C@_06LOOAMPBO@Shared@   00000001800755dc     utresdecode.obj
 0002:0001c5e8       ??_C@_0BB@MKJBPPB@ExclusiveAndWake@ 00000001800755e8     utresdecode.obj
 0002:0001c600       ??_C@_0O@PKFMDFJN@SharedAndWake@ 0000000180075600     utresdecode.obj
 0002:0001c610       ??_C@_09GCMBDHAD@Transfer8@ 0000000180075610     utresdecode.obj
 0002:0001c620       ??_C@_0N@EBPJONAP@Transfer8_16@ 0000000180075620     utresdecode.obj
 0002:0001c630       ??_C@_0L@BPKGDKHH@Transfer16@ 0000000180075630     utresdecode.obj
 0002:0001c640       ??_C@_0M@OJHDOHIP@InvalidSize@ 0000000180075640     utresdecode.obj
 0002:0001c650       ??_C@_0BB@BNIGFJDL@DenseTranslation@ 0000000180075650     utresdecode.obj
 0002:0001c668       ??_C@_0BC@FCIGGALF@SparseTranslation@ 0000000180075668     utresdecode.obj
 0002:0001c680       ??_C@_0L@PFLMDOON@TypeStatic@ 0000000180075680     utresdecode.obj
 0002:0001c690       ??_C@_0BA@OKOOMABE@TypeTranslation@ 0000000180075690     utresdecode.obj
 0002:0001c6a0       ??_C@_0O@KKDFABMD@Compatibility@ 00000001800756a0     utresdecode.obj
 0002:0001c6b0       ??_C@_05OBKBEBBA@TypeA@    00000001800756b0     utresdecode.obj
 0002:0001c6b8       ??_C@_05MKIMBCND@TypeB@    00000001800756b8     utresdecode.obj
 0002:0001c6c0       ??_C@_05KOOANHNH@TypeF@    00000001800756c0     utresdecode.obj
 0002:0001c6c8       ??_C@_0M@BOHBMIJE@PullDefault@ 00000001800756c8     utresdecode.obj
 0002:0001c6d4       ??_C@_06HCNDBCBO@PullUp@   00000001800756d4     utresdecode.obj
 0002:0001c6e0       ??_C@_08NIMCPNED@PullDown@ 00000001800756e0     utresdecode.obj
 0002:0001c6f0       ??_C@_08GCHBKENG@PullNone@ 00000001800756f0     utresdecode.obj
 0002:0001c700       ??_C@_0BC@JHJIKBHI@IoRestrictionNone@ 0000000180075700     utresdecode.obj
 0002:0001c718       ??_C@_0BH@CEOEGAJC@IoRestrictionInputOnly@ 0000000180075718     utresdecode.obj
 0002:0001c730       ??_C@_0BI@EGKAGIPN@IoRestrictionOutputOnly@ 0000000180075730     utresdecode.obj
 0002:0001c748       ??_C@_0BN@DHBGLNKA@IoRestrictionNoneAndPreserve@ 0000000180075748     utresdecode.obj
 0002:0001c768       ??_C@_09BDHHGKJL@Width8bit@ 0000000180075768     utresdecode.obj
 0002:0001c778       ??_C@_0L@FPOAOLF@Width16bit@ 0000000180075778     utresdecode.obj
 0002:0001c788       ??_C@_0L@LNLGAJHO@Width32bit@ 0000000180075788     utresdecode.obj
 0002:0001c798       ??_C@_0L@GCDLGNGN@Width64bit@ 0000000180075798     utresdecode.obj
 0002:0001c7a8       ??_C@_0M@NKJACHKB@Width128bit@ 00000001800757a8     utresdecode.obj
 0002:0001c7b8       ??_C@_0M@EJENLDOF@Width256bit@ 00000001800757b8     utresdecode.obj
 0002:0001c7c8       ??_C@_09JNFEIGJE@Interrupt@ 00000001800757c8     utresdecode.obj
 0002:0001c7d8       ??_C@_0BO@NCGGAMEE@?1?$CK?5UNKNOWN?5serial?5bus?5type?5?$CK?1@ 00000001800757d8     utresdecode.obj
 0002:0001c7f8       ??_C@_03MEBMBKGM@I2C@      00000001800757f8     utresdecode.obj
 0002:0001c7fc       ??_C@_03EKAEFKFD@SPI@      00000001800757fc     utresdecode.obj
 0002:0001c800       ??_C@_04FLGJBFIP@UART@     0000000180075800     utresdecode.obj
 0002:0001c808       ??_C@_04GNANGIAJ@CSI2@     0000000180075808     utresdecode.obj
 0002:0001c810       ??_C@_0BD@EACBDCDK@AddressingMode7Bit@ 0000000180075810     utresdecode.obj
 0002:0001c828       ??_C@_0BE@LLJJAMNM@AddressingMode10Bit@ 0000000180075828     utresdecode.obj
 0002:0001c840       ??_C@_0BE@MAGIICIO@ControllerInitiated@ 0000000180075840     utresdecode.obj
 0002:0001c858       ??_C@_0BA@HMMCPAEA@DeviceInitiated@ 0000000180075858     utresdecode.obj
 0002:0001c868       ??_C@_0N@KEMHOABB@FourWireMode@ 0000000180075868     utresdecode.obj
 0002:0001c878       ??_C@_0O@PEAEGONP@ThreeWireMode@ 0000000180075878     utresdecode.obj
 0002:0001c888       ??_C@_0BA@LILPFIDL@ClockPhaseFirst@ 0000000180075888     utresdecode.obj
 0002:0001c898       ??_C@_0BB@KEPIPLHO@ClockPhaseSecond@ 0000000180075898     utresdecode.obj
 0002:0001c8b0       ??_C@_0BB@LABGLIPM@ClockPolarityLow@ 00000001800758b0     utresdecode.obj
 0002:0001c8c8       ??_C@_0BC@NFFCBDEM@ClockPolarityHigh@ 00000001800758c8     utresdecode.obj
 0002:0001c8e0       ??_C@_0M@JNKDKGGA@PolarityLow@ 00000001800758e0     utresdecode.obj
 0002:0001c8f0       ??_C@_0N@CMMGHJDN@PolarityHigh@ 00000001800758f0     utresdecode.obj
 0002:0001c900       ??_C@_0N@ENHIKFIG@LittleEndian@ 0000000180075900     utresdecode.obj
 0002:0001c910       ??_C@_09BAOOGEIH@BigEndian@ 0000000180075910     utresdecode.obj
 0002:0001c920       ??_C@_0N@DNKMKJDO@DataBitsFive@ 0000000180075920     utresdecode.obj
 0002:0001c930       ??_C@_0M@LAKAPGJB@DataBitsSix@ 0000000180075930     utresdecode.obj
 0002:0001c940       ??_C@_0O@KMMJIJAC@DataBitsSeven@ 0000000180075940     utresdecode.obj
 0002:0001c950       ??_C@_0O@OMOGNMPH@DataBitsEight@ 0000000180075950     utresdecode.obj
 0002:0001c960       ??_C@_0N@BPOJBADH@DataBitsNine@ 0000000180075960     utresdecode.obj
 0002:0001c970       ??_C@_0BM@PDDIHMEN@?1?$CK?5UNKNOWN?5Bits?5per?5byte?5?$CK?1@ 0000000180075970     utresdecode.obj
 0002:0001c990       ??_C@_0N@DHPILPGE@StopBitsZero@ 0000000180075990     utresdecode.obj
 0002:0001c9a0       ??_C@_0M@JDJICEPI@StopBitsOne@ 00000001800759a0     utresdecode.obj
 0002:0001c9b0       ??_C@_0BE@CPGMNCHE@StopBitsOnePlusHalf@ 00000001800759b0     utresdecode.obj
 0002:0001c9c8       ??_C@_0M@PNJIIEBD@StopBitsTwo@ 00000001800759c8     utresdecode.obj
 0002:0001c9d8       ??_C@_0BA@KAOGDKCB@FlowControlNone@ 00000001800759d8     utresdecode.obj
 0002:0001c9e8       ??_C@_0BE@GFKFJOFN@FlowControlHardware@ 00000001800759e8     utresdecode.obj
 0002:0001ca00       ??_C@_0P@JLLKGDG@FlowControlXON@ 0000000180075a00     utresdecode.obj
 0002:0001ca10       ??_C@_0CD@CGEFFKCJ@?1?$CK?5UNKNOWN?5flow?5control?5keyword@ 0000000180075a10     utresdecode.obj
 0002:0001ca38       ??_C@_0P@GKCGMKLG@ParityTypeNone@ 0000000180075a38     utresdecode.obj
 0002:0001ca48       ??_C@_0P@NPEGNFJI@ParityTypeEven@ 0000000180075a48     utresdecode.obj
 0002:0001ca58       ??_C@_0O@OFDELBMI@ParityTypeOdd@ 0000000180075a58     utresdecode.obj
 0002:0001ca68       ??_C@_0P@EGOGLAMP@ParityTypeMark@ 0000000180075a68     utresdecode.obj
 0002:0001ca78       ??_C@_0BA@DLPENCGD@ParityTypeSpace@ 0000000180075a78     utresdecode.obj
 0002:0001ca88       ??_C@_0BN@MCJFCGBP@?1?$CK?5UNKNOWN?5parity?5keyword?5?$CK?1@ 0000000180075a88     utresdecode.obj
 0002:0001caa8       ??_C@_0N@HBKLMDEN@Bias?5Pull?9up@ 0000000180075aa8     utresdecode.obj
 0002:0001cab8       ??_C@_0P@LIIABCOO@Bias?5Pull?9down@ 0000000180075ab8     utresdecode.obj
 0002:0001cac8       ??_C@_0N@MOKNPNDD@Bias?5Default@ 0000000180075ac8     utresdecode.obj
 0002:0001cad8       ??_C@_0N@MEABEIFJ@Bias?5Disable@ 0000000180075ad8     utresdecode.obj
 0002:0001cae8       ??_C@_0BE@GKGIGKNH@Bias?5High?5Impedance@ 0000000180075ae8     utresdecode.obj
 0002:0001cb00       ??_C@_0O@BJPNGBFI@Bias?5Bus?5Hold@ 0000000180075b00     utresdecode.obj
 0002:0001cb10       ??_C@_0BB@OKHMDILD@Drive?5Open?5Drain@ 0000000180075b10     utresdecode.obj
 0002:0001cb28       ??_C@_0BC@ENJJMAGG@Drive?5Open?5Source@ 0000000180075b28     utresdecode.obj
 0002:0001cb40       ??_C@_0BA@DLFLDKIK@Drive?5Push?5Pull@ 0000000180075b40     utresdecode.obj
 0002:0001cb50       ??_C@_0P@HBEBMCGB@Drive?5Strength@ 0000000180075b50     utresdecode.obj
 0002:0001cb60       ??_C@_09MIFCMOJN@Slew?5Rate@ 0000000180075b60     utresdecode.obj
 0002:0001cb70       ??_C@_0P@JCHGPLOB@Input?5Debounce@ 0000000180075b70     utresdecode.obj
 0002:0001cb80       ??_C@_0BG@HPLMPBOP@Input?5Schmitt?5Trigger@ 0000000180075b80     utresdecode.obj
 0002:0001cb98       ??_C@_05OCBIINAK@Fixed@    0000000180075b98     utresdecode.obj
 0002:0001cba0       ??_C@_08DMMJCAML@Variable@ 0000000180075ba0     utresdecode.obj
 0002:0001cbac       ??_C@_02KLOHGLOJ@Hz@       0000000180075bac     utresdecode.obj
 0002:0001cbb0       ??_C@_03DJPHLCNL@KHz@      0000000180075bb0     utresdecode.obj
 0002:0001cbb4       ??_C@_03BMJMONAH@MHz@      0000000180075bb4     utresdecode.obj
 0002:0001cbb8       AcpiGbl_ResourceAmlSizes   0000000180075bb8     utresrc.obj
 0002:0001cbdc       AcpiGbl_ResourceAmlSerialBusSizes 0000000180075bdc     utresrc.obj
 0002:0001cc50       ??_C@_0ED@JNDBAKCD@Invalid?1unsupported?5SerialBus?5r@ 0000000180075c50     utresrc.obj
 0002:0001cca0       ??_C@_0FE@DFBDBKNE@Invalid?5resource?5descriptor?5len@ 0000000180075ca0     utresrc.obj
 0002:0001cd00       ??_C@_0CH@OMHDEAOL@Invalid?5zero?5ID?5from?5AcpiOsGetT@ 0000000180075d00     utstate.obj
 0002:0001cd48       ??_C@_0BE@LENJFIFF@?$DM?$CCNULL?5STRING?5PTR?$CC?$DO@ 0000000180075d48     utstring.obj
 0002:0001cd5c       ??_C@_02BJPOKLNP@?2a@      0000000180075d5c     utstring.obj
 0002:0001cd60       ??_C@_02DCNDPIBM@?2b@      0000000180075d60     utstring.obj
 0002:0001cd64       ??_C@_02FGLPDNBI@?2f@      0000000180075d64     utstring.obj
 0002:0001cd68       ??_C@_02JOGGLHBA@?2n@      0000000180075d68     utstring.obj
 0002:0001cd6c       ??_C@_02HIBBOKEN@?2r@      0000000180075d6c     utstring.obj
 0002:0001cd70       ??_C@_02COELENML@?2t@      0000000180075d70     utstring.obj
 0002:0001cd74       ??_C@_02BMHNCPEJ@?2v@      0000000180075d74     utstring.obj
 0002:0001cd78       ??_C@_0DM@JMNCDLJL@Invalid?5character?$CIs?$CJ?5in?5name?5?$CI0@ 0000000180075d78     utstring.obj
 0002:0001cdb8       ??_C@_0DJ@CGJFAAPD@Invalid?5character?$CIs?$CJ?5in?5name?5?$CI0@ 0000000180075db8     utstring.obj
 0002:0001ceb8       ??_C@_0DC@NBAKLNAD@Attempt?5to?5allocate?5zero?5bytes?0@ 0000000180075eb8     uttrack.obj
 0002:0001cef0       ??_C@_0CB@MEOJBAKC@Attempt?5to?5delete?5a?5NULL?5addres@ 0000000180075ef0     uttrack.obj
 0002:0001cf18       ??_C@_0BG@MJIDFDAB@Could?5not?5free?5memory@ 0000000180075f18     uttrack.obj
 0002:0001cf30       ??_C@_0BF@CBFHHIPC@?$CFp?5freed?5?$CIblock?5?$CFp?$CJ?6@ 0000000180075f30     uttrack.obj
 0002:0001cf50       ??_C@_0ED@GPHFKGOL@UtTrackAllocation?3?5Allocation?5?$CI@ 0000000180075f50     uttrack.obj
 0002:0001cf98       ??_C@_0CI@JGGEJHGA@Empty?5allocation?5list?0?5nothing?5@ 0000000180075f98     uttrack.obj
 0002:0001cfc0       ??_C@_0BG@NLIJKOPC@Freeing?5?$CFp?0?5size?50?$CFX?6@ 0000000180075fc0     uttrack.obj
 0002:0001cfd8       ??_C@_0DN@HGMHOIKP@?$CFp?5Length?50x?$CF04X?5?$CF9?49s?9?$CF4?44u?5?$FLN@ 0000000180075fd8     uttrack.obj
 0002:0001d018       ??_C@_0CD@BGKCHPJA@?$CFp?5Length?50x?$CF04X?5?$CF9?49s?9?$CF4?44u?5?$FL?$CF@ 0000000180076018     uttrack.obj
 0002:0001d040       ??_C@_0BK@NMFLJPIK@?$CF12?412s?5?5RefCount?50x?$CF04X?6@ 0000000180076040     uttrack.obj
 0002:0001d060       ??_C@_0BC@LBNBKDEH@AmlOpcode?50x?$CF04X?6@ 0000000180076060     uttrack.obj
 0002:0001d078       ??_C@_0BL@CMEOKKHD@No?5outstanding?5allocations@ 0000000180076078     uttrack.obj
 0002:0001d098       ??_C@_0CI@ENNFBNJ@?$CFu?5?$CI0x?$CFX?$CJ?5Outstanding?5cache?5all@ 0000000180076098     uttrack.obj
 0002:0001d0c0       AcpiGbl_MapToUuidOffset    00000001800760c0     utuuid.obj
 0002:0001d130       ??_C@_0BB@HHBECIGO@ACPI?5Error?3?5?$CFs?0?5@ 0000000180076130     utxferror.obj
 0002:0001d148       ??_C@_0P@HCHEAOAD@ACPI?5Warning?3?5@ 0000000180076148     utxferror.obj
 0002:0001d158       ??_C@_06GLFELKBG@ACPI?3?5@ 0000000180076158     utxferror.obj
 0002:0001d160       ??_C@_0BM@DHONDAIK@Firmware?5Error?5?$CIACPI?$CJ?3?5?$CFs?0?5@ 0000000180076160     utxferror.obj
 0002:0001d180       ??_C@_0BK@EPGCPCHP@Firmware?5Warning?5?$CIACPI?$CJ?3?5@ 0000000180076180     utxferror.obj
 0002:0001d1f8       ??_C@_0BK@KDJJJGBA@During?5OSL?5initialization@ 00000001800761f8     utxfinit.obj
 0002:0001d218       ??_C@_0CB@LHBBHJHF@During?5initialization?5of?5global@ 0000000180076218     utxfinit.obj
 0002:0001d240       ??_C@_0BN@OFPAOEPE@During?5Global?5Mutex?5creation@ 0000000180076240     utxfinit.obj
 0002:0001d260       ??_C@_0CA@PEIMBDCI@During?5Namespace?5initialization@ 0000000180076260     utxfinit.obj
 0002:0001d280       ??_C@_0CF@KKGBOOJC@During?5OSI?5interfaces?5initializ@ 0000000180076280     utxfinit.obj
 0002:0001d2a8       ??_C@_0BN@LHJILNC@Could?5not?5map?5the?5FACS?5table@ 00000001800762a8     utxfinit.obj
 0002:0001d2c8       ??_C@_0BN@HBHHKCPP@?$FLInit?$FN?5Going?5into?5ACPI?5mode?6@ 00000001800762c8     utxfinit.obj
 0002:0001d2e8       ??_C@_0BC@CJOGEGEM@AcpiEnable?5failed@ 00000001800762e8     utxfinit.obj
 0002:0001d300       ??_C@_0CB@HMNPAKIG@?$FLInit?$FN?5Initializing?5ACPI?5events@ 0000000180076300     utxfinit.obj
 0002:0001d328       ??_C@_0CD@BDOGJEGD@?$FLInit?$FN?5Installing?5SCI?1GL?5handle@ 0000000180076328     utxfinit.obj
 0002:0001d35c       ??_C@_04KHHOGGIJ@?$CF1c?5@ 000000018007635c     osgendbg.obj
 0002:0001d368       ??_C@_0DB@MDODPNKB@Could?5not?5allocate?5buffer?5for?5w@ 0000000180076368     oswindir.obj
 0002:0001d39c       ??_C@_01KMDKNFGN@?1@       000000018007639c     oswindir.obj
 0002:0001d3a8       ??_C@_0BI@PGMJHKLJ@Bad?5width?5parameter?3?5?$CFX@ 00000001800763a8     oswinxf.obj
 0002:0001d3d0       ??_C@_0CK@BCIEGKJE@ACPI?5Exec?3?5Exception?5?$CFs?5during?5@ 00000001800763d0     aeexception.obj
 0002:0001d400       ??_C@_0CP@NOLCKDCA@ACPI?5Exec?3?5Evaluating?5executabl@ 0000000180076400     aeexception.obj
 0002:0001d430       ??_C@_0CP@LJBAEMCK@ACPI?5Exec?3?5Evaluating?5Method?5or@ 0000000180076430     aeexception.obj
 0002:0001d460       ??_C@_0CI@CHBFAGNA@ACPI?5Exec?3?5Aborting?5loop?5after?5@ 0000000180076460     aeexception.obj
 0002:0001d488       ??_C@_0DD@NGMEIOCB@?6ACPI?5Exec?3?5AML?5Opcode?5?$FL?$CFs?$FN?0?5Me@ 0000000180076488     aeexception.obj
 0002:0001d4bc       ??_C@_05MEENKDMN@?2_ERR@   00000001800764bc     aeexception.obj
 0002:0001d4c8       ??_C@_0CO@OJJOFJCK@ACPI?5Exec?3?5Could?5not?5execute?5_E@ 00000001800764c8     aeexception.obj
 0002:0001d4f8       ??_C@_0CP@FCDNMHHL@ACPI?5Exec?3?5Exception?5override?0?5@ 00000001800764f8     aeexception.obj
 0002:0001d528       ??_C@_0N@CJJADLCO@?6ACPI?5Exec?3?5@ 0000000180076528     aeexception.obj
 0002:0001d538       ??_C@_0N@DKPBFPL@?$DMControl?9C?$DO?6@ 0000000180076538     aeexception.obj
 0002:0001d548       ??_C@_0CH@CLDNAJBI@ACPI?5Exec?3?5Control?5Method?5Call?5@ 0000000180076548     aeexception.obj
 0002:0001d570       ??_C@_0BE@DILONHLC@Segmentation?5Fault?6@ 0000000180076570     aeexception.obj
 0002:0001d588       ??_C@_0BE@COMOEIAI@Unknown?5Signal?0?5?$CFX?6@ 0000000180076588     aeexception.obj
 0002:0001d5a0       ??_C@_0BI@GIDLAGDE@ACPI?5Exec?3?5Terminating?6@ 00000001800765a0     aeexception.obj
 0002:0001d5b8       ??_C@_0CD@JDCOMPBK@ACPI?5Exec?3?5No?5method?5is?5executi@ 00000001800765b8     aeexception.obj
 0002:0001d5e0       ??_C@_0CB@PIFIHMPL@ACPI?5Exec?3?5Executing?5Method?3?5?$CFs@ 00000001800765e0     aeexception.obj
 0002:0001d608       ??_C@_0CJ@HDCBFFEO@ACPI?5Exec?3?5Evaluating?5deferred?5@ 0000000180076608     aeexception.obj
 0002:0001d638       ??_C@_0DJ@HPNFOIEF@ACPI?5Exec?3?5Current?5AML?5Opcode?5i@ 0000000180076638     aeexception.obj
 0002:0001d67c       ??_C@_05MNLMBBKJ@?2_CFG@   000000018007667c     aeexec.obj
 0002:0001d688       ??_C@_0O@HDNNKLAB@AcpiGetHandle@ 0000000180076688     aeexec.obj
 0002:0001d698       ??_C@_0BP@GDAAFIPK@Unexpected?5?$CFs?5from?5?$CFs?5?$CI?$CFs?9?$CFd?$CJ?6@ 0000000180076698     aeexec.obj
 0002:0001d6b8       ??_C@_05IPIOAGHB@?2GPE2@   00000001800766b8     aeexec.obj
 0002:0001d6c0       ??_C@_0BE@FPBPMMAD@AcpiInstallGpeBlock@ 00000001800766c0     aeexec.obj
 0002:0001d6d8       ??_C@_0BG@POFGNKPM@AcpiInstallGpeHandler@ 00000001800766d8     aeexec.obj
 0002:0001d6f0       ??_C@_0O@MGBOMEHH@AcpiEnableGpe@ 00000001800766f0     aeexec.obj
 0002:0001d700       ??_C@_0BB@HIEOGHPC@AcpiGetGpeDevice@ 0000000180076700     aeexec.obj
 0002:0001d718       ??_C@_0BF@JFBPIGFM@AcpiRemoveGpeHandler@ 0000000180076718     aeexec.obj
 0002:0001d730       ??_C@_05JGJFDHDA@?2GPE3@   0000000180076730     aeexec.obj
 0002:0001d738       ??_C@_04DJHHLOEG@?2BUF@    0000000180076738     aeexec.obj
 0002:0001d740       ??_C@_0BC@DIBJGAKO@Top?9level?5package@ 0000000180076740     aeexec.obj
 0002:0001d754       ??_C@_04CPMKADPB@XXXX@     0000000180076754     aeexec.obj
 0002:0001d760       ??_C@_0P@JCDLJFFI@Nested?5Package@ 0000000180076760     aeexec.obj
 0002:0001d770       ??_C@_05IHMIHKIL@?2_PKG@   0000000180076770     aeexec.obj
 0002:0001d778       ??_C@_05DAEOCAE@?2_OSI@    0000000180076778     aeexec.obj
 0002:0001d780       ??_C@_0CD@NCDPLGJI@Could?5not?5execute?5_OSI?5method?0?5@ 0000000180076780     aeexec.obj
 0002:0001d7a8       ??_C@_0CP@CPLJBJFE@Return?5value?5from?5_OSI?5method?5t@ 00000001800767a8     aeexec.obj
 0002:0001d7d8       ??_C@_0CM@LKFJOFOA@Invalid?5return?5type?5from?5_OSI?5m@ 00000001800767d8     aeexec.obj
 0002:0001d810       ??_C@_0EG@OMGDNBHF@Invalid?5return?5value?5from?5_OSI?0@ 0000000180076810     aeexec.obj
 0002:0001d858       ??_C@_08ELEHEBNK@AcpiRead@ 0000000180076858     aeexec.obj
 0002:0001d868       ??_C@_09CFFILCNH@AcpiWrite@ 0000000180076868     aeexec.obj
 0002:0001d8d0       ??_C@_09DGJDINFF@UNINSTALL@ 00000001800768d0     aehandlers.obj
 0002:0001d8dc       ??_C@_06JIODDOFH@System@   00000001800768dc     aehandlers.obj
 0002:0001d8f0       ??_C@_0EO@NMIEGBGF@ACPI?5Exec?3?5Handler?5?$CFu?3?5Received@ 00000001800768f0     aehandlers.obj
 0002:0001d940       ??_C@_0DM@NAGIPJD@ACPI?5Exec?3?5Handler?5?$CFu?3?5Received@ 0000000180076940     aehandlers.obj
 0002:0001d97c       ??_C@_04FNEECNFL@_NOT@     000000018007697c     aehandlers.obj
 0002:0001d990       ??_C@_0FB@FGFJKPEB@ACPI?5Exec?3?5Global?3?5?5?5?5Received?5@ 0000000180076990     aehandlers.obj
 0002:0001d9e8       ??_C@_0DP@NLCBDGN@ACPI?5Exec?3?5Global?3?5?5?5?5Received?5@ 00000001800769e8     aehandlers.obj
 0002:0001da30       ??_C@_0FB@LODPJDOC@ACPI?5Exec?3?5Global?3?5?5?5?5Received?5@ 0000000180076a30     aehandlers.obj
 0002:0001da88       ??_C@_0DP@DAIKOGJF@ACPI?5Exec?3?5Global?3?5?5?5?5Received?5@ 0000000180076a88     aehandlers.obj
 0002:0001dac8       ??_C@_0BC@FBJPBBCG@AcpiUpdateAllGpes@ 0000000180076ac8     aehandlers.obj
 0002:0001dae0       ??_C@_0CH@FNDONCNM@ACPI?5Exec?3?5Table?5Event?5?$CFs?0?5?$FL?$CF4?4@ 0000000180076ae0     aehandlers.obj
 0002:0001db08       ??_C@_04GEICCHBP@FADT@     0000000180076b08     aehandlers.obj
 0002:0001db10       ??_C@_0DM@KLDEGINJ@ACPI?5Exec?3?5GPE?5Handler?5received@ 0000000180076b10     aehandlers.obj
 0002:0001db50       ??_C@_0L@HBLMGLI@FixedEvent@ 0000000180076b50     aehandlers.obj
 0002:0001db60       ??_C@_0EG@MEDEOCHJ@ACPI?5Exec?3?5Global?5Event?5Handler@ 0000000180076b60     aehandlers.obj
 0002:0001dba8       ??_C@_0DK@PEBHOOEO@Received?5an?5attached?5data?5delet@ 0000000180076ba8     aehandlers.obj
 0002:0001dbe8       ??_C@_0DK@IDIJDMLO@Received?5an?5attached?5data?5delet@ 0000000180076be8     aehandlers.obj
 0002:0001dc28       ??_C@_0CG@FMLMCJBL@Received?5_OSI?5?$CI?$CC?$CFs?$CC?$CJ?0?5is?5?$CFssupp@ 0000000180076c28     aehandlers.obj
 0002:0001dc50       ??_C@_0CH@PCLHNBDI@ACPI?5Exec?3?5Received?5an?5SCI?5at?5h@ 0000000180076c50     aehandlers.obj
 0002:0001dc78       ??_C@_0CF@MNDLBEMD@Could?5not?5install?5an?5SCI?5handle@ 0000000180076c78     aehandlers.obj
 0002:0001dca0       ??_C@_0CA@IBGKALLK@Could?5not?5remove?5an?5SCI?5handler@ 0000000180076ca0     aehandlers.obj
 0002:0001dcc0       ??_C@_0CF@MPHNKKJK@Could?5not?5install?5an?5SCI?5handle@ 0000000180076cc0     aehandlers.obj
 0002:0001dce8       ??_C@_08OGPBPLCI@?2_TZ?4TZ1@ 0000000180076ce8     aehandlers.obj
 0002:0001dcf8       ??_C@_0BJ@OKHOMEMI@AcpiInstallNotifyHandler@ 0000000180076cf8     aehandlers.obj
 0002:0001dd18       ??_C@_09KPBDOHGF@?2_PR?4CPU0@ 0000000180076d18     aehandlers.obj
 0002:0001dd28       ??_C@_0BE@NHONPDOF@AeInstallSciHandler@ 0000000180076d28     aehandlers.obj
 0002:0001dd40       ??_C@_0BN@KIBCIBAF@AcpiInstallFixedEventHandler@ 0000000180076d40     aehandlers.obj
 0002:0001dd60       ??_C@_0CJ@OEHFKPAB@Could?5not?5install?5interface?5han@ 0000000180076d60     aehandlers.obj
 0002:0001dd90       ??_C@_0CF@JJPKNDEK@Could?5not?5install?5table?5handler@ 0000000180076d90     aehandlers.obj
 0002:0001ddb8       ??_C@_0CJ@NNJAMCAD@Could?5not?5install?5exception?5han@ 0000000180076db8     aehandlers.obj
 0002:0001dde8       ??_C@_0DG@PMMNNODG@Could?5not?5install?5a?5global?5syst@ 0000000180076de8     aehandlers.obj
 0002:0001de20       ??_C@_0CP@FOBHFJHN@Could?5not?5install?5a?5global?5noti@ 0000000180076e20     aehandlers.obj
 0002:0001de50       ??_C@_0CI@LGBLHLHO@Could?5not?5install?5a?5notify?5hand@ 0000000180076e50     aehandlers.obj
 0002:0001de78       ??_C@_0CH@NECBLPJE@Could?5not?5remove?5a?5notify?5handl@ 0000000180076e78     aehandlers.obj
 0002:0001dea0       ??_C@_0BI@CKAIHCKP@AcpiRemoveNotifyHandler@ 0000000180076ea0     aehandlers.obj
 0002:0001deb8       ??_C@_0P@KCPLCCJJ@AcpiAttachData@ 0000000180076eb8     aehandlers.obj
 0002:0001dec8       ??_C@_0P@BLMAGEAN@AcpiDetachData@ 0000000180076ec8     aehandlers.obj
 0002:0001ded8       ??_C@_0BD@JOOEGNLM@No?5_SB_?5found?0?5?$CFs?6@ 0000000180076ed8     aehandlers.obj
 0002:0001df18       ??_C@_01KDCPPGHE@r@        0000000180076f18     aeinitfile.obj
 0002:0001df20       ??_C@_0CI@EKEMGDLC@Could?5not?5open?5initialization?5f@ 0000000180076f20     aeinitfile.obj
 0002:0001df48       ??_C@_0CB@FNEANPEK@Opened?5initialization?5file?5?$FL?$CFs?$FN@ 0000000180076f48     aeinitfile.obj
 0002:0001df70       ??_C@_0M@NFKDGPJN@?$CFs?$FL?$CFs?$FN?3?5?$CFs?6@ 0000000180076f70     aeinitfile.obj
 0002:0001df80       ??_C@_0DM@HPFOJLIE@Namespace?5object?5init?5from?5file@ 0000000180076f80     aeinitfile.obj
 0002:0001dfc0       ??_C@_0M@NLPJMEAE@Lookup?3?5?$CFs?6@ 0000000180076fc0     aeinitfile.obj
 0002:0001dfd0       ??_C@_0BF@DJNDIKPI@Found?5match?3?5?$CFs?0?5?$CFp?6@ 0000000180076fd0     aeinitfile.obj
 0002:0001dfe8       ??_C@_0BE@KIOFCBBO@No?5match?5found?3?5?$CFs?6@ 0000000180076fe8     aeinitfile.obj
 0002:0001e000       ??_C@_0EE@NCIGIDAB@Init?5file?5entry?5not?5found?5in?5na@ 0000000180077000     aeinitfile.obj
 0002:0001e058       ??_C@_0DH@EKOBEFIH@Could?5not?5install?5an?5OpRegion?5h@ 0000000180077058     aeinstall.obj
 0002:0001e090       ??_C@_0DC@IAGCEEDJ@Failed?5to?5obtain?5_EVT?5method?5fo@ 0000000180077090     aeinstall.obj
 0002:0001e0c8       ??_C@_0BB@OOHBEGA@Interrupt?5ID?5?$CFd?6@ 00000001800770c8     aeinstall.obj
 0002:0001e0e0       ??_C@_0BC@IPFHGPMB@Resource?5type?5?$CFX?6@ 00000001800770e0     aeinstall.obj
 0002:0001e0f8       ??_C@_0DJ@EFHNEDCE@Could?5not?5install?5an?5OpRegion?5h@ 00000001800770f8     aeinstall.obj
 0002:0001e138       ??_C@_0DK@PNKCPNB@Could?5not?5install?5an?5OpRegion?5h@ 0000000180077138     aeinstall.obj
 0002:0001e180       ??_C@_0CJ@BMIKPLMC@acpiexec?5?$FLoptions?$FN?5AMLfile1?5AML@ 0000000180077180     aemain.obj
 0002:0001e1b0       ??_C@_0BE@GIAJDAGE@Usage?3?5?$CFs?6Options?3?6@ 00000001800771b0     aemain.obj
 0002:0001e1c8       ??_C@_0DC@GBPFAEH@Batch?5mode?5command?5line?5executi@ 00000001800771c8     aemain.obj
 0002:0001e200       ??_C@_0BB@NKJELACO@?9b?5?$CCCommandLine?$CC@ 0000000180077200     aemain.obj
 0002:0001e218       ??_C@_0L@EJOMDKDJ@?5?5?$CF?920s?$CFs?6@ 0000000180077218     aemain.obj
 0002:0001e228       ??_C@_0BK@FLNHOIOF@Display?5this?5help?5message@ 0000000180077228     aemain.obj
 0002:0001e244       ??_C@_05JEDECEIJ@?9h?5?9?$DP@ 0000000180077244     aemain.obj
 0002:0001e250       ??_C@_0CK@LNJMLPBC@Batch?5mode?5method?5execution?4?5De@ 0000000180077250     aemain.obj
 0002:0001e280       ??_C@_0M@FHMHIEFH@?9m?5?$FLMethod?$FN@ 0000000180077280     aemain.obj
 0002:0001e290       ??_C@_0BO@PJEGBNIJ@Disable?5method?5abort?5on?5error@ 0000000180077290     aemain.obj
 0002:0001e2b0       ??_C@_03LPNLGOBK@?9da@     00000001800772b0     aemain.obj
 0002:0001e2b8       ??_C@_0BM@MMJHIAON@Disable?5Local?5fault?5handler@ 00000001800772b8     aemain.obj
 0002:0001e2d4       ??_C@_03PAJKPINN@?9df@     00000001800772d4     aemain.obj
 0002:0001e2d8       ??_C@_0DB@GKKBCPDJ@Disable?5execution?5of?5STA?1INI?5me@ 00000001800772d8     aemain.obj
 0002:0001e30c       ??_C@_03HHACOEBC@?9di@     000000018007730c     aemain.obj
 0002:0001e310       ??_C@_0CM@BBCMKCMD@Disable?5Operation?5Region?5addres@ 0000000180077310     aemain.obj
 0002:0001e33c       ??_C@_03CBFIEDJE@?9do@     000000018007733c     aemain.obj
 0002:0001e340       ??_C@_0CH@NLLLLLAK@Disable?5repair?5of?5method?5return@ 0000000180077340     aemain.obj
 0002:0001e368       ??_C@_03NODECPII@?9dr@     0000000180077368     aemain.obj
 0002:0001e370       ??_C@_0CC@FHAKNDFF@Disable?5method?5auto?9serializati@ 0000000180077370     aemain.obj
 0002:0001e394       ??_C@_03MHCPBOMJ@?9ds@     0000000180077394     aemain.obj
 0002:0001e398       ??_C@_0CK@LFCCFELJ@Disable?5allocation?5tracking?5?$CIpe@ 0000000180077398     aemain.obj
 0002:0001e3c4       ??_C@_03IIGOIIAO@?9dt@     00000001800773c4     aemain.obj
 0002:0001e3c8       ??_C@_0CF@COJMCIMN@Enable?5timer?5output?5for?5Debug?5O@ 00000001800773c8     aemain.obj
 0002:0001e3f0       ??_C@_03MDGOPAGI@?9ed@     00000001800773f0     aemain.obj
 0002:0001e3f8       ??_C@_0CK@MHGDHIBF@Enable?5display?5of?5final?5memory?5@ 00000001800773f8     aemain.obj
 0002:0001e424       ??_C@_03PBFIJCOK@?9ef@     0000000180077424     aemain.obj
 0002:0001e428       ??_C@_0CO@IFEBMGCO@Enable?5additional?5tests?5for?5ACP@ 0000000180077428     aemain.obj
 0002:0001e458       ??_C@_03HGMAIOCF@?9ei@     0000000180077458     aemain.obj
 0002:0001e460       ??_C@_0CJ@KDIPAHEP@Enable?5loading?5of?5additional?5te@ 0000000180077460     aemain.obj
 0002:0001e48c       ??_C@_03LLHHKGA@?9el@      000000018007748c     aemain.obj
 0002:0001e490       ??_C@_0BN@MELBOFCF@Enable?5object?5evaluation?5log@ 0000000180077490     aemain.obj
 0002:0001e4b0       ??_C@_03CAJKCJKD@?9eo@     00000001800774b0     aemain.obj
 0002:0001e4b8       ??_C@_0BO@MPELIFME@Enable?5Interpreter?5Slack?5Mode@ 00000001800774b8     aemain.obj
 0002:0001e4d8       ??_C@_03MGONHEPO@?9es@     00000001800774d8     aemain.obj
 0002:0001e4e0       ??_C@_0BP@MJCDFINO@Enable?5debug?5semaphore?5timeout@ 00000001800774e0     aemain.obj
 0002:0001e500       ??_C@_03IJKMOCDJ@?9et@     0000000180077500     aemain.obj
 0002:0001e508       ??_C@_0CG@EJHCCOEP@Specify?5namespace?5initializatio@ 0000000180077508     aemain.obj
 0002:0001e530       ??_C@_0L@FAPGMEDL@?9fi?5?$DMFile?$DO@ 0000000180077530     aemain.obj
 0002:0001e540       ??_C@_0CL@MCAGFOAO@Operation?5Region?5initialization@ 0000000180077540     aemain.obj
 0002:0001e570       ??_C@_0M@JNEGFGJF@?9fv?5?$DMValue?$DO@ 0000000180077570     aemain.obj
 0002:0001e580       ??_C@_0BP@JHPBKIJO@Load?5tables?5and?5namespace?5only@ 0000000180077580     aemain.obj
 0002:0001e5a0       ??_C@_02PJGDNHPF@?9l@      00000001800775a0     aemain.obj
 0002:0001e5a8       ??_C@_0BN@FOKKHLAO@Use?5hardware?9reduced?5FADT?5V5@ 00000001800775a8     aemain.obj
 0002:0001e5c8       ??_C@_02CNCCOICK@?9r@      00000001800775c8     aemain.obj
 0002:0001e5d0       ??_C@_0DA@HAGMCDKD@Exit?5loop?5on?5timeout?5instead?5of@ 00000001800775d0     aemain.obj
 0002:0001e600       ??_C@_03MHJBAIGO@?9te@     0000000180077600     aemain.obj
 0002:0001e608       ??_C@_0CH@EDCDAHJP@Set?5timeout?5period?5for?5AML?5whil@ 0000000180077608     aemain.obj
 0002:0001e630       ??_C@_0O@JFBONKCG@?9to?5?$DMSeconds?$DO@ 0000000180077630     aemain.obj
 0002:0001e640       ??_C@_0BM@PFCLPAEM@Display?5version?5information@ 0000000180077640     aemain.obj
 0002:0001e65c       ??_C@_02EJEOCNCO@?9v@      000000018007765c     aemain.obj
 0002:0001e660       ??_C@_0CJ@BLJJIBDE@Display?5verbose?5dump?5of?5any?5mem@ 0000000180077660     aemain.obj
 0002:0001e68c       ??_C@_03KAHJBJAE@?9va@     000000018007768c     aemain.obj
 0002:0001e690       ??_C@_0BM@BPPIBEBA@Display?5build?5date?5and?5time@ 0000000180077690     aemain.obj
 0002:0001e6ac       ??_C@_03NNAOONEB@?9vd@     00000001800776ac     aemain.obj
 0002:0001e6b0       ??_C@_0CB@IPJFCNBJ@Verbose?5exception?5handler?5outpu@ 00000001800776b0     aemain.obj
 0002:0001e6d4       ??_C@_03HBLLKCEN@?9vh@     00000001800776d4     aemain.obj
 0002:0001e6d8       ??_C@_0BO@DBPKMDAJ@Verbose?5initialization?5output@ 00000001800776d8     aemain.obj
 0002:0001e6f8       ??_C@_03GIKAJDAM@?9vi@     00000001800776f8     aemain.obj
 0002:0001e700       ??_C@_0BO@KNHBKKOD@Verbose?5region?5handler?5output@ 0000000180077700     aemain.obj
 0002:0001e720       ??_C@_03MBJGFIJG@?9vr@     0000000180077720     aemain.obj
 0002:0001e728       ??_C@_0BD@DLEHNDM@Debug?5output?5level@ 0000000180077728     aemain.obj
 0002:0001e740       ??_C@_0BA@JCFNEAKK@?9x?5?$DMDebugLevel?$DO@ 0000000180077740     aemain.obj
 0002:0001e750       ??_C@_0GL@PPFPMIFP@?6?5?5From?5within?5the?5interactive?5@ 0000000180077750     aemain.obj
 0002:0001e7c0       ??_C@_0BH@DCLJKDFJ@?$DPb?3d?3e?3f?$FOghlm?$FOrt?$FOv?$FO?3x?3@ 00000001800777c0     aemain.obj
 0002:0001e7d8       ??_C@_0DM@MOEOKGGG@?$CK?$CK?$CK?$CK?5The?5length?5of?5command?5line@ 00000001800777d8     aemain.obj
 0002:0001e818       ??_C@_0BG@GLCEINI@Unknown?5option?3?5?9d?$CFs?6@ 0000000180077818     aemain.obj
 0002:0001e830       ??_C@_0CF@MALINOIB@Enabling?5AML?5Interpreter?5slack?5@ 0000000180077830     aemain.obj
 0002:0001e858       ??_C@_0BG@DLNCGBGI@Unknown?5option?3?5?9e?$CFs?6@ 0000000180077858     aemain.obj
 0002:0001e870       ??_C@_0BG@HMHCBLLI@Unknown?5option?3?5?9f?$CFs?6@ 0000000180077870     aemain.obj
 0002:0001e888       ??_C@_04KLKHHPIG@MAIN@     0000000180077888     aemain.obj
 0002:0001e890       ??_C@_0DJ@NDMKLGBL@Using?5ACPI?55?40?5Hardware?5Reduced@ 0000000180077890     aemain.obj
 0002:0001e8d0       ??_C@_0CA@DHDLONEP@?$CFs?3?5Invalid?5loop?5timeout?5value?6@ 00000001800778d0     aemain.obj
 0002:0001e8f0       ??_C@_0CJ@FFHOCOBG@Automatic?5loop?5timeout?5after?5?$CFu@ 00000001800778f0     aemain.obj
 0002:0001e920       ??_C@_0BG@GGFCNPFK@Unknown?5option?3?5?9t?$CFs?6@ 0000000180077920     aemain.obj
 0002:0001e938       ??_C@_08DMMOJKOH@19?320?350@ 0000000180077938     aemain.obj
 0002:0001e948       ??_C@_0M@GIDHFNMN@Oct?527?52024@ 0000000180077948     aemain.obj
 0002:0001e958       ??_C@_0BI@PDHHDADA@Build?5date?1time?3?5?$CFs?5?$CFs?6@ 0000000180077958     aemain.obj
 0002:0001e970       ??_C@_0BG@BMJCIMDK@Unknown?5option?3?5?9v?$CFs?6@ 0000000180077970     aemain.obj
 0002:0001e988       ??_C@_0BG@CKJDKIH@Debug?5Level?3?50x?$CF8?48X?6@ 0000000180077988     aemain.obj
 0002:0001e9a0       ??_C@_0BI@BCLANMEH@AcpiInitializeSubsystem@ 00000001800779a0     aemain.obj
 0002:0001e9b8       ??_C@_0BH@EOLJFDMI@AcpiInitializeDebugger@ 00000001800779b8     aemain.obj
 0002:0001e9d0       ??_C@_0CM@HKLJCLCP@Copyright?5?$CIc?$CJ?52000?5?9?52023?5Intel@ 00000001800779d0     aemain.obj
 0002:0001ea00       ??_C@_0BM@JILHDCCD@AML?5Execution?1Debug?5Utility@ 0000000180077a00     aemain.obj
 0002:0001ea20       ??_C@_0CC@GEMNFFHD@Intel?5ACPI?5Component?5Architectu@ 0000000180077a20     aemain.obj
 0002:0001ea48       ??_C@_0BK@GCKDLEMI@?6?$CFs?6?$CFs?5version?5?$CF8?48X?6?$CFs?6?6@ 0000000180077a48     aemain.obj
 0002:0001ea68       ??_C@_0CI@EHIAJJPJ@?$CK?$CK?$CK?$CK?5Could?5not?5install?5ACPI?5tab@ 0000000180077a68     aemain.obj
 0002:0001ea90       ??_C@_0CF@BCKOKIJP@?$CK?$CK?$CK?$CK?5Could?5not?5load?5ACPI?5tables@ 0000000180077a90     aemain.obj
 0002:0001eab8       ??_C@_0CE@CEEHIEHC@?$CK?$CK?$CK?$CK?5Could?5not?5EnableSubsystem?0@ 0000000180077ab8     aemain.obj
 0002:0001eae0       ??_C@_0CG@LEMKHHMM@?$CK?$CK?$CK?$CK?5Could?5not?5InitializeObject@ 0000000180077ae0     aemain.obj
 0002:0001eb28       ??_C@_0DM@JKOAMCKL@Region?5handler?5received?5incorre@ 0000000180077b28     aeregion.obj
 0002:0001eb70       ??_C@_0EK@EPEEJPPK@Operation?5Region?5request?5on?5?$CFs?5@ 0000000180077b70     aeregion.obj
 0002:0001ebc0       ??_C@_0P@OBPKFPEJ@AcpiHwReadPort@ 0000000180077bc0     aeregion.obj
 0002:0001ebd0       ??_C@_0BA@PDJJGKH@AcpiHwWritePort@ 0000000180077bd0     aeregion.obj
 0002:0001ebe0       ??_C@_0DB@JKBPJIPO@AcpiExec?3?5Invalid?5SMbus?1GSbus?5p@ 0000000180077be0     aeregion.obj
 0002:0001ec14       ??_C@_05NBPIDCFL@Write@    0000000180077c14     aeregion.obj
 0002:0001ec1c       ??_C@_05HGJNIKF@Read?5@    0000000180077c1c     aeregion.obj
 0002:0001ec30       ??_C@_0FE@MHGKKJFG@AcpiExec?3?5?$CFs?5?$CFs?3?5Attr?5?$CFX?5Addr?5?$CF@ 0000000180077c30     aeregion.obj
 0002:0001ec88       ??_C@_0CD@MOCIJMII@?5?$FLAccessLength?5?$CF?42X?5Connection?5@ 0000000180077c88     aeregion.obj
 0002:0001ecb0       ??_C@_0FA@LGAMHLEL@AcpiExec?3?5IPMI?5?$CFs?3?5Attr?5?$CFX?5Addr@ 0000000180077cb0     aeregion.obj
 0002:0001ed00       ??_C@_0DP@NCFMAHIM@AcpiExec?3?5GPIO?5?$CFs?3?5Address?5?$CF?44X@ 0000000180077d00     aeregion.obj
 0002:0001ed40       ??_C@_0CK@PGNMBJB@AcpiExec?3?5PCC?5Write?5?3?5Addr?5?$CF?44X@ 0000000180077d40     aeregion.obj
 0002:0001ed70       ??_C@_0BK@OGKKODLL@Acpiexec?3?5PRM?5?$CFs?5invoked?6@ 0000000180077d70     aeregion.obj
 0002:0001ed90       ??_C@_0BD@GCNMNJCJ@Mode?3?5?$CFu?5GUID?3?5?$CFs?6@ 0000000180077d90     aeregion.obj
 0002:0001edb0       ??_C@_0EN@CNLEPNMI@Request?5on?5?$FL?$CF4?44s?$FN?5is?5beyond?5re@ 0000000180077db0     aeregion.obj
 0002:0001ee00       ??_C@_0FM@PGELLFDF@AcpiExec?3?5SystemMemory?5?$CFs?3?5Val?5@ 0000000180077e00     aeregion.obj
 0002:0001ee60       ??_C@_0BM@KBLNHJIG@AcpiExec?3?5GenericSerialBus?6@ 0000000180077e60     aeregion.obj
 0002:0001ee80       ??_C@_0GJ@CPHJCBFL@AcpiExec?3?5GeneralPurposeIo?5?$CFs?3?5@ 0000000180077e80     aeregion.obj
 0002:0001eef0       ??_C@_0CK@GCNDGIOA@AcpiExec?3?5Region?5access?5on?5Spac@ 0000000180077ef0     aeregion.obj
 0002:0001ef2c       ??_C@_06FFBNCJNJ@Intel?5@  0000000180077f2c     aetables.obj
 0002:0001ef38       ??_C@_08HDLMLLBB@AcpiExec@ 0000000180077f38     aetables.obj
 0002:0001ef44       ??_C@_04FKBPEJO@FACP@      0000000180077f44     aetables.obj
 0002:0001ef50       ??_C@_0CI@BOJECFLE@Already?5found?5a?5DSDT?0?5only?5one?5@ 0000000180077f50     aetables.obj
 0002:0001ef78       ??_C@_05CDGBNGHP@Intel@    0000000180077f78     aetables.obj
 0002:0001ef80       ??_C@_04EBECJBOI@XSDT@     0000000180077f80     aetables.obj
 0002:0001ef88       ??_C@_0BF@KMMCKOKD@AcpiInitializeTables@ 0000000180077f88     aetables.obj
 0002:0001efa0       ??_C@_04DAEIOFGI@UEFI@     0000000180077fa0     aetables.obj
 0002:0001efa8       ??_C@_0BD@CEKACIIB@AcpiGetTableHeader@ 0000000180077fa8     aetables.obj
 0002:0001efc0       ??_C@_0N@NNHGIAPJ@AcpiGetTable@ 0000000180077fc0     aetables.obj
 0002:0001efd0       ??_C@_0BE@EMFJEHHI@AcpiGetTableByIndex@ 0000000180077fd0     aetables.obj
 0002:0001efe8       ??_C@_0P@ILKGGNCC@AcpiLoadTables@ 0000000180077fe8     aetables.obj
 0002:0001eff8       ??_C@_0BC@MOLCCOAB@AcpiInstallMethod@ 0000000180077ff8     aetables.obj
 0002:0001f018       ??_C@_05BILHHGLD@?2_SB_@   0000000180078018     aetests.obj
 0002:0001f020       ??_C@_0BG@JCNIBJJD@AcpiUnloadParentTable@ 0000000180078020     aetests.obj
 0002:0001f038       ??_C@_0O@NBNJOINM@AcpiLoadTable@ 0000000180078038     aetests.obj
 0002:0001f048       ??_C@_0BA@NFPOOLOA@AcpiUnloadTable@ 0000000180078048     aetests.obj
 0002:0001f058       ??_C@_0BF@NBMKNGMK@AcpiInstallInterface@ 0000000180078058     aetests.obj
 0002:0001f070       ??_C@_0L@KFKCODGK@TestString@ 0000000180078070     aetests.obj
 0002:0001f080       ??_C@_0BE@PDMHICJK@AcpiRemoveInterface@ 0000000180078080     aetests.obj
 0002:0001f094       ??_C@_06IEGDAGNI@XXXXXX@   0000000180078094     aetests.obj
 0002:0001f0a0       ??_C@_0BC@JBICEGJJ@AnotherTestString@ 00000001800780a0     aetests.obj
 0002:0001f0b8       ??_C@_0L@GNGODJMJ@ExecuteOSI@ 00000001800780b8     aetests.obj
 0002:0001f0c8       ??_C@_0BH@LJKOLBHI@MichiganTerminalSystem@ 00000001800780c8     aetests.obj
 0002:0001f0e0       ??_C@_0M@LGOKNGOP@AcpiGetName@ 00000001800780e0     aetests.obj
 0002:0001f0f0       ??_C@_0P@JPPAKCEF@AcpiGetDevices@ 00000001800780f0     aetests.obj
 0002:0001f100       ??_C@_0BC@PMBBNGAC@AcpiGetStatistics@ 0000000180078100     aetests.obj
 0002:0001f118       ??_C@_0BO@DLDKLIJH@AcpiInstallGlobalEventHandler@ 0000000180078118     aetests.obj
 0002:0001f138       ??_C@_0BA@DHOFCBPF@AcpiEnableEvent@ 0000000180078138     aetests.obj
 0002:0001f148       ??_C@_0L@IKIHPDPA@AcpiSetGpe@ 0000000180078148     aetests.obj
 0002:0001f158       ??_C@_0BE@MNKHHPMC@AcpiSetupGpeForWake@ 0000000180078158     aetests.obj
 0002:0001f170       ??_C@_0BD@HKKDNKMK@AcpiSetGpeWakeMask@ 0000000180078170     aetests.obj
 0002:0001f188       ??_C@_0P@ECOGDLGG@AcpiDisableGpe@ 0000000180078188     aetests.obj
 0002:0001f198       ??_C@_04BGNKNCBN@RSRC@     0000000180078198     aetests.obj
 0002:0001f1a0       ??_C@_0BG@NELIINEI@AcpiAcquireGlobalLock@ 00000001800781a0     aetests.obj
 0002:0001f1b8       ??_C@_0BG@PCGJJPAB@AcpiReleaseGlobalLock@ 00000001800781b8     aetests.obj
 0002:0001f1d0       ??_C@_0BH@HOKGEDOD@AcpiGetTimerResolution@ 00000001800781d0     aetests.obj
 0002:0001f1e8       ??_C@_0N@LPDHGEHH@AcpiGetTimer@ 00000001800781e8     aetests.obj
 0002:0001f1f8       ??_C@_0BF@HPJMLMBP@AcpiGetTimerDuration@ 00000001800781f8     aetests.obj
 0002:0001f210       ??_C@_05HFIPOKGH@?2MTX1@   0000000180078210     aetests.obj
 0002:0001f218       ??_C@_0BB@MANNHPNP@AcpiAcquireMutex@ 0000000180078218     aetests.obj
 0002:0001f230       ??_C@_0BB@BDJDLKIJ@AcpiReleaseMutex@ 0000000180078230     aetests.obj
 0002:0001f248       ??_C@_0BF@HAGHNJON@AcpiWriteBitRegister@ 0000000180078248     aetests.obj
 0002:0001f260       ??_C@_0BE@PGJAJMFJ@AcpiReadBitRegister@ 0000000180078260     aetests.obj
 0002:0001f278       ??_C@_0BF@BJIMHDJ@AcpiGetSleepTypeData@ 0000000180078278     aetests.obj
 0002:0001f290       ??_C@_0M@HHCLPJOL@AcpiGetname@ 0000000180078290     aetests.obj
 0002:0001f2b0       ??_C@_0EB@PDNHIHEO@Incorrect?5checksum?5in?5table?5?$FL?$CF4@ 00000001800782b0     utcksum.obj
 0002:0001f2f4       ??_C@_01GFHCPBMG@C@        00000001800782f4     toroC64:osifUefiShellEntryPoint.obj
 0002:0001f300       ??_C@_1GG@CBENNICG@?$AAF?$AAA?$AAT?$AAA?$AAL?$AA?5?$AAE?$AAR?$AAR?$AAO?$AAR?$AA?3?$AA?5?$AAR?$AAe@ 0000000180078300     toroC64:osifUefiShellEntryPoint.obj
 0002:0001f370       ??_C@_1BKG@PIHDEHDC@?$AAF?$AAA?$AAT?$AAA?$AAL?$AA?5?$AAE?$AAR?$AAR?$AAO?$AAR?$AA?3?$AA?5?$AAS?$AAh@ 0000000180078370     toroC64:osifUefiShellEntryPoint.obj
 0002:0001f518       ??_C@_02KPKOKMHB@?$CFS@    0000000180078518     toroC64:osifUefiShellEntryPoint.obj
 0002:0001f520       ??_C@_0L@PJHNIGKF@?9?9TOROCVER@ 0000000180078520     toroC64:osifUefiShellEntryPoint.obj
 0002:0001f52c       ??_C@_15JNBOKNOG@?$AA?$AN?$AA?6@ 000000018007852c     toroC64:osifUefiShellEntryPoint.obj
 0002:0001f538       ??_C@_07FPDFEDEI@ctrwaxb@  0000000180078538     toroC64:Fopen.obj
 0002:0001f540       ??_C@_02DPNLHKJD@a?$CL@    0000000180078540     toroC64:Fopen.obj
 0002:0001f544       ??_C@_02DJGKEECL@?4?4@     0000000180078544     toroC64:_findfirst.obj
 0002:0001f548       ??_C@_02FNAGIBCP@?4?$CK@   0000000180078548     toroC64:_findfirst.obj
 0002:0001f54c       ??_C@_01JOAMLHOP@?9@       000000018007854c     toroC64:_cdeCoreVwxPrintf.obj
 0002:0001f550       ??_C@_01MIFGBAGJ@?$CL@     0000000180078550     toroC64:_cdeCoreVwxPrintf.obj
 0002:0001f554       ??_C@_02MDDDDAID@0x@       0000000180078554     toroC64:_cdeCoreVwxPrintf.obj
 0002:0001f558       ??_C@_02FGLHBECB@0X@       0000000180078558     toroC64:_cdeCoreVwxPrintf.obj
 0002:0001f560       ??_C@_0DB@NHMBHPIK@?$CF08X?9?$CF04X?9?$CF04X?9?$CF02X?$CF02X?9?$CF02X?$CF02@ 0000000180078560     toroC64:_cdeCoreVwxPrintf.obj
 0002:0001f598       ??_C@_0DB@PMLHLBMO@?$CF08x?9?$CF04x?9?$CF04x?9?$CF02x?$CF02x?9?$CF02x?$CF02@ 0000000180078598     toroC64:_cdeCoreVwxPrintf.obj
 0002:0001f5d0       ??_C@_0BK@FCPKCIDD@?$CF02d?1?$CF02d?1?$CF04d?5?5?$CF02d?3?$CF02d@ 00000001800785d0     toroC64:_cdeCoreVwxPrintf.obj
 0002:0001f5ec       ??_C@_03GOAGKKNE@?$CFqX@   00000001800785ec     toroC64:_cdeCoreVwxPrintf.obj
 0002:0001f5f0       ??_C@_07PBILKAFL@Success@  00000001800785f0     toroC64:_cdeCoreVwxPrintf.obj
 0002:0001f5f8       ??_C@_0L@PLPBEPPC@Load?5Error@ 00000001800785f8     toroC64:_cdeCoreVwxPrintf.obj
 0002:0001f608       ??_C@_0BC@HOFHKGJN@Invalid?5Parameter@ 0000000180078608     toroC64:_cdeCoreVwxPrintf.obj
 0002:0001f620       ??_C@_0M@BEECMOIL@Unsupported@ 0000000180078620     toroC64:_cdeCoreVwxPrintf.obj
 0002:0001f630       ??_C@_0BA@FLNMPMCF@Bad?5Buffer?5Size@ 0000000180078630     toroC64:_cdeCoreVwxPrintf.obj
 0002:0001f640       ??_C@_0BB@EGELJFOB@Buffer?5Too?5Small@ 0000000180078640     toroC64:_cdeCoreVwxPrintf.obj
 0002:0001f658       ??_C@_09NKFGCIPN@Not?5Ready@ 0000000180078658     toroC64:_cdeCoreVwxPrintf.obj
 0002:0001f668       ??_C@_0N@HHEABDHO@Device?5Error@ 0000000180078668     toroC64:_cdeCoreVwxPrintf.obj
 0002:0001f678       ??_C@_0BA@LNEDDFNB@Write?5Protected@ 0000000180078678     toroC64:_cdeCoreVwxPrintf.obj
 0002:0001f688       ??_C@_0BB@GOILNEAA@Out?5of?5Resources@ 0000000180078688     toroC64:_cdeCoreVwxPrintf.obj
 0002:0001f6a0       ??_C@_0P@EIOJGIF@Volume?5Corrupt@ 00000001800786a0     toroC64:_cdeCoreVwxPrintf.obj
 0002:0001f6b0       ??_C@_0M@HDLEPOFA@Volume?5Full@ 00000001800786b0     toroC64:_cdeCoreVwxPrintf.obj
 0002:0001f6c0       ??_C@_08KEGAJDNN@No?5Media@ 00000001800786c0     toroC64:_cdeCoreVwxPrintf.obj
 0002:0001f6d0       ??_C@_0O@JNCJKCCD@Media?5changed@ 00000001800786d0     toroC64:_cdeCoreVwxPrintf.obj
 0002:0001f6e0       ??_C@_09CFCBFJND@Not?5Found@ 00000001800786e0     toroC64:_cdeCoreVwxPrintf.obj
 0002:0001f6f0       ??_C@_0O@NFHOBIDO@Access?5Denied@ 00000001800786f0     toroC64:_cdeCoreVwxPrintf.obj
 0002:0001f700       ??_C@_0M@ENKCBFEP@No?5Response@ 0000000180078700     toroC64:_cdeCoreVwxPrintf.obj
 0002:0001f710       ??_C@_0L@IFPBNFC@No?5mapping@ 0000000180078710     toroC64:_cdeCoreVwxPrintf.obj
 0002:0001f720       ??_C@_08PAFJCNGP@Time?5out@ 0000000180078720     toroC64:_cdeCoreVwxPrintf.obj
 0002:0001f730       ??_C@_0M@DCJFAFHJ@Not?5started@ 0000000180078730     toroC64:_cdeCoreVwxPrintf.obj
 0002:0001f740       ??_C@_0BA@IGIBFFPH@Already?5started@ 0000000180078740     toroC64:_cdeCoreVwxPrintf.obj
 0002:0001f750       ??_C@_07LCKDCBKK@Aborted@  0000000180078750     toroC64:_cdeCoreVwxPrintf.obj
 0002:0001f758       ??_C@_0L@LKIFCMNO@ICMP?5Error@ 0000000180078758     toroC64:_cdeCoreVwxPrintf.obj
 0002:0001f768       ??_C@_0L@DJKNJKHM@TFTP?5Error@ 0000000180078768     toroC64:_cdeCoreVwxPrintf.obj
 0002:0001f778       ??_C@_0P@NCJHBCLM@Protocol?5Error@ 0000000180078778     toroC64:_cdeCoreVwxPrintf.obj
 0002:0001f788       ??_C@_0BG@CFJMNNJK@Warning?5Unknown?5Glyph@ 0000000180078788     toroC64:_cdeCoreVwxPrintf.obj
 0002:0001f7a0       ??_C@_0BH@GKKCJEPJ@Warning?5Delete?5Failure@ 00000001800787a0     toroC64:_cdeCoreVwxPrintf.obj
 0002:0001f7b8       ??_C@_0BG@ECIJMOED@Warning?5Write?5Failure@ 00000001800787b8     toroC64:_cdeCoreVwxPrintf.obj
 0002:0001f7d0       ??_C@_0BJ@ODIPDGHB@Warning?5Buffer?5Too?5Small@ 00000001800787d0     toroC64:_cdeCoreVwxPrintf.obj
 0002:0001f7f0       ??_C@_1O@CEDCILHN@?$AA?$CI?$AAn?$AAu?$AAl?$AAl?$AA?$CJ@ 00000001800787f0     toroC64:_cdeCoreVwxPrintf.obj
 0002:0001f800       ??_C@_06OJHGLDPL@?$CInull?$CJ@ 0000000180078800     toroC64:_cdeCoreVwxPrintf.obj
 0002:0001f808       ??_C@_02CBLLGHLK@r?$CL@    0000000180078808     toroC64:osifUefiShellFileOpen.obj
 0002:0001f80c       ??_C@_03HMFOOINA@r?$CLb@   000000018007880c     toroC64:osifUefiShellFileOpen.obj
 0002:0001f810       ??_C@_03CCKOKKND@rb?$CL@   0000000180078810     toroC64:osifUefiShellFileOpen.obj
 0002:0001f814       ??_C@_01NOFIACDB@w@        0000000180078814     toroC64:osifUefiShellFileOpen.obj
 0002:0001f818       ??_C@_02GMLFBBN@wb@        0000000180078818     toroC64:osifUefiShellFileOpen.obj
 0002:0001f81c       ??_C@_03ELIABIOC@w?$CLb@   000000018007881c     toroC64:osifUefiShellFileOpen.obj
 0002:0001f820       ??_C@_03BFHAFKOB@wb?$CL@   0000000180078820     toroC64:osifUefiShellFileOpen.obj
 0002:0001f824       ??_C@_01MCMALHOG@a@        0000000180078824     toroC64:osifUefiShellFileOpen.obj
 0002:0001f828       ??_C@_02BOGAIONP@ab@       0000000180078828     toroC64:osifUefiShellFileOpen.obj
 0002:0001f82c       ??_C@_03DOPCBAKB@a?$CLb@   000000018007882c     toroC64:osifUefiShellFileOpen.obj
 0002:0001f830       ??_C@_03GAACFCKC@ab?$CL@   0000000180078830     toroC64:osifUefiShellFileOpen.obj
 0002:0001f838       ??_C@_08GAJLGCMP@CdeMkDir@ 0000000180078838     toroC64:osifUefiShellFileOpen.obj
 0002:0001f844       ??_C@_13PJJBFPED@?$AA?$DL@ 0000000180078844     toroC64:osifUefiShellFileOpen.obj
 0002:0001f848       ??_C@_13FPGAJAPJ@?$AA?2@   0000000180078848     toroC64:osifUefiShellFileOpen.obj
 0002:0001f84c       ??_C@_01JLIPDDHJ@?3@       000000018007884c     toroC64:osifUefiShellFileGetStatus.obj
 0002:0001f850       ??_C@_02OFDPNJAI@FS@       0000000180078850     toroC64:osifUefiShellFileGetStatus.obj
 0002:0001f854       ??_C@_15BFKPJPFA@?$AAA?$AA?3@ 0000000180078854     toroC64:osifUefiShellCmdExec.obj
 0002:0001f85c       ??_C@_13JOFGPIOO@?$AA?4@   000000018007885c     toroC64:_cdeCLocale_.obj
 0002:0001f860       ??_C@_11LOCGONAA@@         0000000180078860     toroC64:_cdeCLocale_.obj
 0002:0001f868       ??_C@_0BO@ICHKIABJ@abnormal?5program?5termination?6@ 0000000180078868     toroC64:abort.obj
 0002:0001f888       ??_C@_02GNLKMPOH@?$CK?$DP@ 0000000180078888     toroC64:__cdeStrMatch.obj
 0002:0001f890       ??_C@_0CE@NLPNMFHG@invalid?5parameter?3?5?$CFS?$CI?$CFd?$CJ?5?$CFS?$CI?$CJ?5@ 0000000180078890     toroC64:_invalid_parameter_handler.obj
 0002:0001f8b8       ??_C@_0BD@NEDHKJBG@invalid?5parameter?6@ 00000001800788b8     toroC64:_invalid_parameter_handler.obj
 0002:0001f8e8       __volatile_metadata        00000001800788e8     <linker-defined>
 0003:00000000       AcpiGbl_Optind             000000018007e000     getopt.obj
 0003:00000004       AcpiGbl_Opterr             000000018007e004     getopt.obj
 0003:000003b0       AcpiGbl_WordDecode         000000018007e3b0     dmutils.obj
 0003:000003d0       AcpiGbl_IrqDecode          000000018007e3d0     dmutils.obj
 0003:000003e0       AcpiGbl_LockRule           000000018007e3e0     dmutils.obj
 0003:000003f0       AcpiGbl_AccessTypes        000000018007e3f0     dmutils.obj
 0003:00000430       AcpiGbl_UpdateRules        000000018007e430     dmutils.obj
 0003:00000450       AcpiGbl_MatchOps           000000018007e450     dmutils.obj
 0003:000004e0       AcpiGbl_DefaultAddressSpaces 000000018007e4e0     evhandler.obj
 0003:00000610       AcpiGbl_SetResourceDispatch 000000018007e610     rsinfo.obj
 0003:000006e0       AcpiGbl_GetResourceDispatch 000000018007e6e0     rsinfo.obj
 0003:00000800       AcpiGbl_ConvertResourceSerialBusDispatch 000000018007e800     rsinfo.obj
 0003:00000830       AcpiGbl_DumpResourceDispatch 000000018007e830     rsinfo.obj
 0003:00000900       AcpiGbl_DumpSerialBusDispatch 000000018007e900     rsinfo.obj
 0003:00000a10       AcpiGbl_RegionTypes        000000018007ea10     utdecode.obj
 0003:00000e30       AcpiGbl_Shutdown           000000018007ee30     utglobal.obj
 0003:00000e31       AcpiGbl_EarlyInitialization 000000018007ee31     utglobal.obj
 0003:00000e32       AcpiGbl_DbOutputFlags      000000018007ee32     utglobal.obj
 0003:00000e33       AcpiGbl_CstyleDisassembly  000000018007ee33     utglobal.obj
 0003:00000e34       AcpiGbl_DmOpt_Verbose      000000018007ee34     utglobal.obj
 0003:00000e35       AcpiGbl_DoDisassemblerOptimizations 000000018007ee35     utglobal.obj
 0003:00000e36       AcpiGbl_AutoSerializeMethods 000000018007ee36     utglobal.obj
 0003:00000e37       AcpiGbl_CreateOsiMethod    000000018007ee37     utglobal.obj
 0003:00000e38       AcpiGbl_SleepStateNames    000000018007ee38     utglobal.obj
 0003:00000e68       AcpiGbl_LowestDstateNames  000000018007ee68     utglobal.obj
 0003:00000e90       AcpiGbl_HighestDstateNames 000000018007ee90     utglobal.obj
 0003:00000eb0       AcpiGbl_BitRegisterInfo    000000018007eeb0     utglobal.obj
 0003:00000f00       AcpiGbl_FixedEventInfo     000000018007ef00     utglobal.obj
 0003:00000f1e       AcpiGbl_UseDefaultRegisterWidths 000000018007ef1e     utglobal.obj
 0003:00000f1f       AcpiGbl_EnableTableValidation 000000018007ef1f     utglobal.obj
 0003:00000f20       AcpiGbl_DbThreadId         000000018007ef20     utglobal.obj
 0003:00000f28       AcpiGbl_NextCmdNum         000000018007ef28     utglobal.obj
 0003:00000f2c       AcpiGbl_Use32BitFacsAddresses 000000018007ef2c     utglobal.obj
 0003:00000f2d       AcpiGbl_RuntimeNamespaceOverride 000000018007ef2d     utglobal.obj
 0003:00000f30       AcpiGbl_PldPanelList       000000018007ef30     utglobal.obj
 0003:00000f70       AcpiGbl_PldVerticalPositionList 000000018007ef70     utglobal.obj
 0003:00000f90       AcpiGbl_PldHorizontalPositionList 000000018007ef90     utglobal.obj
 0003:00000fb0       AcpiGbl_PldShapeList       000000018007efb0     utglobal.obj
 0003:00001000       AcpiGbl_MaxLoopIterations  000000018007f000     utglobal.obj
 0003:00001004       AcpiGbl_TraceDbgLevel      000000018007f004     utglobal.obj
 0003:00001008       AcpiGbl_TraceDbgLayer      000000018007f008     utglobal.obj
 0003:0000100c       AcpiDbgLevel               000000018007f00c     utglobal.obj
 0003:00001010       AcpiDbgLayer               000000018007f010     utglobal.obj
 0003:00001014       AcpiGbl_DsdtIndex          000000018007f014     utglobal.obj
 0003:00001018       AcpiGbl_FacsIndex          000000018007f018     utglobal.obj
 0003:0000101c       AcpiGbl_XFacsIndex         000000018007f01c     utglobal.obj
 0003:00001020       AcpiGbl_FadtIndex          000000018007f020     utglobal.obj
 0003:00001310       AcpiGbl_BmDecode           000000018007f310     utresdecode.obj
 0003:00001320       AcpiGbl_ConfigDecode       000000018007f320     utresdecode.obj
 0003:00001340       AcpiGbl_ConsumeDecode      000000018007f340     utresdecode.obj
 0003:00001350       AcpiGbl_DecDecode          000000018007f350     utresdecode.obj
 0003:00001360       AcpiGbl_HeDecode           000000018007f360     utresdecode.obj
 0003:00001370       AcpiGbl_IoDecode           000000018007f370     utresdecode.obj
 0003:00001380       AcpiGbl_LlDecode           000000018007f380     utresdecode.obj
 0003:000013a0       AcpiGbl_MaxDecode          000000018007f3a0     utresdecode.obj
 0003:000013b0       AcpiGbl_MemDecode          000000018007f3b0     utresdecode.obj
 0003:000013d0       AcpiGbl_MinDecode          000000018007f3d0     utresdecode.obj
 0003:000013e0       AcpiGbl_MtpDecode          000000018007f3e0     utresdecode.obj
 0003:00001400       AcpiGbl_PhyDecode          000000018007f400     utresdecode.obj
 0003:00001420       AcpiGbl_RngDecode          000000018007f420     utresdecode.obj
 0003:00001440       AcpiGbl_RwDecode           000000018007f440     utresdecode.obj
 0003:00001450       AcpiGbl_ShrDecode          000000018007f450     utresdecode.obj
 0003:00001470       AcpiGbl_SizDecode          000000018007f470     utresdecode.obj
 0003:00001490       AcpiGbl_TrsDecode          000000018007f490     utresdecode.obj
 0003:000014a0       AcpiGbl_TtpDecode          000000018007f4a0     utresdecode.obj
 0003:000014b0       AcpiGbl_TypDecode          000000018007f4b0     utresdecode.obj
 0003:000014d0       AcpiGbl_PpcDecode          000000018007f4d0     utresdecode.obj
 0003:000014f0       AcpiGbl_IorDecode          000000018007f4f0     utresdecode.obj
 0003:00001510       AcpiGbl_DtsDecode          000000018007f510     utresdecode.obj
 0003:00001540       AcpiGbl_CtDecode           000000018007f540     utresdecode.obj
 0003:00001550       AcpiGbl_SbtDecode          000000018007f550     utresdecode.obj
 0003:00001578       AcpiGbl_AmDecode           000000018007f578     utresdecode.obj
 0003:00001588       AcpiGbl_SmDecode           000000018007f588     utresdecode.obj
 0003:00001598       AcpiGbl_WmDecode           000000018007f598     utresdecode.obj
 0003:000015a8       AcpiGbl_CphDecode          000000018007f5a8     utresdecode.obj
 0003:000015b8       AcpiGbl_CpoDecode          000000018007f5b8     utresdecode.obj
 0003:000015c8       AcpiGbl_DpDecode           000000018007f5c8     utresdecode.obj
 0003:000015d8       AcpiGbl_EdDecode           000000018007f5d8     utresdecode.obj
 0003:000015f0       AcpiGbl_BpbDecode          000000018007f5f0     utresdecode.obj
 0003:00001630       AcpiGbl_SbDecode           000000018007f630     utresdecode.obj
 0003:00001650       AcpiGbl_FcDecode           000000018007f650     utresdecode.obj
 0003:00001670       AcpiGbl_PtDecode           000000018007f670     utresdecode.obj
 0003:000016b0       AcpiGbl_PtypDecode         000000018007f6b0     utresdecode.obj
 0003:00001720       AcpiGbl_ClockInputMode     000000018007f720     utresdecode.obj
 0003:00001730       AcpiGbl_ClockInputScale    000000018007f730     utresdecode.obj
 0003:00001783       AcpiGbl_UseLocalFaultHandler 000000018007f783     aemain.obj
 0003:00001790       Ssdt2Code                  000000018007f790     aetables.obj
 0003:000017d0       Ssdt3Code                  000000018007f7d0     aetables.obj
 0003:00001800       Ssdt4Code                  000000018007f800     aetables.obj
 0003:00001830       HwReducedFadtCode          000000018007f830     aetables.obj
 0003:00001940       EcdtCode                   000000018007f940     aetables.obj
 0003:00001990       Uefi1Code                  000000018007f990     aetables.obj
 0003:000019d0       Uefi2Code                  000000018007f9d0     aetables.obj
 0003:00001c28       __imp_QueryPerformanceCounter 000000018007fc28     LibWin324UEFI:QueryPerformanceCounter.obj
 0003:00001c30       __imp_QueryPerformanceFrequency 000000018007fc30     LibWin324UEFI:QueryPerformanceFrequency.obj
 0003:00001c38       __imp_GetTickCount64       000000018007fc38     LibWin324UEFI:GetTickCount64.obj
 0003:00001c40       __imp_Sleep                000000018007fc40     LibWin324UEFI:Sleep.obj
 0003:00001c48       __imp_IsBadReadPtr         000000018007fc48     LibWin324UEFI:IsBadReadPtr.obj
 0003:00001c50       __imp_IsBadWritePtr        000000018007fc50     LibWin324UEFI:IsBadWritePtr.obj
 0003:00002d10       CdeAppIfShell              0000000180080d10     toroC64:osifUefiShellEntryPoint.obj
 0003:00003370       __imp_memcmp               0000000180081370     toroC64:MemCmpCDEINTRINABI.obj
 0003:00003380       __imp_memset               0000000180081380     toroC64:MemSetCDEINTRINABI.obj
 0003:00003660       _cdeLconv_C                0000000180081660     toroC64:_cdeCLocale_.obj
 0003:000036f8       _cdeCLocale                00000001800816f8     toroC64:_cdeCLocale_.obj
 0003:00003710       __imp_free                 0000000180081710     toroC64:FreeCDEABI.obj
 0003:00003718       __imp_fclose               0000000180081718     toroC64:FcloseCDEABI.obj
 0003:00003720       __imp_fgetc                0000000180081720     toroC64:FgetcCDEABI.obj
 0003:00003728       __imp_fwrite               0000000180081728     toroC64:FwriteCDEABI.obj
 0003:00003730       __imp_sprintf              0000000180081730     toroC64:SprintfCDEABI.obj
 0003:00003738       __imp_raise                0000000180081738     toroC64:raiseCDEABI.obj
 0003:00003748       __imp_strcmp               0000000180081748     toroC64:StrCmpCDEABI.obj
 0003:00003750       __imp_fprintf              0000000180081750     toroC64:FprintfCDEABI.obj
 0003:00003758       _gCdeEfiShellProtocolGuid  0000000180081758     toroC64:EFI_SHELL_PROTOCOL_GUID.obj
 0003:00003768       _gCdeStrLibcVersion        0000000180081768     toroC64:_gCdeStrLibcVersion.obj
 0003:000037b8       pinvalid_parameter_handler 00000001800817b8     toroC64:_invalid_parameter_handler.obj
 0003:000037c0       __imp_strlen               00000001800817c0     toroC64:StrLenCDEABI.obj
 0003:000037c8       __imp_wcslen               00000001800817c8     toroC64:WcsLenCDEABI.obj
 0003:000037d8       _fltused                   00000001800817d8     toroC64:_fltused.obj
 0003:000037e0       __imp_isspace              00000001800817e0     toroC64:isspaceCDEABI.obj
 0003:000037e8       __imp_isdigit              00000001800817e8     toroC64:isdigitCDEABI.obj
 0003:000037f0       __imp_isxdigit             00000001800817f0     toroC64:isxdigitCDEABI.obj
 0003:000037f8       __imp__mktime64            00000001800817f8     toroC64:mktimeCDEABI.obj
 0003:00003800       __imp_mktime               0000000180081800     toroC64:mktimeCDEABI.obj
 0003:00003808       __imp_wcschr               0000000180081808     toroC64:WcsChrCDEABI.obj
 0003:00003810       __imp_wcscat               0000000180081810     toroC64:WcsCatCDEABI.obj
 0003:00003818       __imp_wcscpy               0000000180081818     toroC64:WcsCpyCDEABI.obj
 0003:00003828       __imp_wcsncmp              0000000180081828     toroC64:WcsNCmpCDEABI.obj
 0003:00003830       __imp_wcsncpy              0000000180081830     toroC64:WcsNCpyCDEABI.obj
 0003:00003840       __imp_wcstok               0000000180081840     toroC64:WcsTokCDEABI.obj
 0003:00003850       __imp__wcsicmp             0000000180081850     toroC64:_WcsICmpCDEABI.obj
 0003:00003860       __imp__stricmp             0000000180081860     toroC64:_StrICmpCDEABI.obj
 0003:00003868       _gEfiSimpleFileSystemProtocolGuid 0000000180081868     toroC64:EFI_SIMPLE_FILE_SYSTEM_PROTOCOL_GUID.obj
 0003:00003878       _gEfiDevicePathToTextProtocolGuid 0000000180081878     toroC64:EFI_DEVICE_PATH_TO_TEXT_PROTOCOL_GUID.obj
 0003:00003888       _gEfiDevicePathProtocolGuid 0000000180081888     toroC64:EFI_DEVICE_PATH_PROTOCOL_GUID.obj
 0003:00003898       __imp_malloc               0000000180081898     toroC64:MallocCDEABI.obj
 0003:000038a0       __imp_wcsrchr              00000001800818a0     toroC64:WcsRChrCDEABI.obj
 0003:000038a8       __imp__errno               00000001800818a8     toroC64:errnoCDEABI.obj
 0003:000038b8       __imp_fopen                00000001800818b8     toroC64:FopenCDEABI.obj
 0003:000038c0       __imp_fread                00000001800818c0     toroC64:FreadCDEABI.obj
 0003:000038c8       __imp_fseek                00000001800818c8     toroC64:FseekCDEABI.obj
 0003:000038d0       __imp_strchr               00000001800818d0     toroC64:StrChrCDEABI.obj
 0003:000038d8       __imp_realloc              00000001800818d8     toroC64:ReallocCDEABI.obj
 0003:000038e0       __imp_wcstombs             00000001800818e0     toroC64:wcstombsCDEABI.obj
 0003:000038e8       __imp_mbstowcs             00000001800818e8     toroC64:mbstowcsCDEABI.obj
 0003:000038f0       __imp_abort                00000001800818f0     toroC64:abortCDEABI.obj
 0003:000038f8       __imp_strncpy              00000001800818f8     toroC64:StrNCpyCDEABI.obj
 0003:00003908       __imp_strncmp              0000000180081908     toroC64:StrNCmpCDEABI.obj
 0003:00003910       __imp_strcpy               0000000180081910     toroC64:StrCpyCDEABI.obj
 0003:00003918       __imp_strcat               0000000180081918     toroC64:StrCatCDEABI.obj
 0003:00003920       __imp_strtol               0000000180081920     toroC64:strtolCDEABI.obj
 0003:00003928       __imp_strstr               0000000180081928     toroC64:StrStrCDEABI.obj
 0003:00003938       __imp__strnicmp            0000000180081938     toroC64:_StrNICmpCDEABI.obj
 0003:00003940       __imp_toupper              0000000180081940     toroC64:toupperCDEABI.obj
 0003:00003948       _gEfiFileInfoIdGuid        0000000180081948     toroC64:EFI_FILE_INFO_ID_GUID.obj
 0003:00003958       __imp_wcsstr               0000000180081958     toroC64:WcsStrCDEABI.obj
 0003:00003960       __imp_fflush               0000000180081960     toroC64:FflushCDEABI.obj
 0003:00003968       __imp_remove               0000000180081968     toroC64:RemoveCDEABI.obj
 0003:00003970       pinvalid_parameter_handlerCDEABI 0000000180081970     toroC64:_invalid_parameter_handlerCDEABI.obj
 0003:00003980       __imp_vsnprintf            0000000180081980     toroC64:VsnprintfCDEABI.obj
 0003:00003988       __imp_vfprintf             0000000180081988     toroC64:VfprintfCDEABI.obj
 0003:00003990       __imp_fsetpos              0000000180081990     toroC64:FsetposCDEABI.obj
 0003:000039a0       __imp_wcspbrk              00000001800819a0     toroC64:WcsPbrkCDEABI.obj
 0003:000039a8       __imp_memcpy               00000001800819a8     toroC64:MemCpyCDEABI.obj
 0003:000039b0       __imp_strpbrk              00000001800819b0     toroC64:StrPbrkCDEABI.obj
 0003:000039b8       __imp_exit                 00000001800819b8     toroC64:exitCDEABI.obj
 0003:000039c0       __imp_islower              00000001800819c0     toroC64:islowerCDEABI.obj
 0003:000039c8       __imp_fputc                00000001800819c8     toroC64:FputcCDEABI.obj
 0003:000039d0       _gCdeCfgCmdLnParmPoolMemRetain 00000001800819d0     toroC64:_gCdeCfgCmdLnParmPoolMemRetain.obj
 0003:000039e0       AcpiGbl_SubOptChar         00000001800819e0     getopt.obj
 0003:00003f80       AcpiGbl_StartupFlags       0000000180081f80     utglobal.obj
 0003:00003f84       AcpiGbl_NamespaceInitialized 0000000180081f84     utglobal.obj
 0003:00003f85       AcpiGbl_CaptureComments    0000000180081f85     utglobal.obj
 0003:00003f86       AcpiGbl_NoResourceDisassembly 0000000180081f86     utglobal.obj
 0003:00003f87       AcpiGbl_IgnoreNoopOperator 0000000180081f87     utglobal.obj
 0003:00003f88       AcpiGbl_NestingLevel       0000000180081f88     utglobal.obj
 0003:00003f8c       AcpiGbl_ForceAmlDisassembly 0000000180081f8c     utglobal.obj
 0003:00003f8d       AcpiGbl_DmEmitExternalOpcodes 0000000180081f8d     utglobal.obj
 0003:00003f8e       AcpiGbl_AbortMethod        0000000180081f8e     utglobal.obj
 0003:00003f8f       AcpiGbl_DisasmFlag         0000000180081f8f     utglobal.obj
 0003:00003f90       AcpiGbl_CurrentScope       0000000180081f90     utglobal.obj
 0003:00003f98       AcpiGbl_LastListHead       0000000180081f98     utglobal.obj
 0003:00003fa0       AcpiGbl_TempListHead       0000000180081fa0     utglobal.obj
 0003:00003fa8       AcpiGbl_DebugFile          0000000180081fa8     utglobal.obj
 0003:00003fb0       AcpiGbl_OutputFile         0000000180081fb0     utglobal.obj
 0003:00003fb8       AcpiGbl_DebugTimeout       0000000180081fb8     utglobal.obj
 0003:00003fb9       AcpiGbl_EnableInterpreterSlack 0000000180081fb9     utglobal.obj
 0003:00003fba       AcpiGbl_EnableAmlDebugObject 0000000180081fba     utglobal.obj
 0003:00003fbb       AcpiGbl_CopyDsdtLocally    0000000180081fbb     utglobal.obj
 0003:00003fbc       AcpiGbl_DoNotUseXsdt       0000000180081fbc     utglobal.obj
 0003:00003fbd       AcpiGbl_Use32BitFadtAddresses 0000000180081fbd     utglobal.obj
 0003:00003fbe       AcpiGbl_TruncateIoAddresses 0000000180081fbe     utglobal.obj
 0003:00003fbf       AcpiGbl_DisableAutoRepair  0000000180081fbf     utglobal.obj
 0003:00003fc0       AcpiGbl_DisableSsdtTableInstall 0000000180081fc0     utglobal.obj
 0003:00003fc1       AcpiGbl_OsiData            0000000180081fc1     utglobal.obj
 0003:00003fc2       AcpiGbl_ReducedHardware    0000000180081fc2     utglobal.obj
 0003:00003fc3       AcpiGbl_IgnorePackageResolutionErrors 0000000180081fc3     utglobal.obj
 0003:00003fc4       AcpiGbl_TraceFlags         0000000180081fc4     utglobal.obj
 0003:00003fc8       AcpiGbl_TraceMethodName    0000000180081fc8     utglobal.obj
 0003:00003fd0       AcpiGbl_DisplayDebugTimer  0000000180081fd0     utglobal.obj
 0003:00003fd1       AcpiGbl_MethodExecuting    0000000180081fd1     utglobal.obj
 0003:00003fd8       AcpiGbl_CDAT               0000000180081fd8     utglobal.obj
 0003:00003fe0       AcpiGbl_FACS               0000000180081fe0     utglobal.obj
 0003:00003ffc       SigintCount                0000000180081ffc     aeexception.obj
 0003:00004558       AcpiGbl_DisplayRegionAccess 0000000180082558     aeinstall.obj
 0003:00004560       AcpiGbl_VerboseHandlers    0000000180082560     aemain.obj
 0003:00004561       AcpiGbl_IgnoreErrors       0000000180082561     aemain.obj
 0003:00004562       AcpiGbl_AbortLoopOnTimeout 0000000180082562     aemain.obj
 0003:00004563       AcpiGbl_RegionFillValue    0000000180082563     aemain.obj
 0003:00004564       AcpiGbl_UseHwReducedFadt   0000000180082564     aemain.obj
 0003:00004565       AcpiGbl_DoInterfaceTests   0000000180082565     aemain.obj
 0003:00004566       AcpiGbl_LoadTestTables     0000000180082566     aemain.obj
 0003:00004567       AcpiGbl_AeLoadOnly         0000000180082567     aemain.obj
 0003:00004568       AcpiGbl_InitEntries        0000000180082568     aemain.obj
 0003:00004570       AcpiGbl_InitFileLineCount  0000000180082570     aemain.obj
 0003:00018190       _gCdeCfgCmdLnParmReportStatusCodeSTDOUT 0000000180096190     toroC64:_gCdeCfgCmdLnParmReportStatusCodeSTDOUT.obj
 0003:000181a0       AeMyContext                00000001800961a0     <common>
 0003:000181b0       TimerFrequency             00000001800961b0     <common>
 0003:000181b8       AcpiGbl_GlobalLockAcquired 00000001800961b8     <common>
 0003:000181ba       AcpiGbl_GlobalLockHandle   00000001800961ba     <common>
 0003:000181c0       AcpiGbl_GlobalLockPendingLock 00000001800961c0     <common>
 0003:000181c8       AcpiGbl_GlobalLockSemaphore 00000001800961c8     <common>
 0003:000181d0       AcpiGbl_GlobalLockMutex    00000001800961d0     <common>
 0003:000181e0       AcpiGbl_MutexInfo          00000001800961e0     <common>
 0003:00018270       AcpiGbl_IntegerNybbleWidth 0000000180096270     <common>
 0003:00018271       AcpiGbl_IntegerByteWidth   0000000180096271     <common>
 0003:00018272       AcpiGbl_IntegerBitWidth    0000000180096272     <common>
 0003:00018280       AcpiGbl_XPm1bEnable        0000000180096280     <common>
 0003:00018290       AcpiGbl_XPm1bStatus        0000000180096290     <common>
 0003:000182a0       AcpiGbl_XPm1aEnable        00000001800962a0     <common>
 0003:000182b0       AcpiGbl_XPm1aStatus        00000001800962b0     <common>
 0003:000182c0       AcpiGbl_OriginalDsdtHeader 00000001800962c0     <common>
 0003:000182e8       AcpiGbl_DSDT               00000001800962e8     <common>
 0003:00018300       AcpiGbl_RootTableList      0000000180096300     <common>
 0003:00018318       AcpiGbl_SystemAwakeAndRunning 0000000180096318     <common>
 0003:0001831c       AcpiCurrentGpeCount        000000018009631c     <common>
 0003:00018320       AcpiGbl_FADT               0000000180096320     <common>
 0003:00018440       AcpiGbl_DbLineBuf          0000000180096440     <common>
 0003:00018640       AcpiGbl_PrintLock          0000000180096640     <common>
 0003:00018648       AcpiGbl_NumObjects         0000000180096648     <common>
 0003:0001864c       AcpiGbl_NumNodes           000000018009664c     <common>
 0003:00018650       AcpiGbl_NodeTypeCountMisc  0000000180096650     <common>
 0003:00018652       AcpiGbl_ObjTypeCountMisc   0000000180096652     <common>
 0003:00018660       AcpiGbl_NodeTypeCount      0000000180096660     <common>
 0003:000186a0       AcpiGbl_ObjTypeCount       00000001800966a0     <common>
 0003:000186e0       AcpiGbl_DbDebugFilename    00000001800966e0     <common>
 0003:000188e0       AcpiGbl_DbScopeBuf         00000001800968e0     <common>
 0003:00018ae0       AcpiGbl_DbParsedBuf        0000000180096ae0     <common>
 0003:00018ce0       AcpiGbl_DbArgTypes         0000000180096ce0     <common>
 0003:00018d20       AcpiGbl_DbArgs             0000000180096d20     <common>
 0003:00018d78       AcpiGbl_DbThreadsTerminated 0000000180096d78     <common>
 0003:00018d79       AcpiGbl_DbTerminateLoop    0000000180096d79     <common>
 0003:00018d80       AcpiGbl_DbScopeNode        0000000180096d80     <common>
 0003:00018d88       AcpiGbl_DbConsoleDebugLevel 0000000180096d88     <common>
 0003:00018d8c       AcpiGbl_DbDebugLevel       0000000180096d8c     <common>
 0003:00018d90       AcpiGbl_DbFilename         0000000180096d90     <common>
 0003:00018d98       AcpiGbl_DbBuffer           0000000180096d98     <common>
 0003:00018da0       AcpiGbl_DbOutputToFile     0000000180096da0     <common>
 0003:00018da1       AcpiGbl_DbOpt_NoRegionSupport 0000000180096da1     <common>
 0003:00018da2       AcpiGbl_DbOpt_NoIniMethods 0000000180096da2     <common>
 0003:00018da8       AcpiGbl_ExternalList       0000000180096da8     <common>
 0003:00018db0       AcpiGbl_ResolvedExternalMethods 0000000180096db0     <common>
 0003:00018db4       AcpiGbl_NumExternalMethods 0000000180096db4     <common>
 0003:00018db5       AcpiGbl_DmOpt_Listing      0000000180096db5     <common>
 0003:00018db8       AcpiGbl_OriginalDbgLayer   0000000180096db8     <common>
 0003:00018dbc       AcpiGbl_OriginalDbgLevel   0000000180096dbc     <common>
 0003:00018dc0       AcpiFixedEventCount        0000000180096dc0     <common>
 0003:00018dd4       AcpiSciCount               0000000180096dd4     <common>
 0003:00018dd8       AcpiGpeCount               0000000180096dd8     <common>
 0003:00018ddc       AcpiMethodCount            0000000180096ddc     <common>
 0003:00018de0       AcpiGbl_FixedEventHandlers 0000000180096de0     <common>
 0003:00018e30       AcpiGbl_GlobalEventHandlerContext 0000000180096e30     <common>
 0003:00018e38       AcpiGbl_GlobalEventHandler 0000000180096e38     <common>
 0003:00018e40       AcpiGbl_GpeFadtBlocks      0000000180096e40     <common>
 0003:00018e50       AcpiGbl_GpeXruptListHead   0000000180096e50     <common>
 0003:00018e58       AcpiGbl_AllGpesInitialized 0000000180096e58     <common>
 0003:00018e59       AcpiGbl_SleepTypeBS0       0000000180096e59     <common>
 0003:00018e5a       AcpiGbl_SleepTypeAS0       0000000180096e5a     <common>
 0003:00018e5b       AcpiGbl_SleepTypeB         0000000180096e5b     <common>
 0003:00018e5c       AcpiGbl_SleepTypeA         0000000180096e5c     <common>
 0003:00018e60       AcpiGbl_CurrentWalkList    0000000180096e60     <common>
 0003:00018e68       AcpiGbl_CmSingleStep       0000000180096e68     <common>
 0003:00018e6c       AcpiGbl_DeepestNesting     0000000180096e6c     <common>
 0003:00018e70       AcpiGbl_LowestStackPointer 0000000180096e70     <common>
 0003:00018e78       AcpiGbl_EntryStackPointer  0000000180096e78     <common>
 0003:00018e80       AcpiGbl_CurrentNodeCount   0000000180096e80     <common>
 0003:00018e88       AcpiGbl_FadtGpeDevice      0000000180096e88     <common>
 0003:00018e90       AcpiGbl_RootNode           0000000180096e90     <common>
 0003:00018ea0       AcpiGbl_RootNodeStruct     0000000180096ea0     <common>
 0003:00018ed0       AcpiGbl_VerboseLeakDump    0000000180096ed0     <common>
 0003:00018ed1       AcpiGbl_DisableMemTracking 0000000180096ed1     <common>
 0003:00018ed2       AcpiGbl_DisplayFinalMemStats 0000000180096ed2     <common>
 0003:00018ed8       AcpiGbl_NsNodeList         0000000180096ed8     <common>
 0003:00018ee0       AcpiGbl_GlobalList         0000000180096ee0     <common>
 0003:00018ef0       AcpiGbl_AddressRangeList   0000000180096ef0     <common>
 0003:00018f00       AcpiGbl_SupportedInterfaces 0000000180096f00     <common>
 0003:00018f08       AcpiGbl_EventsInitialized  0000000180096f08     <common>
 0003:00018f09       AcpiGbl_AcpiHardwarePresent 0000000180096f09     <common>
 0003:00018f0a       AcpiGbl_StepToNextCall     0000000180096f0a     <common>
 0003:00018f0b       AcpiGbl_DebuggerConfiguration 0000000180096f0b     <common>
 0003:00018f0c       AcpiGbl_PsFindCount        0000000180096f0c     <common>
 0003:00018f10       AcpiGbl_NsLookupCount      0000000180096f10     <common>
 0003:00018f14       AcpiGbl_OriginalMode       0000000180096f14     <common>
 0003:00018f18       AcpiGbl_NextOwnerIdOffset  0000000180096f18     <common>
 0003:00018f19       AcpiGbl_LastOwnerIdIndex   0000000180096f19     <common>
 0003:00018f20       AcpiGbl_OwnerIdMask        0000000180096f20     <common>
 0003:00019120       AcpiGbl_GedHandlerList     0000000180097120     <common>
 0003:00019128       AcpiGbl_SciHandlerList     0000000180097128     <common>
 0003:00019130       AcpiGbl_InterfaceHandler   0000000180097130     <common>
 0003:00019138       AcpiGbl_TableHandlerContext 0000000180097138     <common>
 0003:00019140       AcpiGbl_TableHandler       0000000180097140     <common>
 0003:00019148       AcpiGbl_InitHandler        0000000180097148     <common>
 0003:00019150       AcpiGbl_ExceptionHandler   0000000180097150     <common>
 0003:00019160       AcpiGbl_GlobalNotify       0000000180097160     <common>
 0003:00019180       AcpiGbl_OperandCache       0000000180097180     <common>
 0003:00019188       AcpiGbl_PsNodeExtCache     0000000180097188     <common>
 0003:00019190       AcpiGbl_PsNodeCache        0000000180097190     <common>
 0003:00019198       AcpiGbl_StateCache         0000000180097198     <common>
 0003:000191a0       AcpiGbl_NamespaceCache     00000001800971a0     <common>
 0003:000191c0       AcpiGbl_NamespaceRwLock    00000001800971c0     <common>
 0003:000191d8       AcpiGbl_OsiMutex           00000001800971d8     <common>
 0003:000191e0       AcpiGbl_ReferenceCountLock 00000001800971e0     <common>
 0003:000191e8       AcpiGbl_HardwareLock       00000001800971e8     <common>
 0003:000191f0       AcpiGbl_GpeLock            00000001800971f0     <common>
 0003:000191f8       AcpiGbl_GlobalLockPending  00000001800971f8     <common>
 0003:000191f9       AcpiGbl_GlobalLockPresent  00000001800971f9     <common>
 0003:00019200       AcpiGbl_Optarg             0000000180097200     <common>
 0003:00019208       pEFI_FILE_WRITE            0000000180097208     <common>
 0003:00019210       pConIOClr                  0000000180097210     <common>
 0003:00019218       pCdeEfiDevicePathToTextProtocol 0000000180097218     <common>
 0003:00019220       gszCdeDriverName           0000000180097220     <common>
 0003:00019228       _cdegRT                    0000000180097228     <common>
 0003:00019230       _cdegBS                    0000000180097230     <common>
 0003:00019238       _cdegST                    0000000180097238     <common>
 0003:00019240       _cdegImageHandle           0000000180097240     <common>

 entry point at        0001:0004e3b8

 Static symbols

 0001:00000488       AcCheckTextModeCorruption  0000000180001488 f   acfileio.obj
 0001:000004fc       AcGetOneTableFromFile      00000001800014fc f   acfileio.obj
 0001:00001434       AcpiDbResourceCallback     0000000180002434 f   dbcmds.obj
 0001:00001440       AcpiDbDeviceResources      0000000180002440 f   dbcmds.obj
 0001:00001810       AcpiDbDoOneSleepState      0000000180002810 f   dbcmds.obj
 0001:00001934       AcpiDmCompareAmlResources  0000000180002934 f   dbcmds.obj
 0001:00001a9c       AcpiDmTestResourceConversion 0000000180002a9c f   dbcmds.obj
 0001:00002228       AcpiDbConvertToBuffer      0000000180003228 f   dbconvert.obj
 0001:00002340       AcpiDbHexByteToBinary      0000000180003340 f   dbconvert.obj
 0001:00003034       AcpiDbDisplayNonRootHandlers 0000000180004034 f   dbdisply.obj
 0001:00003104       AcpiDbDumpParserDescriptor 0000000180004104 f   dbdisply.obj
 0001:000031a0       AcpiDbGetPointer           00000001800041a0 f   dbdisply.obj
 0001:00003904       AcpiDbMethodThread         0000000180004904 f   dbexec.obj
 0001:00003b30       AcpiDbExecutionWalk        0000000180004b30 f   dbexec.obj
 0001:00003bc8       AcpiDbSingleExecutionThread 0000000180004bc8 f   dbexec.obj
 0001:00003c54       AcpiDbExecuteMethod        0000000180004c54 f   dbexec.obj
 0001:00003e50       AcpiDbExecuteSetup         0000000180004e50 f   dbexec.obj
 0001:00003f10       AcpiDbGetOutstandingAllocations 0000000180004f10 f   dbexec.obj
 0001:00004d58       AcpiDbDisplayCommandInfo   0000000180005d58 f   dbinput.obj
 0001:00004db0       AcpiDbDisplayHelp          0000000180005db0 f   dbinput.obj
 0001:00004e14       AcpiDbGetLine              0000000180005e14 f   dbinput.obj
 0001:00004eb0       AcpiDbMatchCommand         0000000180005eb0 f   dbinput.obj
 0001:00004f2c       AcpiDbMatchCommandHelp     0000000180005f2c f   dbinput.obj
 0001:00005470       AcpiDbWalkForExecute       0000000180006470 f   dbmethod.obj
 0001:000054c4       AcpiDbWalkForExecuteAll    00000001800064c4 f   dbmethod.obj
 0001:000054ec       AcpiDbEvaluateObject       00000001800064ec f   dbmethod.obj
 0001:00005ca8       AcpiDbWalkAndMatchName     0000000180006ca8 f   dbnames.obj
 0001:00005d6c       AcpiDbWalkForPredefinedNames 0000000180006d6c f   dbnames.obj
 0001:00005e70       AcpiDbWalkForSpecificObjects 0000000180006e70 f   dbnames.obj
 0001:00005f0c       AcpiDbWalkForObjectCounts  0000000180006f0c f   dbnames.obj
 0001:00005f40       AcpiDbIntegrityWalk        0000000180006f40 f   dbnames.obj
 0001:0000601c       AcpiDbWalkForReferences    000000018000701c f   dbnames.obj
 0001:00006080       AcpiDbBusWalk              0000000180007080 f   dbnames.obj
 0001:00006254       AcpiDbWalkForFields        0000000180007254 f   dbnames.obj
 0001:00006908       AcpiDbDecodeNode           0000000180007908 f   dbobject.obj
 0001:00006eac       AcpiDbClassifyOneObject    0000000180007eac f   dbstats.obj
 0001:00006efc       AcpiDbCountNamespaceObjects 0000000180007efc f   dbstats.obj
 0001:00006fa4       AcpiDbEnumerateObject      0000000180007fa4 f   dbstats.obj
 0001:00007084       AcpiDbListInfo             0000000180008084 f   dbstats.obj
 0001:000071b8       AcpiDbTestOneObject        00000001800081b8 f   dbtest.obj
 0001:00007324       AcpiDbEvaluateOnePredefinedName 0000000180008324 f   dbtest.obj
 0001:00007524       AcpiDbEvaluateAllPredefinedNames 0000000180008524 f   dbtest.obj
 0001:00007588       AcpiDbReadFromObject       0000000180008588 f   dbtest.obj
 0001:00007694       AcpiDbTestAllObjects       0000000180008694 f   dbtest.obj
 0001:00007770       AcpiDbTestBufferType       0000000180008770 f   dbtest.obj
 0001:0000798c       AcpiDbTestFieldUnitType    000000018000898c f   dbtest.obj
 0001:00007a60       AcpiDbTestIntegerType      0000000180008a60 f   dbtest.obj
 0001:00007c00       AcpiDbTestPackageType      0000000180008c00 f   dbtest.obj
 0001:00007c44       AcpiDbTestStringType       0000000180008c44 f   dbtest.obj
 0001:00007db8       AcpiDbWriteToObject        0000000180008db8 f   dbtest.obj
 0001:000085d8       AcpiDbGetDisplayOp         00000001800095d8 f   dbxface.obj
 0001:00008650       AcpiDbStartCommand         0000000180009650 f   dbxface.obj
 0001:00008b84       AcpiDmFindNameByIndex      0000000180009b84 f   dmbuffer.obj
 0001:00008bac       AcpiDmGetHardwareIdType    0000000180009bac f   dmbuffer.obj
 0001:00008c44       AcpiDmPldBuffer            0000000180009c44 f   dmbuffer.obj
 0001:00009080       AcpiDmUnicode              000000018000a080 f   dmbuffer.obj
 0001:00009108       AcpiDmUuid                 000000018000a108 f   dmbuffer.obj
 0001:00009814       AcpiDmGetCompoundSymbol    000000018000a814 f   dmcstyle.obj
 0001:000098a0       AcpiDmIsOptimizationIgnored 000000018000a8a0 f   dmcstyle.obj
 0001:00009948       AcpiDmIsTargetAnOperand    000000018000a948 f   dmcstyle.obj
 0001:000099d4       AcpiDmIsValidTarget        000000018000a9d4 f   dmcstyle.obj
 0001:000099f0       AcpiDmPromoteTarget        000000018000a9f0 f   dmcstyle.obj
 0001:00009b5c       AcpiDmDeferredParse        000000018000ab5c f   dmdeferred.obj
 0001:0000a7c8       AcpiDmConvertToElseIf      000000018000b7c8 f   dmopcode.obj
 0001:0000a8bc       AcpiDmMatchKeyword         000000018000b8bc f   dmopcode.obj
 0001:0000a8ec       AcpiDmPromoteSubtree       000000018000b8ec f   dmopcode.obj
 0001:0000b244       AcpiDmAddressCommon        000000018000c244 f   dmresrcl.obj
 0001:0000b330       AcpiDmAddressFields        000000018000c330 f   dmresrcl.obj
 0001:0000b3e8       AcpiDmAddressFlags         000000018000c3e8 f   dmresrcl.obj
 0001:0000b410       AcpiDmAddressPrefix        000000018000c410 f   dmresrcl.obj
 0001:0000b458       AcpiDmIoFlags              000000018000c458 f   dmresrcl.obj
 0001:0000b4c0       AcpiDmIoFlags2             000000018000c4c0 f   dmresrcl.obj
 0001:0000b518       AcpiDmMemoryFields         000000018000c518 f   dmresrcl.obj
 0001:0000b5a0       AcpiDmMemoryFlags          000000018000c5a0 f   dmresrcl.obj
 0001:0000b630       AcpiDmMemoryFlags2         000000018000c630 f   dmresrcl.obj
 0001:0000b668       AcpiDmResourceSource       000000018000c668 f   dmresrcl.obj
 0001:0000b6e0       AcpiDmSpaceFlags           000000018000c6e0 f   dmresrcl.obj
 0001:0000bf48       AcpiDmCsi2SerialBusDescriptor 000000018000cf48 f   dmresrcl2.obj
 0001:0000c070       AcpiDmI2cSerialBusDescriptor 000000018000d070 f   dmresrcl2.obj
 0001:0000c1b4       AcpiDmSpiSerialBusDescriptor 000000018000d1b4 f   dmresrcl2.obj
 0001:0000c344       AcpiDmUartSerialBusDescriptor 000000018000d344 f   dmresrcl2.obj
 0001:0000c4dc       AcpiDmDumpRawDataBuffer    000000018000d4dc f   dmresrcl2.obj
 0001:0000c5d0       AcpiDmDumpSerialBusVendorData 000000018000d5d0 f   dmresrcl2.obj
 0001:0000c638       AcpiDmGpioCommon           000000018000d638 f   dmresrcl2.obj
 0001:0000c7c0       AcpiDmGpioIntDescriptor    000000018000d7c0 f   dmresrcl2.obj
 0001:0000c88c       AcpiDmGpioIoDescriptor     000000018000d88c f   dmresrcl2.obj
 0001:0000c964       AcpiDmPinConfig            000000018000d964 f   dmresrcl2.obj
 0001:0000d19c       AcpiDmDescendingOp         000000018000e19c f   dmwalk.obj
 0001:0000d75c       AcpiDmAscendingOp          000000018000e75c f   dmwalk.obj
 0001:0000dffc       AcpiDsExecuteArguments     000000018000effc f   dsargs.obj
 0001:0000e950       AcpiDsPrintNodePathname    000000018000f950 f   dsdebug.obj
 0001:0000f35c       AcpiDsGetFieldNames        000000018001035c f   dsfield.obj
 0001:0000f944       AcpiDsInitOneObject        0000000180010944 f   dsinit.obj
 0001:0001057c       AcpiDsDetectNamedOpcodes   000000018001157c f   dsmethod.obj
 0001:00010624       AcpiDsCreateMethodMutex    0000000180011624 f   dsmethod.obj
 0001:00010ff4       AcpiDsMethodDataDeleteValue 0000000180011ff4 f   dsmthdat.obj
 0001:00011098       AcpiDsMethodDataSetValue   0000000180012098 f   dsmthdat.obj
 0001:00012210       AcpiDsInitBufferField      0000000180013210 f   dsopcode.obj
 0001:00012978       AcpiDsResolvePackageElement 0000000180013978 f   dspkginit.obj
 0001:000169ac       AcpiDsResultStackPop       00000001800179ac f   dswstate.obj
 0001:00016ab4       AcpiDsResultStackPush      0000000180017ab4 f   dswstate.obj
 0001:00016e40       AcpiEvFixedEventDispatch   0000000180017e40 f   evevent.obj
 0001:00016ee4       AcpiEvFixedEventInitialize 0000000180017ee4 f   evevent.obj
 0001:0001738c       AcpiEvGlobalLockHandler    000000018001838c f   evglock.obj
 0001:00017e04       AcpiEvAsynchExecuteGpeMethod 0000000180018e04 f   evgpe.obj
 0001:00017f4c       AcpiEvAsynchEnableGpe      0000000180018f4c f   evgpe.obj
 0001:00018508       AcpiEvCreateGpeInfoBlocks  0000000180019508 f   evgpeblk.obj
 0001:00018738       AcpiEvInstallGpeBlock      0000000180019738 f   evgpeblk.obj
 0001:00019744       AcpiEvInstallHandler       000000018001a744 f   evhandler.obj
 0001:00019b78       AcpiEvNotifyDispatch       000000018001ab78 f   evmisc.obj
 0001:0001a7a8       AcpiEvRegRun               000000018001b7a8 f   evregion.obj
 0001:0001a800       AcpiEvExecuteOrphanRegMethod 000000018001b800 f   evregion.obj
 0001:0001b478       AcpiEvSciXruptHandler      000000018001c478 f   evsci.obj
 0001:0001c3e0       AcpiEvInstallGpeHandler    000000018001d3e0 f   evxface.obj
 0001:0001debc       AcpiInstallAddressSpaceHandlerInternal 000000018001eebc f   evxfregn.obj
 0001:0001e3d8       AcpiExConvertToObjectTypeString 000000018001f3d8 f   exconcat.obj
 0001:0001eb08       AcpiExAddTable             000000018001fb08 f   exconfig.obj
 0001:0001ebac       AcpiExRegionRead           000000018001fbac f   exconfig.obj
 0001:0001f3a0       AcpiExConvertToAscii       00000001800203a0 f   exconvrt.obj
 0001:000208d4       AcpiExDumpObject           00000001800218d4 f   exdump.obj
 0001:00020d48       AcpiExDumpPackageObj       0000000180021d48 f   exdump.obj
 0001:00020edc       AcpiExDumpReferenceObj     0000000180021edc f   exdump.obj
 0001:00020fd8       AcpiExOutPointer           0000000180021fd8 f   exdump.obj
 0001:00020fec       AcpiExOutString            0000000180021fec f   exdump.obj
 0001:00022008       AcpiExFieldDatumIo         0000000180023008 f   exfldio.obj
 0001:00022380       AcpiExRegisterOverflow     0000000180023380 f   exfldio.obj
 0001:000223cc       AcpiExSetupRegion          00000001800233cc f   exfldio.obj
 0001:000233cc       AcpiExLinkMutex            00000001800243cc f   exmutex.obj
 0001:00023788       AcpiExAllocateNameString   0000000180024788 f   exnames.obj
 0001:000238ac       AcpiExNameSegment          00000001800248ac f   exnames.obj
 0001:00025464       AcpiExDoMatch              0000000180026464 f   exoparg6.obj
 0001:00025a74       AcpiExDecodeFieldAccess    0000000180026a74 f   exprep.obj
 0001:00026b28       AcpiExResolveObjectToValue 0000000180027b28 f   exresolv.obj
 0001:0002768c       AcpiExCheckObjectType      000000018002868c f   exresop.obj
 0001:00028224       AcpiExStoreDirectToNode    0000000180029224 f   exstore.obj
 0001:00028344       AcpiExStoreObjectToIndex   0000000180029344 f   exstore.obj
 0001:00029200       AcpiExGetTraceEventName    000000018002a200 f   extrace.obj
 0001:00029230       AcpiExInterpreterTraceEnabled 000000018002a230 f   extrace.obj
 0001:000296ec       AcpiExDigitsNeeded         000000018002a6ec f   exutils.obj
 0001:0002a274       AcpiHwEnableWakeupGpeBlock 000000018002b274 f   hwgpe.obj
 0001:0002a2bc       AcpiHwGetGpeBlockStatus    000000018002b2bc f   hwgpe.obj
 0001:0002a324       AcpiHwGpeEnableWrite       000000018002b324 f   hwgpe.obj
 0001:0002a3e0       AcpiHwBuildPciList         000000018002b3e0 f   hwpci.obj
 0001:0002a478       AcpiHwDeletePciList        000000018002b478 f   hwpci.obj
 0001:0002a4b0       AcpiHwGetPciDeviceInfo     000000018002b4b0 f   hwpci.obj
 0001:0002a5b8       AcpiHwProcessPciList       000000018002b5b8 f   hwpci.obj
 0001:0002afc8       AcpiHwGetAccessBitWidth    000000018002bfc8 f   hwregs.obj
 0001:0002b0cc       AcpiHwReadMultiple         000000018002c0cc f   hwregs.obj
 0001:0002b134       AcpiHwWriteMultiple        000000018002c134 f   hwregs.obj
 0001:0002b95c       AcpiHwValidateIoRequest    000000018002c95c f   hwvalid.obj
 0001:0002c57c       AcpiHwSetFirmwareWakingVector 000000018002d57c f   hwxfsleep.obj
 0001:0002c600       AcpiHwSleepDispatch        000000018002d600 f   hwxfsleep.obj
 0001:0002e8b4       AcpiNsDumpOneObjectPath    000000018002f8b4 f   nsdump.obj
 0001:0002e980       AcpiNsGetMaxDepth          000000018002f980 f   nsdump.obj
 0001:0002f4a4       AcpiNsInitOneObject        00000001800304a4 f   nsinit.obj
 0001:0002f5f4       AcpiNsInitOneDevice        00000001800305f4 f   nsinit.obj
 0001:0002f7e8       AcpiNsFindIniMethods       00000001800307e8 f   nsinit.obj
 0001:00030fd8       AcpiNsCheckReference       0000000180031fd8 f   nspredef.obj
 0001:0003103c       AcpiNsGetBitmappedType     000000018003203c f   nspredef.obj
 0001:00031570       AcpiNsCheckPackageElements 0000000180032570 f   nsprepkg.obj
 0001:000316b8       AcpiNsCheckPackageList     00000001800326b8 f   nsprepkg.obj
 0001:00031930       AcpiNsCustomPackage        0000000180032930 f   nsprepkg.obj
 0001:00032070       AcpiNsMatchSimpleRepair    0000000180033070 f   nsrepair.obj
 0001:00032160       AcpiNsRepair_ALR           0000000180033160 f   nsrepair2.obj
 0001:0003219c       AcpiNsRepair_CID           000000018003319c f   nsrepair2.obj
 0001:000322cc       AcpiNsRepair_CST           00000001800332cc f   nsrepair2.obj
 0001:000323c8       AcpiNsRepair_FDE           00000001800333c8 f   nsrepair2.obj
 0001:000324e8       AcpiNsRepair_HID           00000001800334e8 f   nsrepair2.obj
 0001:0003266c       AcpiNsRepair_PRT           000000018003366c f   nsrepair2.obj
 0001:00032710       AcpiNsRepair_PSS           0000000180033710 f   nsrepair2.obj
 0001:000327d8       AcpiNsRepair_TSS           00000001800337d8 f   nsrepair2.obj
 0001:0003283c       AcpiNsCheckSortedList      000000018003383c f   nsrepair2.obj
 0001:000329b0       AcpiNsMatchComplexRepair   00000001800339b0 f   nsrepair2.obj
 0001:000329cc       AcpiNsRemoveElement        00000001800339cc f   nsrepair2.obj
 0001:00032a58       AcpiNsSortList             0000000180033a58 f   nsrepair2.obj
 0001:0003306c       AcpiNsSearchParentTree     000000018003406c f   nssearch.obj
 0001:000349a4       AcpiNsGetDeviceCallback    00000001800359a4 f   nsxfeval.obj
 0001:00034b1c       AcpiNsResolveReferences    0000000180035b1c f   nsxfeval.obj
 0001:0003520c       AcpiNsCopyDeviceId         000000018003620c f   nsxfname.obj
 0001:00035e44       AcpiPsFreeFieldList        0000000180036e44 f   psargs.obj
 0001:00035e8c       AcpiPsGetNextField         0000000180036e8c f   psargs.obj
 0001:00036100       AcpiPsGetNextPackageLength 0000000180037100 f   psargs.obj
 0001:00036764       AcpiPsGetArguments         0000000180037764 f   psloop.obj
 0001:0003744c       AcpiPsGetAmlOpcode         000000018003844c f   psobject.obj
 0001:00038cc0       AcpiPsUpdateParameterList  0000000180039cc0 f   psxface.obj
 0001:000395a8       AcpiRsCountSetBits         000000018003a5a8 f   rscalc.obj
 0001:000395d0       AcpiRsStreamOptionLength   000000018003a5d0 f   rscalc.obj
 0001:0003960c       AcpiRsStructOptionLength   000000018003a60c f   rscalc.obj
 0001:0003a0c0       AcpiRsDumpAddressCommon    000000018003b0c0 f   rsdump.obj
 0001:0003a12c       AcpiRsDumpByteList         000000018003b12c f   rsdump.obj
 0001:0003a18c       AcpiRsDumpDescriptor       000000018003b18c f   rsdump.obj
 0001:0003a3e0       AcpiRsDumpDwordList        000000018003b3e0 f   rsdump.obj
 0001:0003a430       AcpiRsDumpResourceLabel    000000018003b430 f   rsdump.obj
 0001:0003a468       AcpiRsDumpResourceSource   000000018003b468 f   rsdump.obj
 0001:0003a4ac       AcpiRsDumpShortByteList    000000018003b4ac f   rsdump.obj
 0001:0003a4f0       AcpiRsDumpWordList         000000018003b4f0 f   rsdump.obj
 0001:0003a544       AcpiRsOutInteger16         000000018003b544 f   rsdump.obj
 0001:0003a558       AcpiRsOutInteger32         000000018003b558 f   rsdump.obj
 0001:0003a56c       AcpiRsOutInteger64         000000018003b56c f   rsdump.obj
 0001:0003a588       AcpiRsOutInteger8          000000018003b588 f   rsdump.obj
 0001:0003a59c       AcpiRsOutString            000000018003b59c f   rsdump.obj
 0001:0003a5dc       AcpiRsOutTitle             000000018003b5dc f   rsdump.obj
 0001:0003ba7c       AcpiRsStrcpy               000000018003ca7c f   rsutils.obj
 0001:0003c180       AcpiRsMatchVendorResource  000000018003d180 f   rsxface.obj
 0001:0003c208       AcpiRsValidateParameters   000000018003d208 f   rsxface.obj
 0001:0003d0c4       AcpiTbCheckDuplication     000000018003e0c4 f   tbdata.obj
 0001:0003d1c0       AcpiTbCompareTables        000000018003e1c0 f   tbdata.obj
 0001:0003d3c0       AcpiTbConvertFadt          000000018003e3c0 f   tbfadt.obj
 0001:0003d634       AcpiTbInitGenericAddress   000000018003e634 f   tbfadt.obj
 0001:0003d6b4       AcpiTbSelectAddress        000000018003e6b4 f   tbfadt.obj
 0001:0003d730       AcpiTbSetupFadtRegisters   000000018003e730 f   tbfadt.obj
 0001:0003dfb0       AcpiTbCleanupTableHeader   000000018003efb0 f   tbprint.obj
 0001:0003e000       AcpiTbFixString            000000018003f000 f   tbprint.obj
 0001:0003e5ac       AcpiTbGetRootTableEntry    000000018003f5ac f   tbutils.obj
 0001:000408cc       AcpiUtCopyIelementToIelement 00000001800418cc f   utcopy.obj
 0001:000409a0       AcpiUtCopyIelementToEelement 00000001800419a0 f   utcopy.obj
 0001:00040a4c       AcpiUtCopyEpackageToIpackage 0000000180041a4c f   utcopy.obj
 0001:00040b78       AcpiUtCopyEsimpleToIsimple 0000000180041b78 f   utcopy.obj
 0001:00040d48       AcpiUtCopyIpackageToEpackage 0000000180041d48 f   utcopy.obj
 0001:00040e10       AcpiUtCopyIpackageToIpackage 0000000180041e10 f   utcopy.obj
 0001:00040f00       AcpiUtCopyIsimpleToEsimple 0000000180041f00 f   utcopy.obj
 0001:000410dc       AcpiUtCopySimpleObject     00000001800420dc f   utcopy.obj
 0001:000418d8       AcpiUtTrimFunctionName     00000001800428d8 f   utdebug.obj
 0001:00042040       AcpiUtDeleteInternalObj    0000000180043040 f   utdelete.obj
 0001:000425ec       AcpiUtUpdateRefCount       00000001800435ec f   utdelete.obj
 0001:00043a0c       AcpiUtFreeGpeLists         0000000180044a0c f   utinit.obj
 0001:00043acc       AcpiUtTerminate            0000000180044acc f   utinit.obj
 0001:000448f0       AcpiUtCreateMutex          00000001800458f0 f   utmutex.obj
 0001:00044988       AcpiUtDeleteMutex          0000000180045988 f   utmutex.obj
 0001:00045388       AcpiUtGetElementLength     0000000180046388 f   utobject.obj
 0001:000453d8       AcpiUtGetPackageObjectSize 00000001800463d8 f   utobject.obj
 0001:0004549c       AcpiUtGetSimpleObjectSize  000000018004649c f   utobject.obj
 0001:000469ac       AcpiUtInsertDigit          00000001800479ac f   utstrsuppt.obj
 0001:000469f0       AcpiUtStrtoulAdd64         00000001800479f0 f   utstrsuppt.obj
 0001:00046a28       AcpiUtStrtoulMultiply64    0000000180047a28 f   utstrsuppt.obj
 0001:0004738c       AcpiUtFindAllocation       000000018004838c f   uttrack.obj
 0001:000473bc       AcpiUtRemoveAllocation     00000001800483bc f   uttrack.obj
 0001:000474b0       AcpiUtTrackAllocation      00000001800484b0 f   uttrack.obj
 0001:00048418       AcpiUtGetMutexObject       0000000180049418 f   utxfmutex.obj
 0001:00048648       AcpiDbRunRemoteDebugger    0000000180049648 f   osgendbg.obj
 0001:0004901c       AeDisplayMethodCallStack   000000018004a01c f   aeexception.obj
 0001:00049fe4       AeNotifyHandler1           000000018004afe4 f   aehandlers.obj
 0001:00049ff8       AeNotifyHandler2           000000018004aff8 f   aehandlers.obj
 0001:0004a00c       AeDeviceNotifyHandler      000000018004b00c f   aehandlers.obj
 0001:0004a090       AeTableHandler             000000018004b090 f   aehandlers.obj
 0001:0004a10c       AeAttachedDataHandler      000000018004b10c f   aehandlers.obj
 0001:0004a16c       AeAttachedDataHandler2     000000018004b16c f   aehandlers.obj
 0001:0004a1cc       AeInterfaceHandler         000000018004b1cc f   aehandlers.obj
 0001:0004a244       AeEventHandler             000000018004b244 f   aehandlers.obj
 0001:0004a250       AeSciHandler               000000018004b250 f   aehandlers.obj
 0001:0004a270       AeSystemNotifyHandler      000000018004b270 f   aehandlers.obj
 0001:0004a2f0       AeCommonNotifyHandler      000000018004b2f0 f   aehandlers.obj
 0001:0004a3ac       AeInstallSciHandler        000000018004b3ac f   aehandlers.obj
 0001:0004ab94       AeRegionInit               000000018004bb94 f   aeinstall.obj
 0001:0004abac       AeInstallEcHandler         000000018004bbac f   aeinstall.obj
 0001:0004ac14       AeInstallPciHandler        000000018004bc14 f   aeinstall.obj
 0001:0004acc0       AeInstallGedHandler        000000018004bcc0 f   aeinstall.obj
 0001:0004b0b8       AeDoOptions                000000018004c0b8 f   aemain.obj
 0001:0004b530       usage                      000000018004c530 f   aemain.obj
 0001:0004c83c       AeInitializeTableHeader    000000018004d83c f   aetables.obj
 0001:0004d5b0       AeGlobalAddressRangeCheck  000000018004e5b0 f   aetests.obj
 0001:0004d648       AeHardwareInterfaces       000000018004e648 f   aetests.obj
 0001:0004d828       AeMutexInterfaces          000000018004e828 f   aetests.obj
 0001:0004d8d8       AeTestSleepData            000000018004e8d8 f   aetests.obj
 0001:0004dc8c       _StdOutPutChar             000000018004ec8c f   toroC64:osifUefiShellEntryPoint.obj
 0001:0004dcd4       _StdInGetChar              000000018004ecd4 f   toroC64:osifUefiShellEntryPoint.obj
 0001:0004e3e4       __CdeChkCtrlC              000000018004f3e4 f   toroC64:osifUefiShellEntryPoint.obj
 0001:0004f238       __fputcpp                  0000000180050238 f   toroC64:Vfprintf.obj
 0001:00050a08       $LN275                     0000000180051a08     toroC64:_cdeCoreVwxPrintf.obj
 0001:00050a8c       ExpFieldOfDouble           0000000180051a8c f   toroC64:_cdeCoreVwxPrintf.obj
 0001:00050aa0       FractBinDigits             0000000180051aa0 f   toroC64:_cdeCoreVwxPrintf.obj
 0001:00050b08       FractFieldOfDouble         0000000180051b08 f   toroC64:_cdeCoreVwxPrintf.obj
 0001:00050b1c       IntgrBinDigits             0000000180051b1c f   toroC64:_cdeCoreVwxPrintf.obj
 0001:00050b64       fract2bcd                  0000000180051b64 f   toroC64:_cdeCoreVwxPrintf.obj
 0001:00050c3c       intgr2bcd                  0000000180051c3c f   toroC64:_cdeCoreVwxPrintf.obj
 0001:00050d3c       nfill                      0000000180051d3c f   toroC64:_cdeCoreVwxPrintf.obj
 0001:00050dac       nprintfield                0000000180051dac f   toroC64:_cdeCoreVwxPrintf.obj
 0001:00051244       num2str                    0000000180052244 f   toroC64:_cdeCoreVwxPrintf.obj
 0001:000513a8       str2dev                    00000001800523a8 f   toroC64:_cdeCoreVwxPrintf.obj
 0001:00052260       GetCharAndCount            0000000180053260 f   toroC64:_cdeCoreVwxScanf.obj
 0001:0005228c       IsCharInNumberRange        000000018005328c f   toroC64:_cdeCoreVwxScanf.obj
 0001:00052300       StoreTerminate             0000000180053300 f   toroC64:_cdeCoreVwxScanf.obj
 0001:00052360       UngetCharAndDecount        0000000180053360 f   toroC64:_cdeCoreVwxScanf.obj
 0001:00052380       inrange                    0000000180053380 f   toroC64:_cdeCoreVwxScanf.obj
 0001:000523a8       str2num                    00000001800533a8 f   toroC64:_cdeCoreVwxScanf.obj
 0001:00052e54       __insertFree               0000000180053e54 f   toroC64:_cdeCoreMemRealloc.obj
 0001:00053234       bcd2int                    0000000180054234 f   toroC64:osifIbmAtGetTime.obj
 0001:0005324c       inside                     000000018005424c f   toroC64:osifIbmAtGetTime.obj
 0001:0005325c       rtcrd8                     000000018005425c f   toroC64:osifIbmAtGetTime.obj
 0001:00053310       GetACPICount               0000000180054310 f   toroC64:osifUefiShellGetTscPerSec.obj
 0001:00053b0c       __CdeFsEnum                0000000180054b0c f   toroC64:osifUefiShellFileOpen.obj
 0001:00053cac       __CdeIsFsEnum              0000000180054cac f   toroC64:osifUefiShellFileOpen.obj
 0001:00053cc0       efifopen                   0000000180054cc0 f   toroC64:osifUefiShellFileOpen.obj
 0001:0005436c       __cdeReadDirectory         000000018005536c f   toroC64:osifUefiShellFileFindAll.obj
 0001:0005470c       myConIOClr                 000000018005570c f   toroC64:osifUefiShellCmdExec.obj
 0001:00054718       myEFI_FILE_WRITE           0000000180055718 f   toroC64:osifUefiShellCmdExec.obj
 0001:00055320       $$000000                   0000000180056320     toroC64:setjmp64CDEINTRINABI.obj
 0001:00055630       $$000000                   0000000180056630     toroC64:CdeGetCurrentPrivilegeLevel64.obj
 0001:00055634       freeCDEABI                 0000000180056634 f   toroC64:FreeCDEABI.obj
 0001:00055640       fcloseCDEABI               0000000180056640 f   toroC64:FcloseCDEABI.obj
 0001:0005570c       fgetcCDEABI                000000018005670c f   toroC64:FgetcCDEABI.obj
 0001:00055760       fwriteCDEABI               0000000180056760 f   toroC64:FwriteCDEABI.obj
 0001:000557b8       sprintfCDEABI              00000001800567b8 f   toroC64:SprintfCDEABI.obj
 0001:000557e4       raiseCDEABI                00000001800567e4 f   toroC64:raiseCDEABI.obj
 0001:00055868       strcmpCDEABI               0000000180056868 f   toroC64:StrCmpCDEABI.obj
 0001:000558a4       fprintfCDEABI              00000001800568a4 f   toroC64:FprintfCDEABI.obj
 0001:00055fa0       $$000000                   0000000180056fa0     toroC64:longjmp64CDEINTRINABI.obj
 0001:00056080       invalid_parameter_handler  0000000180057080 f   toroC64:_invalid_parameter_handler.obj
 0001:00056298       strlenCDEABI               0000000180057298 f   toroC64:StrLenCDEABI.obj
 0001:000562ac       wcslenCDEABI               00000001800572ac f   toroC64:WcsLenCDEABI.obj
 0001:00056310       isspaceCDEABI              0000000180057310 f   toroC64:isspaceCDEABI.obj
 0001:00056328       isdigitCDEABI              0000000180057328 f   toroC64:isdigitCDEABI.obj
 0001:0005633c       isxdigitCDEABI             000000018005733c f   toroC64:isxdigitCDEABI.obj
 0001:000563d4       _mktime64CDEABI            00000001800573d4 f   toroC64:mktimeCDEABI.obj
 0001:00056460       mktimeCDEABI               0000000180057460 f   toroC64:mktimeCDEABI.obj
 0001:00056610       wcschrCDEABI               0000000180057610 f   toroC64:WcsChrCDEABI.obj
 0001:00056648       wcscatCDEABI               0000000180057648 f   toroC64:WcsCatCDEABI.obj
 0001:0005667c       wcscpyCDEABI               000000018005767c f   toroC64:WcsCpyCDEABI.obj
 0001:000566b4       wcsncmpCDEABI              00000001800576b4 f   toroC64:WcsNCmpCDEABI.obj
 0001:000566fc       wcsncpyCDEABI              00000001800576fc f   toroC64:WcsNCpyCDEABI.obj
 0001:00056740       wcstokCDEABI               0000000180057740 f   toroC64:WcsTokCDEABI.obj
 0001:00056790       _wcsicmpCDEABI             0000000180057790 f   toroC64:_WcsICmpCDEABI.obj
 0001:000567cc       _stricmpCDEABI             00000001800577cc f   toroC64:_StrICmpCDEABI.obj
 0001:000568f0       mallocCDEABI               00000001800578f0 f   toroC64:MallocCDEABI.obj
 0001:000568fc       wcsrchrCDEABI              00000001800578fc f   toroC64:WcsRChrCDEABI.obj
 0001:00056954       _errnoCDEABI               0000000180057954 f   toroC64:errnoCDEABI.obj
 0001:00056978       fopenCDEABI                0000000180057978 f   toroC64:FopenCDEABI.obj
 0001:00056bcc       freadCDEABI                0000000180057bcc f   toroC64:FreadCDEABI.obj
 0001:00056c24       fseekCDEABI                0000000180057c24 f   toroC64:FseekCDEABI.obj
 0001:00056c2c       strchrCDEABI               0000000180057c2c f   toroC64:StrChrCDEABI.obj
 0001:00056c60       reallocCDEABI              0000000180057c60 f   toroC64:ReallocCDEABI.obj
 0001:00056c98       wcstombsCDEABI             0000000180057c98 f   toroC64:wcstombsCDEABI.obj
 0001:00056ce8       mbstowcsCDEABI             0000000180057ce8 f   toroC64:mbstowcsCDEABI.obj
 0001:00056d10       abortCDEABI                0000000180057d10 f   toroC64:abortCDEABI.obj
 0001:00056d84       strncpyCDEABI              0000000180057d84 f   toroC64:StrNCpyCDEABI.obj
 0001:00056dc8       strncmpCDEABI              0000000180057dc8 f   toroC64:StrNCmpCDEABI.obj
 0001:00056e10       strcpyCDEABI               0000000180057e10 f   toroC64:StrCpyCDEABI.obj
 0001:00056e48       strcatCDEABI               0000000180057e48 f   toroC64:StrCatCDEABI.obj
 0001:00056e7c       strtolCDEABI               0000000180057e7c f   toroC64:strtolCDEABI.obj
 0001:00056f3c       strstrCDEABI               0000000180057f3c f   toroC64:StrStrCDEABI.obj
 0001:00056f80       _strnicmpCDEABI            0000000180057f80 f   toroC64:_StrNICmpCDEABI.obj
 0001:00056fc8       toupperCDEABI              0000000180057fc8 f   toroC64:toupperCDEABI.obj
 0001:00057040       wcsstrCDEABI               0000000180058040 f   toroC64:WcsStrCDEABI.obj
 0001:00057198       fflushCDEABI               0000000180058198 f   toroC64:FflushCDEABI.obj
 0001:000571bc       removeCDEABI               00000001800581bc f   toroC64:RemoveCDEABI.obj
 0001:00057234       invalid_parameter_handler  0000000180058234 f   toroC64:_invalid_parameter_handlerCDEABI.obj
 0001:000572b8       vsnprintfCDEABI            00000001800582b8 f   toroC64:VsnprintfCDEABI.obj
 0001:00057384       __fputcpp                  0000000180058384 f   toroC64:VfprintfCDEABI.obj
 0001:00057394       vfprintfCDEABI             0000000180058394 f   toroC64:VfprintfCDEABI.obj
 0001:000578f4       wcspbrkCDEABI              00000001800588f4 f   toroC64:WcsPbrkCDEABI.obj
 0001:00057938       memcpyCDEABI               0000000180058938 f   toroC64:MemCpyCDEABI.obj
 0001:000579cc       strpbrkCDEABI              00000001800589cc f   toroC64:StrPbrkCDEABI.obj
 0001:00057a0c       exitCDEABI                 0000000180058a0c f   toroC64:exitCDEABI.obj
 0001:00057a34       islowerCDEABI              0000000180058a34 f   toroC64:islowerCDEABI.obj
 0001:00057a8c       fputcCDEABI                0000000180058a8c f   toroC64:FputcCDEABI.obj
 0002:00000040       _AcpiModuleName            0000000180059040     acfileio.obj
 0002:00000050       ?_AcpiFunctionName@?1??AcValidateTableHeader@@9@9 0000000180059050     acfileio.obj
 0002:000033b8       _AcpiModuleName            000000018005c3b8     dbcmds.obj
 0002:000033c0       ?_AcpiFunctionName@?1??AcpiDbSleep@@9@9 000000018005c3c0     dbcmds.obj
 0002:00003e38       _AcpiModuleName            000000018005ce38     dbconvert.obj
 0002:00004068       _AcpiModuleName            000000018005d068     dbdisply.obj
 0002:00004950       _AcpiModuleName            000000018005d950     dbexec.obj
 0002:00004958       ?_AcpiFunctionName@?1??AcpiDbExecuteMethod@@9@9 000000018005d958     dbexec.obj
 0002:00004fa0       _AcpiModuleName            000000018005dfa0     dbinput.obj
 0002:00004fb0       AcpiGbl_DbCommands         000000018005dfb0     dbinput.obj
 0002:00005400       AcpiGbl_DbCommandHelp      000000018005e400     dbinput.obj
 0002:000075e0       _AcpiModuleName            00000001800605e0     dbmethod.obj
 0002:000077b0       _AcpiModuleName            00000001800607b0     dbnames.obj
 0002:0000892c       _AcpiModuleName            000000018006192c     dbtest.obj
 0002:00008d58       _AcpiModuleName            0000000180061d58     dbutils.obj
 0002:00008e98       _AcpiModuleName            0000000180061e98     dbxface.obj
 0002:00008ea0       ?_AcpiFunctionName@?1??AcpiInitializeDebugger@@9@9 0000000180061ea0     dbxface.obj
 0002:00009050       _AcpiModuleName            0000000180062050     dmbuffer.obj
 0002:00009270       _AcpiModuleName            0000000180062270     dmdeferred.obj
 0002:00009280       ?_AcpiFunctionName@?1??AcpiDmParseDeferredOps@@9@9 0000000180062280     dmdeferred.obj
 0002:00009298       ?_AcpiFunctionName@?1??AcpiDmDeferredParse@@9@9 0000000180062298     dmdeferred.obj
 0002:000092f8       _AcpiModuleName            00000001800622f8     dmnames.obj
 0002:00009348       _AcpiModuleName            0000000180062348     dmopcode.obj
 0002:00009e98       _AcpiModuleName            0000000180062e98     dsargs.obj
 0002:00009ea0       ?_AcpiFunctionName@?1??AcpiDsExecuteArguments@@9@9 0000000180062ea0     dsargs.obj
 0002:00009eb8       ?_AcpiFunctionName@?1??AcpiDsGetBufferFieldArguments@@9@9 0000000180062eb8     dsargs.obj
 0002:00009ed8       ?_AcpiFunctionName@?1??AcpiDsGetBankFieldArguments@@9@9 0000000180062ed8     dsargs.obj
 0002:00009ef0       ?_AcpiFunctionName@?1??AcpiDsGetBufferArguments@@9@9 0000000180062ef0     dsargs.obj
 0002:00009f08       ?_AcpiFunctionName@?1??AcpiDsGetPackageArguments@@9@9 0000000180062f08     dsargs.obj
 0002:00009f20       ?_AcpiFunctionName@?1??AcpiDsGetRegionArguments@@9@9 0000000180062f20     dsargs.obj
 0002:0000a048       _AcpiModuleName            0000000180063048     dscontrol.obj
 0002:0000a058       ?_AcpiFunctionName@?1??AcpiDsExecBeginControlOp@@9@9 0000000180063058     dscontrol.obj
 0002:0000a070       ?_AcpiFunctionName@?1??AcpiDsExecEndControlOp@@9@9 0000000180063070     dscontrol.obj
 0002:0000a188       _AcpiModuleName            0000000180063188     dsdebug.obj
 0002:0000a190       ?_AcpiFunctionName@?1??AcpiDsPrintNodePathname@@9@9 0000000180063190     dsdebug.obj
 0002:0000a1a8       ?_AcpiFunctionName@?1??AcpiDsDumpMethodStack@@9@9 00000001800631a8     dsdebug.obj
 0002:0000a270       _AcpiModuleName            0000000180063270     dsfield.obj
 0002:0000a278       ?_AcpiFunctionName@?1??AcpiDsCreateBufferField@@9@9 0000000180063278     dsfield.obj
 0002:0000a290       ?_AcpiFunctionName@?1??AcpiDsGetFieldNames@@9@9 0000000180063290     dsfield.obj
 0002:0000a2a0       ?_AcpiFunctionName@?1??AcpiDsCreateField@@9@9 00000001800632a0     dsfield.obj
 0002:0000a2b0       ?_AcpiFunctionName@?1??AcpiDsInitFieldObjects@@9@9 00000001800632b0     dsfield.obj
 0002:0000a2c8       ?_AcpiFunctionName@?1??AcpiDsCreateBankField@@9@9 00000001800632c8     dsfield.obj
 0002:0000a2e0       ?_AcpiFunctionName@?1??AcpiDsCreateIndexField@@9@9 00000001800632e0     dsfield.obj
 0002:0000a3d0       _AcpiModuleName            00000001800633d0     dsinit.obj
 0002:0000a3d8       ?_AcpiFunctionName@?1??AcpiDsInitializeObjects@@9@9 00000001800633d8     dsinit.obj
 0002:0000a520       _AcpiModuleName            0000000180063520     dsmethod.obj
 0002:0000a530       ?_AcpiFunctionName@?1??AcpiDsAutoSerializeMethod@@9@9 0000000180063530     dsmethod.obj
 0002:0000a548       ?_AcpiFunctionName@?1??AcpiDsDetectNamedOpcodes@@9@9 0000000180063548     dsmethod.obj
 0002:0000a568       ?_AcpiFunctionName@?1??AcpiDsCreateMethodMutex@@9@9 0000000180063568     dsmethod.obj
 0002:0000a580       ?_AcpiFunctionName@?1??AcpiDsBeginMethodExecution@@9@9 0000000180063580     dsmethod.obj
 0002:0000a598       ?_AcpiFunctionName@?1??AcpiDsCallControlMethod@@9@9 0000000180063598     dsmethod.obj
 0002:0000a5b0       ?_AcpiFunctionName@?1??AcpiDsRestartControlMethod@@9@9 00000001800635b0     dsmethod.obj
 0002:0000a5c8       ?_AcpiFunctionName@?1??AcpiDsTerminateControlMethod@@9@9 00000001800635c8     dsmethod.obj
 0002:0000a888       _AcpiModuleName            0000000180063888     dsmthdat.obj
 0002:0000a898       ?_AcpiFunctionName@?1??AcpiDsMethodDataInit@@9@9 0000000180063898     dsmthdat.obj
 0002:0000a8b0       ?_AcpiFunctionName@?1??AcpiDsMethodDataDeleteAll@@9@9 00000001800638b0     dsmthdat.obj
 0002:0000a8c8       ?_AcpiFunctionName@?1??AcpiDsMethodDataInitArgs@@9@9 00000001800638c8     dsmthdat.obj
 0002:0000a8e0       ?_AcpiFunctionName@?1??AcpiDsMethodDataGetNode@@9@9 00000001800638e0     dsmthdat.obj
 0002:0000a8f8       ?_AcpiFunctionName@?1??AcpiDsMethodDataSetValue@@9@9 00000001800638f8     dsmthdat.obj
 0002:0000a910       ?_AcpiFunctionName@?1??AcpiDsMethodDataGetValue@@9@9 0000000180063910     dsmthdat.obj
 0002:0000a928       ?_AcpiFunctionName@?1??AcpiDsMethodDataDeleteValue@@9@9 0000000180063928     dsmthdat.obj
 0002:0000a940       ?_AcpiFunctionName@?1??AcpiDsStoreObjectToLocal@@9@9 0000000180063940     dsmthdat.obj
 0002:0000ab40       _AcpiModuleName            0000000180063b40     dsobject.obj
 0002:0000ab50       ?_AcpiFunctionName@?1??AcpiDsBuildInternalObject@@9@9 0000000180063b50     dsobject.obj
 0002:0000ab68       ?_AcpiFunctionName@?1??AcpiDsBuildInternalBufferObj@@9@9 0000000180063b68     dsobject.obj
 0002:0000ab88       ?_AcpiFunctionName@?1??AcpiDsCreateNode@@9@9 0000000180063b88     dsobject.obj
 0002:0000ab98       ?_AcpiFunctionName@?1??AcpiDsInitObjectFromOp@@9@9 0000000180063b98     dsobject.obj
 0002:0000ad00       _AcpiModuleName            0000000180063d00     dsopcode.obj
 0002:0000ad10       ?_AcpiFunctionName@?1??AcpiDsInitBufferField@@9@9 0000000180063d10     dsopcode.obj
 0002:0000ad28       ?_AcpiFunctionName@?1??AcpiDsEvalBufferFieldOperands@@9@9 0000000180063d28     dsopcode.obj
 0002:0000ad48       ?_AcpiFunctionName@?1??AcpiDsEvalRegionOperands@@9@9 0000000180063d48     dsopcode.obj
 0002:0000ad60       ?_AcpiFunctionName@?1??AcpiDsEvalTableRegionOperands@@9@9 0000000180063d60     dsopcode.obj
 0002:0000ad80       ?_AcpiFunctionName@?1??AcpiDsEvalDataObjectOperands@@9@9 0000000180063d80     dsopcode.obj
 0002:0000ada0       ?_AcpiFunctionName@?1??AcpiDsEvalBankFieldOperands@@9@9 0000000180063da0     dsopcode.obj
 0002:0000afc0       _AcpiModuleName            0000000180063fc0     dspkginit.obj
 0002:0000afd0       ?_AcpiFunctionName@?1??AcpiDsBuildInternalPackageObj@@9@9 0000000180063fd0     dspkginit.obj
 0002:0000aff0       ?_AcpiFunctionName@?1??AcpiDsInitPackageElement@@9@9 0000000180063ff0     dspkginit.obj
 0002:0000b008       ?_AcpiFunctionName@?1??AcpiDsResolvePackageElement@@9@9 0000000180064008     dspkginit.obj
 0002:0000b208       _AcpiModuleName            0000000180064208     dsutils.obj
 0002:0000b210       ?_AcpiFunctionName@?1??AcpiDsClearImplicitReturn@@9@9 0000000180064210     dsutils.obj
 0002:0000b228       ?_AcpiFunctionName@?1??AcpiDsDoImplicitReturn@@9@9 0000000180064228     dsutils.obj
 0002:0000b240       ?_AcpiFunctionName@?1??AcpiDsIsResultUsed@@9@9 0000000180064240     dsutils.obj
 0002:0000b250       ?_AcpiFunctionName@?1??AcpiDsDeleteResultIfNotUsed@@9@9 0000000180064250     dsutils.obj
 0002:0000b268       ?_AcpiFunctionName@?1??AcpiDsResolveOperands@@9@9 0000000180064268     dsutils.obj
 0002:0000b280       ?_AcpiFunctionName@?1??AcpiDsClearOperands@@9@9 0000000180064280     dsutils.obj
 0002:0000b290       ?_AcpiFunctionName@?1??AcpiDsCreateOperand@@9@9 0000000180064290     dsutils.obj
 0002:0000b2a0       ?_AcpiFunctionName@?1??AcpiDsCreateOperands@@9@9 00000001800642a0     dsutils.obj
 0002:0000b2b8       ?_AcpiFunctionName@?1??AcpiDsEvaluateNamePath@@9@9 00000001800642b8     dsutils.obj
 0002:0000b4a0       _AcpiModuleName            00000001800644a0     dswexec.obj
 0002:0000b4a8       ?_AcpiFunctionName@?1??AcpiDsGetPredicateValue@@9@9 00000001800644a8     dswexec.obj
 0002:0000b4c0       ?_AcpiFunctionName@?1??AcpiDsExecBeginOp@@9@9 00000001800644c0     dswexec.obj
 0002:0000b4d0       ?_AcpiFunctionName@?1??AcpiDsExecEndOp@@9@9 00000001800644d0     dswexec.obj
 0002:0000b810       _AcpiModuleName            0000000180064810     dswload.obj
 0002:0000b818       ?_AcpiFunctionName@?1??AcpiDsLoad1BeginOp@@9@9 0000000180064818     dswload.obj
 0002:0000b828       ?_AcpiFunctionName@?1??AcpiDsLoad1EndOp@@9@9 0000000180064828     dswload.obj
 0002:0000b9c0       _AcpiModuleName            00000001800649c0     dswload2.obj
 0002:0000b9d0       ?_AcpiFunctionName@?1??AcpiDsLoad2BeginOp@@9@9 00000001800649d0     dswload2.obj
 0002:0000b9e0       ?_AcpiFunctionName@?1??AcpiDsLoad2EndOp@@9@9 00000001800649e0     dswload2.obj
 0002:0000bb58       _AcpiModuleName            0000000180064b58     dswscope.obj
 0002:0000bb68       ?_AcpiFunctionName@?1??AcpiDsScopeStackClear@@9@9 0000000180064b68     dswscope.obj
 0002:0000bb80       ?_AcpiFunctionName@?1??AcpiDsScopeStackPush@@9@9 0000000180064b80     dswscope.obj
 0002:0000bb98       ?_AcpiFunctionName@?1??AcpiDsScopeStackPop@@9@9 0000000180064b98     dswscope.obj
 0002:0000bc88       _AcpiModuleName            0000000180064c88     dswstate.obj
 0002:0000bc98       ?_AcpiFunctionName@?1??AcpiDsResultPop@@9@9 0000000180064c98     dswstate.obj
 0002:0000bca8       ?_AcpiFunctionName@?1??AcpiDsResultPush@@9@9 0000000180064ca8     dswstate.obj
 0002:0000bcb8       ?_AcpiFunctionName@?1??AcpiDsResultStackPush@@9@9 0000000180064cb8     dswstate.obj
 0002:0000bcd0       ?_AcpiFunctionName@?1??AcpiDsResultStackPop@@9@9 0000000180064cd0     dswstate.obj
 0002:0000bce8       ?_AcpiFunctionName@?1??AcpiDsObjStackPush@@9@9 0000000180064ce8     dswstate.obj
 0002:0000bcf8       ?_AcpiFunctionName@?1??AcpiDsObjStackPop@@9@9 0000000180064cf8     dswstate.obj
 0002:0000bd08       ?_AcpiFunctionName@?1??AcpiDsObjStackPopAndDelete@@9@9 0000000180064d08     dswstate.obj
 0002:0000bd20       ?_AcpiFunctionName@?1??AcpiDsGetCurrentWalkState@@9@9 0000000180064d20     dswstate.obj
 0002:0000bd38       ?_AcpiFunctionName@?1??AcpiDsPushWalkState@@9@9 0000000180064d38     dswstate.obj
 0002:0000bd48       ?_AcpiFunctionName@?1??AcpiDsPopWalkState@@9@9 0000000180064d48     dswstate.obj
 0002:0000bd58       ?_AcpiFunctionName@?1??AcpiDsCreateWalkState@@9@9 0000000180064d58     dswstate.obj
 0002:0000bd70       ?_AcpiFunctionName@?1??AcpiDsInitAmlWalk@@9@9 0000000180064d70     dswstate.obj
 0002:0000bd80       ?_AcpiFunctionName@?1??AcpiDsDeleteWalkState@@9@9 0000000180064d80     dswstate.obj
 0002:0000c100       _AcpiModuleName            0000000180065100     evevent.obj
 0002:0000c108       ?_AcpiFunctionName@?1??AcpiEvInitializeEvents@@9@9 0000000180065108     evevent.obj
 0002:0000c120       ?_AcpiFunctionName@?1??AcpiEvInstallXruptHandlers@@9@9 0000000180065120     evevent.obj
 0002:0000c138       ?_AcpiFunctionName@?1??AcpiEvFixedEventDetect@@9@9 0000000180065138     evevent.obj
 0002:0000c280       _AcpiModuleName            0000000180065280     evglock.obj
 0002:0000c288       ?_AcpiFunctionName@?1??AcpiEvInitGlobalLockHandler@@9@9 0000000180065288     evglock.obj
 0002:0000c2a0       ?_AcpiFunctionName@?1??AcpiEvRemoveGlobalLockHandler@@9@9 00000001800652a0     evglock.obj
 0002:0000c2c0       ?_AcpiFunctionName@?1??AcpiEvAcquireGlobalLock@@9@9 00000001800652c0     evglock.obj
 0002:0000c2d8       ?_AcpiFunctionName@?1??AcpiEvReleaseGlobalLock@@9@9 00000001800652d8     evglock.obj
 0002:0000c3f8       _AcpiModuleName            00000001800653f8     evgpe.obj
 0002:0000c400       ?_AcpiFunctionName@?1??AcpiEvUpdateGpeEnableMask@@9@9 0000000180065400     evgpe.obj
 0002:0000c418       ?_AcpiFunctionName@?1??AcpiEvEnableGpe@@9@9 0000000180065418     evgpe.obj
 0002:0000c428       ?_AcpiFunctionName@?1??AcpiEvMaskGpe@@9@9 0000000180065428     evgpe.obj
 0002:0000c438       ?_AcpiFunctionName@?1??AcpiEvAddGpeReference@@9@9 0000000180065438     evgpe.obj
 0002:0000c450       ?_AcpiFunctionName@?1??AcpiEvRemoveGpeReference@@9@9 0000000180065450     evgpe.obj
 0002:0000c468       ?_AcpiFunctionName@?1??AcpiEvGpeDetect@@9@9 0000000180065468     evgpe.obj
 0002:0000c478       ?_AcpiFunctionName@?1??AcpiEvAsynchExecuteGpeMethod@@9@9 0000000180065478     evgpe.obj
 0002:0000c498       ?_AcpiFunctionName@?1??AcpiEvDetectGpe@@9@9 0000000180065498     evgpe.obj
 0002:0000c4a8       ?_AcpiFunctionName@?1??AcpiEvGpeDispatch@@9@9 00000001800654a8     evgpe.obj
 0002:0000c648       _AcpiModuleName            0000000180065648     evgpeblk.obj
 0002:0000c658       ?_AcpiFunctionName@?1??AcpiEvInstallGpeBlock@@9@9 0000000180065658     evgpeblk.obj
 0002:0000c670       ?_AcpiFunctionName@?1??AcpiEvDeleteGpeBlock@@9@9 0000000180065670     evgpeblk.obj
 0002:0000c688       ?_AcpiFunctionName@?1??AcpiEvCreateGpeInfoBlocks@@9@9 0000000180065688     evgpeblk.obj
 0002:0000c6a0       ?_AcpiFunctionName@?1??AcpiEvCreateGpeBlock@@9@9 00000001800656a0     evgpeblk.obj
 0002:0000c6b8       ?_AcpiFunctionName@?1??AcpiEvInitializeGpeBlock@@9@9 00000001800656b8     evgpeblk.obj
 0002:0000c7d0       _AcpiModuleName            00000001800657d0     evgpeinit.obj
 0002:0000c7e0       ?_AcpiFunctionName@?1??AcpiEvGpeInitialize@@9@9 00000001800657e0     evgpeinit.obj
 0002:0000c7f0       ?_AcpiFunctionName@?1??AcpiEvMatchGpeMethod@@9@9 00000001800657f0     evgpeinit.obj
 0002:0000ca48       _AcpiModuleName            0000000180065a48     evgpeutil.obj
 0002:0000ca58       ?_AcpiFunctionName@?1??AcpiEvWalkGpeList@@9@9 0000000180065a58     evgpeutil.obj
 0002:0000ca68       ?_AcpiFunctionName@?1??AcpiEvGetGpeXruptBlock@@9@9 0000000180065a68     evgpeutil.obj
 0002:0000ca80       ?_AcpiFunctionName@?1??AcpiEvDeleteGpeXrupt@@9@9 0000000180065a80     evgpeutil.obj
 0002:0000ca98       ?_AcpiFunctionName@?1??AcpiEvDeleteGpeHandlers@@9@9 0000000180065a98     evgpeutil.obj
 0002:0000cae8       _AcpiModuleName            0000000180065ae8     evhandler.obj
 0002:0000caf8       ?_AcpiFunctionName@?1??AcpiEvInstallRegionHandlers@@9@9 0000000180065af8     evhandler.obj
 0002:0000cb10       ?_AcpiFunctionName@?1??AcpiEvInstallHandler@@9@9 0000000180065b10     evhandler.obj
 0002:0000cb28       ?_AcpiFunctionName@?1??AcpiEvInstallSpaceHandler@@9@9 0000000180065b28     evhandler.obj
 0002:0000cc08       _AcpiModuleName            0000000180065c08     evmisc.obj
 0002:0000cc10       ?_AcpiFunctionName@?1??AcpiEvQueueNotifyRequest@@9@9 0000000180065c10     evmisc.obj
 0002:0000cc28       ?_AcpiFunctionName@?1??AcpiEvTerminate@@9@9 0000000180065c28     evmisc.obj
 0002:0000cd88       _AcpiModuleName            0000000180065d88     evregion.obj
 0002:0000cd98       ?_AcpiFunctionName@?1??AcpiEvInitializeOpRegions@@9@9 0000000180065d98     evregion.obj
 0002:0000cdb0       ?_AcpiFunctionName@?1??AcpiEvAddressSpaceDispatch@@9@9 0000000180065db0     evregion.obj
 0002:0000cdc8       ?_AcpiFunctionName@?1??AcpiEvDetachRegion@@9@9 0000000180065dc8     evregion.obj
 0002:0000cdd8       ?_AcpiFunctionName@?1??AcpiEvAttachRegion@@9@9 0000000180065dd8     evregion.obj
 0002:0000cde8       ?_AcpiFunctionName@?1??AcpiEvExecuteRegMethod@@9@9 0000000180065de8     evregion.obj
 0002:0000ce00       ?_AcpiFunctionName@?1??AcpiEvExecuteRegMethods@@9@9 0000000180065e00     evregion.obj
 0002:0000ce18       ?_AcpiFunctionName@?1??AcpiEvExecuteOrphanRegMethod@@9@9 0000000180065e18     evregion.obj
 0002:0000d0a8       _AcpiModuleName            00000001800660a8     evrgnini.obj
 0002:0000d0b8       ?_AcpiFunctionName@?1??AcpiEvSystemMemoryRegionSetup@@9@9 00000001800660b8     evrgnini.obj
 0002:0000d0d8       ?_AcpiFunctionName@?1??AcpiEvIoSpaceRegionSetup@@9@9 00000001800660d8     evrgnini.obj
 0002:0000d0f0       ?_AcpiFunctionName@?1??AcpiEvPciConfigRegionSetup@@9@9 00000001800660f0     evrgnini.obj
 0002:0000d108       ?_AcpiFunctionName@?1??AcpiEvPciBarRegionSetup@@9@9 0000000180066108     evrgnini.obj
 0002:0000d120       ?_AcpiFunctionName@?1??AcpiEvCmosRegionSetup@@9@9 0000000180066120     evrgnini.obj
 0002:0000d138       ?_AcpiFunctionName@?1??AcpiEvDataTableRegionSetup@@9@9 0000000180066138     evrgnini.obj
 0002:0000d150       ?_AcpiFunctionName@?1??AcpiEvDefaultRegionSetup@@9@9 0000000180066150     evrgnini.obj
 0002:0000d168       ?_AcpiFunctionName@?1??AcpiEvInitializeRegion@@9@9 0000000180066168     evrgnini.obj
 0002:0000d278       _AcpiModuleName            0000000180066278     evsci.obj
 0002:0000d280       ?_AcpiFunctionName@?1??AcpiEvSciXruptHandler@@9@9 0000000180066280     evsci.obj
 0002:0000d298       ?_AcpiFunctionName@?1??AcpiEvGpeXruptHandler@@9@9 0000000180066298     evsci.obj
 0002:0000d2b0       ?_AcpiFunctionName@?1??AcpiEvInstallSciHandler@@9@9 00000001800662b0     evsci.obj
 0002:0000d2c8       ?_AcpiFunctionName@?1??AcpiEvRemoveAllSciHandlers@@9@9 00000001800662c8     evsci.obj
 0002:0000d2e0       _AcpiModuleName            00000001800662e0     evxface.obj
 0002:0000d2e8       ?_AcpiFunctionName@?1??AcpiInstallNotifyHandler@@9@9 00000001800662e8     evxface.obj
 0002:0000d308       ?_AcpiFunctionName@?1??AcpiRemoveNotifyHandler@@9@9 0000000180066308     evxface.obj
 0002:0000d320       ?_AcpiFunctionName@?1??AcpiInstallExceptionHandler@@9@9 0000000180066320     evxface.obj
 0002:0000d340       ?_AcpiFunctionName@?1??AcpiInstallSciHandler@@9@9 0000000180066340     evxface.obj
 0002:0000d358       ?_AcpiFunctionName@?1??AcpiRemoveSciHandler@@9@9 0000000180066358     evxface.obj
 0002:0000d370       ?_AcpiFunctionName@?1??AcpiInstallGlobalEventHandler@@9@9 0000000180066370     evxface.obj
 0002:0000d390       ?_AcpiFunctionName@?1??AcpiInstallFixedEventHandler@@9@9 0000000180066390     evxface.obj
 0002:0000d3b0       ?_AcpiFunctionName@?1??AcpiRemoveFixedEventHandler@@9@9 00000001800663b0     evxface.obj
 0002:0000d3d0       ?_AcpiFunctionName@?1??AcpiEvInstallGpeHandler@@9@9 00000001800663d0     evxface.obj
 0002:0000d3e8       ?_AcpiFunctionName@?1??AcpiInstallGpeHandler@@9@9 00000001800663e8     evxface.obj
 0002:0000d400       ?_AcpiFunctionName@?1??AcpiInstallGpeRawHandler@@9@9 0000000180066400     evxface.obj
 0002:0000d420       ?_AcpiFunctionName@?1??AcpiRemoveGpeHandler@@9@9 0000000180066420     evxface.obj
 0002:0000d518       _AcpiModuleName            0000000180066518     evxfevnt.obj
 0002:0000d528       ?_AcpiFunctionName@?1??AcpiEnable@@9@9 0000000180066528     evxfevnt.obj
 0002:0000d538       ?_AcpiFunctionName@?1??AcpiDisable@@9@9 0000000180066538     evxfevnt.obj
 0002:0000d548       ?_AcpiFunctionName@?1??AcpiEnableEvent@@9@9 0000000180066548     evxfevnt.obj
 0002:0000d558       ?_AcpiFunctionName@?1??AcpiDisableEvent@@9@9 0000000180066558     evxfevnt.obj
 0002:0000d570       ?_AcpiFunctionName@?1??AcpiClearEvent@@9@9 0000000180066570     evxfevnt.obj
 0002:0000d580       ?_AcpiFunctionName@?1??AcpiGetEventStatus@@9@9 0000000180066580     evxfevnt.obj
 0002:0000d6b8       _AcpiModuleName            00000001800666b8     evxfgpe.obj
 0002:0000d6c0       ?_AcpiFunctionName@?1??AcpiUpdateAllGpes@@9@9 00000001800666c0     evxfgpe.obj
 0002:0000d6d8       ?_AcpiFunctionName@?1??AcpiEnableGpe@@9@9 00000001800666d8     evxfgpe.obj
 0002:0000d6e8       ?_AcpiFunctionName@?1??AcpiDisableGpe@@9@9 00000001800666e8     evxfgpe.obj
 0002:0000d6f8       ?_AcpiFunctionName@?1??AcpiSetGpe@@9@9 00000001800666f8     evxfgpe.obj
 0002:0000d708       ?_AcpiFunctionName@?1??AcpiMaskGpe@@9@9 0000000180066708     evxfgpe.obj
 0002:0000d718       ?_AcpiFunctionName@?1??AcpiMarkGpeForWake@@9@9 0000000180066718     evxfgpe.obj
 0002:0000d730       ?_AcpiFunctionName@?1??AcpiSetupGpeForWake@@9@9 0000000180066730     evxfgpe.obj
 0002:0000d748       ?_AcpiFunctionName@?1??AcpiSetGpeWakeMask@@9@9 0000000180066748     evxfgpe.obj
 0002:0000d760       ?_AcpiFunctionName@?1??AcpiClearGpe@@9@9 0000000180066760     evxfgpe.obj
 0002:0000d770       ?_AcpiFunctionName@?1??AcpiGetGpeStatus@@9@9 0000000180066770     evxfgpe.obj
 0002:0000d788       ?_AcpiFunctionName@?1??AcpiDispatchGpe@@9@9 0000000180066788     evxfgpe.obj
 0002:0000d7a0       ?_AcpiFunctionName@?1??AcpiFinishGpe@@9@9 00000001800667a0     evxfgpe.obj
 0002:0000d7b0       ?_AcpiFunctionName@?1??AcpiDisableAllGpes@@9@9 00000001800667b0     evxfgpe.obj
 0002:0000d7c8       ?_AcpiFunctionName@?1??AcpiEnableAllRuntimeGpes@@9@9 00000001800667c8     evxfgpe.obj
 0002:0000d7e8       ?_AcpiFunctionName@?1??AcpiEnableAllWakeupGpes@@9@9 00000001800667e8     evxfgpe.obj
 0002:0000d800       ?_AcpiFunctionName@?1??AcpiAnyGpeStatusSet@@9@9 0000000180066800     evxfgpe.obj
 0002:0000d818       ?_AcpiFunctionName@?1??AcpiInstallGpeBlock@@9@9 0000000180066818     evxfgpe.obj
 0002:0000d830       ?_AcpiFunctionName@?1??AcpiRemoveGpeBlock@@9@9 0000000180066830     evxfgpe.obj
 0002:0000d848       ?_AcpiFunctionName@?1??AcpiGetGpeDevice@@9@9 0000000180066848     evxfgpe.obj
 0002:0000d878       _AcpiModuleName            0000000180066878     evxfregn.obj
 0002:0000d888       ?_AcpiFunctionName@?1??AcpiInstallAddressSpaceHandlerInternal@@9@9 0000000180066888     evxfregn.obj
 0002:0000d8a8       ?_AcpiFunctionName@?1??AcpiRemoveAddressSpaceHandler@@9@9 00000001800668a8     evxfregn.obj
 0002:0000d8c8       ?_AcpiFunctionName@?1??AcpiExecuteRegMethods@@9@9 00000001800668c8     evxfregn.obj
 0002:0000d968       _AcpiModuleName            0000000180066968     exconcat.obj
 0002:0000d978       ?_AcpiFunctionName@?1??AcpiExDoConcatenate@@9@9 0000000180066978     exconcat.obj
 0002:0000d988       ?_AcpiFunctionName@?1??AcpiExConcatTemplate@@9@9 0000000180066988     exconcat.obj
 0002:0000d9b0       _AcpiModuleName            00000001800669b0     exconfig.obj
 0002:0000d9c0       ?_AcpiFunctionName@?1??AcpiExAddTable@@9@9 00000001800669c0     exconfig.obj
 0002:0000d9d0       ?_AcpiFunctionName@?1??AcpiExLoadTableOp@@9@9 00000001800669d0     exconfig.obj
 0002:0000d9e0       ?_AcpiFunctionName@?1??AcpiExLoadOp@@9@9 00000001800669e0     exconfig.obj
 0002:0000d9f0       ?_AcpiFunctionName@?1??AcpiExUnloadTable@@9@9 00000001800669f0     exconfig.obj
 0002:0000dad0       _AcpiModuleName            0000000180066ad0     exconvrt.obj
 0002:0000dae0       ?_AcpiFunctionName@?1??AcpiExConvertToInteger@@9@9 0000000180066ae0     exconvrt.obj
 0002:0000daf8       ?_AcpiFunctionName@?1??AcpiExConvertToBuffer@@9@9 0000000180066af8     exconvrt.obj
 0002:0000db10       ?_AcpiFunctionName@?1??AcpiExConvertToString@@9@9 0000000180066b10     exconvrt.obj
 0002:0000db28       ?_AcpiFunctionName@?1??AcpiExConvertToTargetType@@9@9 0000000180066b28     exconvrt.obj
 0002:0000dc08       _AcpiModuleName            0000000180066c08     excreate.obj
 0002:0000dc18       ?_AcpiFunctionName@?1??AcpiExCreateAlias@@9@9 0000000180066c18     excreate.obj
 0002:0000dc28       ?_AcpiFunctionName@?1??AcpiExCreateEvent@@9@9 0000000180066c28     excreate.obj
 0002:0000dc38       ?_AcpiFunctionName@?1??AcpiExCreateMutex@@9@9 0000000180066c38     excreate.obj
 0002:0000dc48       ?_AcpiFunctionName@?1??AcpiExCreateRegion@@9@9 0000000180066c48     excreate.obj
 0002:0000dc58       ?_AcpiFunctionName@?1??AcpiExCreateProcessor@@9@9 0000000180066c58     excreate.obj
 0002:0000dc70       ?_AcpiFunctionName@?1??AcpiExCreatePowerResource@@9@9 0000000180066c70     excreate.obj
 0002:0000dc88       ?_AcpiFunctionName@?1??AcpiExCreateMethod@@9@9 0000000180066c88     excreate.obj
 0002:0000dce8       _AcpiModuleName            0000000180066ce8     exdebug.obj
 0002:0000dcf0       ?_AcpiFunctionName@?1??AcpiExDoDebugObject@@9@9 0000000180066cf0     exdebug.obj
 0002:0000def0       _AcpiModuleName            0000000180066ef0     exdump.obj
 0002:0000def8       AcpiExDumpInteger          0000000180066ef8     exdump.obj
 0002:0000df10       AcpiExDumpString           0000000180066f10     exdump.obj
 0002:0000df38       AcpiExDumpBuffer           0000000180066f38     exdump.obj
 0002:0000df70       AcpiExDumpPackage          0000000180066f70     exdump.obj
 0002:0000dfb0       AcpiExDumpDevice           0000000180066fb0     exdump.obj
 0002:0000dfd8       AcpiExDumpEvent            0000000180066fd8     exdump.obj
 0002:0000dff0       AcpiExDumpMethod           0000000180066ff0     exdump.obj
 0002:0000e050       AcpiExDumpMutex            0000000180067050     exdump.obj
 0002:0000e090       AcpiExDumpRegion           0000000180067090     exdump.obj
 0002:0000e0e0       AcpiExDumpPower            00000001800670e0     exdump.obj
 0002:0000e120       AcpiExDumpProcessor        0000000180067120     exdump.obj
 0002:0000e168       AcpiExDumpThermal          0000000180067168     exdump.obj
 0002:0000e190       AcpiExDumpBufferField      0000000180067190     exdump.obj
 0002:0000e1b0       AcpiExDumpRegionField      00000001800671b0     exdump.obj
 0002:0000e1e8       AcpiExDumpBankField        00000001800671e8     exdump.obj
 0002:0000e220       AcpiExDumpIndexField       0000000180067220     exdump.obj
 0002:0000e260       AcpiExDumpReference        0000000180067260     exdump.obj
 0002:0000e2c0       AcpiExDumpAddressHandler   00000001800672c0     exdump.obj
 0002:0000e300       AcpiExDumpNotify           0000000180067300     exdump.obj
 0002:0000e348       AcpiExDumpExtra            0000000180067348     exdump.obj
 0002:0000e388       AcpiExDumpData             0000000180067388     exdump.obj
 0002:0000e3a8       AcpiExDumpCommon           00000001800673a8     exdump.obj
 0002:0000e3e0       AcpiExDumpFieldCommon      00000001800673e0     exdump.obj
 0002:0000e430       AcpiExDumpNode             0000000180067430     exdump.obj
 0002:0000e478       ?_AcpiFunctionName@?1??AcpiExDumpOperand@@9@9 0000000180067478     exdump.obj
 0002:0000e488       ?_AcpiFunctionName@?1??AcpiExDumpOperands@@9@9 0000000180067488     exdump.obj
 0002:0000e498       ?_AcpiFunctionName@?1??AcpiExDumpObjectDescriptor@@9@9 0000000180067498     exdump.obj
 0002:0000ef48       _AcpiModuleName            0000000180067f48     exfield.obj
 0002:0000ef50       ?_AcpiFunctionName@?1??AcpiExReadDataFromField@@9@9 0000000180067f50     exfield.obj
 0002:0000ef68       ?_AcpiFunctionName@?1??AcpiExWriteDataToField@@9@9 0000000180067f68     exfield.obj
 0002:0000ef80       AcpiProtocolLengths        0000000180067f80     exfield.obj
 0002:0000f108       _AcpiModuleName            0000000180068108     exfldio.obj
 0002:0000f110       ?_AcpiFunctionName@?1??AcpiExSetupRegion@@9@9 0000000180068110     exfldio.obj
 0002:0000f120       ?_AcpiFunctionName@?1??AcpiExAccessRegion@@9@9 0000000180068120     exfldio.obj
 0002:0000f130       ?_AcpiFunctionName@?1??AcpiExFieldDatumIo@@9@9 0000000180068130     exfldio.obj
 0002:0000f140       ?_AcpiFunctionName@?1??AcpiExWriteWithUpdateRule@@9@9 0000000180068140     exfldio.obj
 0002:0000f158       ?_AcpiFunctionName@?1??AcpiExExtractFromField@@9@9 0000000180068158     exfldio.obj
 0002:0000f170       ?_AcpiFunctionName@?1??AcpiExInsertIntoField@@9@9 0000000180068170     exfldio.obj
 0002:0000f4e0       _AcpiModuleName            00000001800684e0     exmisc.obj
 0002:0000f4e8       ?_AcpiFunctionName@?1??AcpiExGetObjectReference@@9@9 00000001800684e8     exmisc.obj
 0002:0000f500       ?_AcpiFunctionName@?1??AcpiExDoLogicalNumericOp@@9@9 0000000180068500     exmisc.obj
 0002:0000f518       ?_AcpiFunctionName@?1??AcpiExDoLogicalOp@@9@9 0000000180068518     exmisc.obj
 0002:0000f610       _AcpiModuleName            0000000180068610     exmutex.obj
 0002:0000f618       ?_AcpiFunctionName@?1??AcpiExAcquireMutexObject@@9@9 0000000180068618     exmutex.obj
 0002:0000f630       ?_AcpiFunctionName@?1??AcpiExAcquireMutex@@9@9 0000000180068630     exmutex.obj
 0002:0000f640       ?_AcpiFunctionName@?1??AcpiExReleaseMutexObject@@9@9 0000000180068640     exmutex.obj
 0002:0000f658       ?_AcpiFunctionName@?1??AcpiExReleaseMutex@@9@9 0000000180068658     exmutex.obj
 0002:0000f668       ?_AcpiFunctionName@?1??AcpiExReleaseAllMutexes@@9@9 0000000180068668     exmutex.obj
 0002:0000f970       _AcpiModuleName            0000000180068970     exnames.obj
 0002:0000f978       ?_AcpiFunctionName@?1??AcpiExAllocateNameString@@9@9 0000000180068978     exnames.obj
 0002:0000f990       ?_AcpiFunctionName@?1??AcpiExNameSegment@@9@9 0000000180068990     exnames.obj
 0002:0000f9a0       ?_AcpiFunctionName@?1??AcpiExGetNameString@@9@9 00000001800689a0     exnames.obj
 0002:0000fb20       _AcpiModuleName            0000000180068b20     exoparg1.obj
 0002:0000fb30       ?_AcpiFunctionName@?1??AcpiExOpcode_0A_0T_1R@@9@9 0000000180068b30     exoparg1.obj
 0002:0000fb48       ?_AcpiFunctionName@?1??AcpiExOpcode_1A_0T_0R@@9@9 0000000180068b48     exoparg1.obj
 0002:0000fb60       ?_AcpiFunctionName@?1??AcpiExOpcode_1A_1T_1R@@9@9 0000000180068b60     exoparg1.obj
 0002:0000fb78       ?_AcpiFunctionName@?1??AcpiExOpcode_1A_0T_1R@@9@9 0000000180068b78     exoparg1.obj
 0002:0000fcd8       _AcpiModuleName            0000000180068cd8     exoparg2.obj
 0002:0000fce8       ?_AcpiFunctionName@?1??AcpiExOpcode_2A_0T_0R@@9@9 0000000180068ce8     exoparg2.obj
 0002:0000fd00       ?_AcpiFunctionName@?1??AcpiExOpcode_2A_2T_1R@@9@9 0000000180068d00     exoparg2.obj
 0002:0000fd18       ?_AcpiFunctionName@?1??AcpiExOpcode_2A_1T_1R@@9@9 0000000180068d18     exoparg2.obj
 0002:0000fd30       ?_AcpiFunctionName@?1??AcpiExOpcode_2A_0T_1R@@9@9 0000000180068d30     exoparg2.obj
 0002:0000fdc0       _AcpiModuleName            0000000180068dc0     exoparg3.obj
 0002:0000fdd0       ?_AcpiFunctionName@?1??AcpiExOpcode_3A_0T_0R@@9@9 0000000180068dd0     exoparg3.obj
 0002:0000fde8       ?_AcpiFunctionName@?1??AcpiExOpcode_3A_1T_1R@@9@9 0000000180068de8     exoparg3.obj
 0002:0000fe60       _AcpiModuleName            0000000180068e60     exoparg6.obj
 0002:0000fe70       ?_AcpiFunctionName@?1??AcpiExOpcode_6A_0T_1R@@9@9 0000000180068e70     exoparg6.obj
 0002:0000fed8       _AcpiModuleName            0000000180068ed8     exprep.obj
 0002:0000fee0       ?_AcpiFunctionName@?1??AcpiExDecodeFieldAccess@@9@9 0000000180068ee0     exprep.obj
 0002:0000fef8       ?_AcpiFunctionName@?1??AcpiExPrepCommonFieldObject@@9@9 0000000180068ef8     exprep.obj
 0002:0000ff10       ?_AcpiFunctionName@?1??AcpiExPrepFieldValue@@9@9 0000000180068f10     exprep.obj
 0002:00010070       _AcpiModuleName            0000000180069070     exregion.obj
 0002:00010080       ?_AcpiFunctionName@?1??AcpiExSystemMemorySpaceHandler@@9@9 0000000180069080     exregion.obj
 0002:000100a0       ?_AcpiFunctionName@?1??AcpiExSystemIoSpaceHandler@@9@9 00000001800690a0     exregion.obj
 0002:000100b8       ?_AcpiFunctionName@?1??AcpiExPciConfigSpaceHandler@@9@9 00000001800690b8     exregion.obj
 0002:000100d0       ?_AcpiFunctionName@?1??AcpiExCmosSpaceHandler@@9@9 00000001800690d0     exregion.obj
 0002:000100e8       ?_AcpiFunctionName@?1??AcpiExPciBarSpaceHandler@@9@9 00000001800690e8     exregion.obj
 0002:00010100       ?_AcpiFunctionName@?1??AcpiExDataTableSpaceHandler@@9@9 0000000180069100     exregion.obj
 0002:00010258       _AcpiModuleName            0000000180069258     exresnte.obj
 0002:00010268       ?_AcpiFunctionName@?1??AcpiExResolveNodeToValue@@9@9 0000000180069268     exresnte.obj
 0002:000103e8       _AcpiModuleName            00000001800693e8     exresolv.obj
 0002:000103f8       ?_AcpiFunctionName@?1??AcpiExResolveToValue@@9@9 00000001800693f8     exresolv.obj
 0002:00010410       ?_AcpiFunctionName@?1??AcpiExResolveObjectToValue@@9@9 0000000180069410     exresolv.obj
 0002:00010428       ?_AcpiFunctionName@?1??AcpiExResolveMultiple@@9@9 0000000180069428     exresolv.obj
 0002:000105c8       _AcpiModuleName            00000001800695c8     exresop.obj
 0002:000105d0       ?_AcpiFunctionName@?1??AcpiExResolveOperands@@9@9 00000001800695d0     exresop.obj
 0002:00010820       _AcpiModuleName            0000000180069820     exserial.obj
 0002:00010830       ?_AcpiFunctionName@?1??AcpiExReadGpio@@9@9 0000000180069830     exserial.obj
 0002:00010840       ?_AcpiFunctionName@?1??AcpiExWriteGpio@@9@9 0000000180069840     exserial.obj
 0002:00010850       ?_AcpiFunctionName@?1??AcpiExReadSerialBus@@9@9 0000000180069850     exserial.obj
 0002:00010860       ?_AcpiFunctionName@?1??AcpiExWriteSerialBus@@9@9 0000000180069860     exserial.obj
 0002:000109a8       _AcpiModuleName            00000001800699a8     exstore.obj
 0002:000109b0       ?_AcpiFunctionName@?1??AcpiExStore@@9@9 00000001800699b0     exstore.obj
 0002:000109b8       ?_AcpiFunctionName@?1??AcpiExStoreObjectToIndex@@9@9 00000001800699b8     exstore.obj
 0002:000109d0       ?_AcpiFunctionName@?1??AcpiExStoreObjectToNode@@9@9 00000001800699d0     exstore.obj
 0002:000109e8       ?_AcpiFunctionName@?1??AcpiExStoreDirectToNode@@9@9 00000001800699e8     exstore.obj
 0002:00010c20       _AcpiModuleName            0000000180069c20     exstoren.obj
 0002:00010c30       ?_AcpiFunctionName@?1??AcpiExResolveObject@@9@9 0000000180069c30     exstoren.obj
 0002:00010c40       ?_AcpiFunctionName@?1??AcpiExStoreObjectToObject@@9@9 0000000180069c40     exstoren.obj
 0002:00010ce8       _AcpiModuleName            0000000180069ce8     exstorob.obj
 0002:00010cf8       ?_AcpiFunctionName@?1??AcpiExStoreBufferToBuffer@@9@9 0000000180069cf8     exstorob.obj
 0002:00010d10       ?_AcpiFunctionName@?1??AcpiExStoreStringToString@@9@9 0000000180069d10     exstorob.obj
 0002:00010d50       _AcpiModuleName            0000000180069d50     exsystem.obj
 0002:00010d60       ?_AcpiFunctionName@?1??AcpiExSystemWaitSemaphore@@9@9 0000000180069d60     exsystem.obj
 0002:00010d78       ?_AcpiFunctionName@?1??AcpiExSystemWaitMutex@@9@9 0000000180069d78     exsystem.obj
 0002:00010d90       ?_AcpiFunctionName@?1??AcpiExSystemSignalEvent@@9@9 0000000180069d90     exsystem.obj
 0002:00010da8       ?_AcpiFunctionName@?1??AcpiExSystemWaitEvent@@9@9 0000000180069da8     exsystem.obj
 0002:00010e60       _AcpiModuleName            0000000180069e60     extrace.obj
 0002:00010e68       ?_AcpiFunctionName@?1??AcpiExTracePoint@@9@9 0000000180069e68     extrace.obj
 0002:00010ed0       _AcpiModuleName            0000000180069ed0     exutils.obj
 0002:00010ed8       ?_AcpiFunctionName@?1??AcpiExEnterInterpreter@@9@9 0000000180069ed8     exutils.obj
 0002:00010ef0       ?_AcpiFunctionName@?1??AcpiExExitInterpreter@@9@9 0000000180069ef0     exutils.obj
 0002:00010f08       ?_AcpiFunctionName@?1??AcpiExAcquireGlobalLock@@9@9 0000000180069f08     exutils.obj
 0002:00010f20       ?_AcpiFunctionName@?1??AcpiExReleaseGlobalLock@@9@9 0000000180069f20     exutils.obj
 0002:00010f38       ?_AcpiFunctionName@?1??AcpiExDigitsNeeded@@9@9 0000000180069f38     exutils.obj
 0002:00011078       _AcpiModuleName            000000018006a078     hwacpi.obj
 0002:00011080       ?_AcpiFunctionName@?1??AcpiHwSetMode@@9@9 000000018006a080     hwacpi.obj
 0002:00011090       ?_AcpiFunctionName@?1??AcpiHwGetMode@@9@9 000000018006a090     hwacpi.obj
 0002:000111d8       _AcpiModuleName            000000018006a1d8     hwesleep.obj
 0002:000111e8       ?_AcpiFunctionName@?1??AcpiHwExecuteSleepMethod@@9@9 000000018006a1e8     hwesleep.obj
 0002:00011200       ?_AcpiFunctionName@?1??AcpiHwExtendedSleep@@9@9 000000018006a200     hwesleep.obj
 0002:00011210       ?_AcpiFunctionName@?1??AcpiHwExtendedWakePrep@@9@9 000000018006a210     hwesleep.obj
 0002:00011228       ?_AcpiFunctionName@?1??AcpiHwExtendedWake@@9@9 000000018006a228     hwesleep.obj
 0002:00011290       _AcpiModuleName            000000018006a290     hwgpe.obj
 0002:00011298       ?_AcpiFunctionName@?1??AcpiHwDisableAllGpes@@9@9 000000018006a298     hwgpe.obj
 0002:000112b0       ?_AcpiFunctionName@?1??AcpiHwEnableAllRuntimeGpes@@9@9 000000018006a2b0     hwgpe.obj
 0002:000112c8       ?_AcpiFunctionName@?1??AcpiHwEnableAllWakeupGpes@@9@9 000000018006a2c8     hwgpe.obj
 0002:000112e0       ?_AcpiFunctionName@?1??AcpiHwCheckAllGpes@@9@9 000000018006a2e0     hwgpe.obj
 0002:00011310       _AcpiModuleName            000000018006a310     hwpci.obj
 0002:00011318       ?_AcpiFunctionName@?1??AcpiHwDerivePciId@@9@9 000000018006a318     hwpci.obj
 0002:00011328       ?_AcpiFunctionName@?1??AcpiHwProcessPciList@@9@9 000000018006a328     hwpci.obj
 0002:000113e0       _AcpiModuleName            000000018006a3e0     hwregs.obj
 0002:000113e8       ?_AcpiFunctionName@?1??AcpiHwRead@@9@9 000000018006a3e8     hwregs.obj
 0002:000113f0       ?_AcpiFunctionName@?1??AcpiHwWrite@@9@9 000000018006a3f0     hwregs.obj
 0002:000113f8       ?_AcpiFunctionName@?1??AcpiHwClearAcpiStatus@@9@9 000000018006a3f8     hwregs.obj
 0002:00011410       ?_AcpiFunctionName@?1??AcpiHwWritePm1Control@@9@9 000000018006a410     hwregs.obj
 0002:00011428       ?_AcpiFunctionName@?1??AcpiHwRegisterRead@@9@9 000000018006a428     hwregs.obj
 0002:00011438       ?_AcpiFunctionName@?1??AcpiHwRegisterWrite@@9@9 000000018006a438     hwregs.obj
 0002:000115b0       _AcpiModuleName            000000018006a5b0     hwsleep.obj
 0002:000115b8       ?_AcpiFunctionName@?1??AcpiHwLegacySleep@@9@9 000000018006a5b8     hwsleep.obj
 0002:000115c8       ?_AcpiFunctionName@?1??AcpiHwLegacyWakePrep@@9@9 000000018006a5c8     hwsleep.obj
 0002:000115e0       ?_AcpiFunctionName@?1??AcpiHwLegacyWake@@9@9 000000018006a5e0     hwsleep.obj
 0002:000115f0       _AcpiModuleName            000000018006a5f0     hwtimer.obj
 0002:000115f8       ?_AcpiFunctionName@?1??AcpiGetTimerResolution@@9@9 000000018006a5f8     hwtimer.obj
 0002:00011610       ?_AcpiFunctionName@?1??AcpiGetTimer@@9@9 000000018006a610     hwtimer.obj
 0002:00011620       ?_AcpiFunctionName@?1??AcpiGetTimerDuration@@9@9 000000018006a620     hwtimer.obj
 0002:00011640       _AcpiModuleName            000000018006a640     hwvalid.obj
 0002:00011650       AcpiProtectedPorts         000000018006a650     hwvalid.obj
 0002:00011760       ?_AcpiFunctionName@?1??AcpiHwValidateIoRequest@@9@9 000000018006a760     hwvalid.obj
 0002:000118c8       _AcpiModuleName            000000018006a8c8     hwxface.obj
 0002:000118d0       ?_AcpiFunctionName@?1??AcpiReset@@9@9 000000018006a8d0     hwxface.obj
 0002:000118e0       ?_AcpiFunctionName@?1??AcpiReadBitRegister@@9@9 000000018006a8e0     hwxface.obj
 0002:000118f8       ?_AcpiFunctionName@?1??AcpiWriteBitRegister@@9@9 000000018006a8f8     hwxface.obj
 0002:00011910       ?_AcpiFunctionName@?1??AcpiGetSleepTypeData@@9@9 000000018006a910     hwxface.obj
 0002:00011a28       _AcpiModuleName            000000018006aa28     hwxfsleep.obj
 0002:00011a38       ?_AcpiFunctionName@?1??AcpiHwSetFirmwareWakingVector@@9@9 000000018006aa38     hwxfsleep.obj
 0002:00011a58       ?_AcpiFunctionName@?1??AcpiSetFirmwareWakingVector@@9@9 000000018006aa58     hwxfsleep.obj
 0002:00011a78       ?_AcpiFunctionName@?1??AcpiEnterSleepStateS4bios@@9@9 000000018006aa78     hwxfsleep.obj
 0002:00011a98       ?_AcpiFunctionName@?1??AcpiEnterSleepStatePrep@@9@9 000000018006aa98     hwxfsleep.obj
 0002:00011ab0       ?_AcpiFunctionName@?1??AcpiEnterSleepState@@9@9 000000018006aab0     hwxfsleep.obj
 0002:00011ac8       ?_AcpiFunctionName@?1??AcpiLeaveSleepStatePrep@@9@9 000000018006aac8     hwxfsleep.obj
 0002:00011ae0       ?_AcpiFunctionName@?1??AcpiLeaveSleepState@@9@9 000000018006aae0     hwxfsleep.obj
 0002:00011b30       _AcpiModuleName            000000018006ab30     nsaccess.obj
 0002:00011b40       ?_AcpiFunctionName@?1??AcpiNsRootInitialize@@9@9 000000018006ab40     nsaccess.obj
 0002:00011b58       ?_AcpiFunctionName@?1??AcpiNsLookup@@9@9 000000018006ab58     nsaccess.obj
 0002:00011e98       _AcpiModuleName            000000018006ae98     nsalloc.obj
 0002:00011ea0       ?_AcpiFunctionName@?1??AcpiNsCreateNode@@9@9 000000018006aea0     nsalloc.obj
 0002:00011eb0       ?_AcpiFunctionName@?1??AcpiNsDeleteNode@@9@9 000000018006aeb0     nsalloc.obj
 0002:00011ec0       ?_AcpiFunctionName@?1??AcpiNsRemoveNode@@9@9 000000018006aec0     nsalloc.obj
 0002:00011ed0       ?_AcpiFunctionName@?1??AcpiNsInstallNode@@9@9 000000018006aed0     nsalloc.obj
 0002:00011ee0       ?_AcpiFunctionName@?1??AcpiNsDeleteChildren@@9@9 000000018006aee0     nsalloc.obj
 0002:00011ef8       ?_AcpiFunctionName@?1??AcpiNsDeleteNamespaceSubtree@@9@9 000000018006aef8     nsalloc.obj
 0002:00011f18       ?_AcpiFunctionName@?1??AcpiNsDeleteNamespaceByOwner@@9@9 000000018006af18     nsalloc.obj
 0002:00011fb0       _AcpiModuleName            000000018006afb0     nsarguments.obj
 0002:00012238       _AcpiModuleName            000000018006b238     nsconvert.obj
 0002:00012248       ?_AcpiFunctionName@?1??AcpiNsConvertToReference@@9@9 000000018006b248     nsconvert.obj
 0002:00012260       _AcpiModuleName            000000018006b260     nsdump.obj
 0002:00012268       ?_AcpiFunctionName@?1??AcpiNsPrintPathname@@9@9 000000018006b268     nsdump.obj
 0002:00012278       ?_AcpiFunctionName@?1??AcpiNsDumpOneObject@@9@9 000000018006b278     nsdump.obj
 0002:00012630       _AcpiModuleName            000000018006b630     nseval.obj
 0002:00012638       ?_AcpiFunctionName@?1??AcpiNsEvaluate@@9@9 000000018006b638     nseval.obj
 0002:000127e0       _AcpiModuleName            000000018006b7e0     nsinit.obj
 0002:000127e8       ?_AcpiFunctionName@?1??AcpiNsInitializeObjects@@9@9 000000018006b7e8     nsinit.obj
 0002:00012800       ?_AcpiFunctionName@?1??AcpiNsInitializeDevices@@9@9 000000018006b800     nsinit.obj
 0002:00012818       ?_AcpiFunctionName@?1??AcpiNsInitOneDevice@@9@9 000000018006b818     nsinit.obj
 0002:00012a98       _AcpiModuleName            000000018006ba98     nsload.obj
 0002:00012aa0       ?_AcpiFunctionName@?1??AcpiNsLoadTable@@9@9 000000018006baa0     nsload.obj
 0002:00012b30       _AcpiModuleName            000000018006bb30     nsnames.obj
 0002:00012b38       ?_AcpiFunctionName@?1??AcpiNsGetExternalPathname@@9@9 000000018006bb38     nsnames.obj
 0002:00012b50       ?_AcpiFunctionName@?1??AcpiNsHandleToName@@9@9 000000018006bb50     nsnames.obj
 0002:00012b60       ?_AcpiFunctionName@?1??AcpiNsHandleToPathname@@9@9 000000018006bb60     nsnames.obj
 0002:00012b78       ?_AcpiFunctionName@?1??AcpiNsBuildNormalizedPath@@9@9 000000018006bb78     nsnames.obj
 0002:00012b90       ?_AcpiFunctionName@?1??AcpiNsGetNormalizedPathname@@9@9 000000018006bb90     nsnames.obj
 0002:00012c30       _AcpiModuleName            000000018006bc30     nsobject.obj
 0002:00012c40       ?_AcpiFunctionName@?1??AcpiNsAttachObject@@9@9 000000018006bc40     nsobject.obj
 0002:00012c50       ?_AcpiFunctionName@?1??AcpiNsDetachObject@@9@9 000000018006bc50     nsobject.obj
 0002:00012c60       ?_AcpiFunctionName@?1??AcpiNsGetAttachedObject@@9@9 000000018006bc60     nsobject.obj
 0002:00012c78       ?_AcpiFunctionName@?1??AcpiNsGetSecondaryObject@@9@9 000000018006bc78     nsobject.obj
 0002:00012d68       _AcpiModuleName            000000018006bd68     nsparse.obj
 0002:00012d70       ?_AcpiFunctionName@?1??AcpiNsExecuteTable@@9@9 000000018006bd70     nsparse.obj
 0002:00012d80       ?_AcpiFunctionName@?1??AcpiNsOneCompleteParse@@9@9 000000018006bd80     nsparse.obj
 0002:00012d98       ?_AcpiFunctionName@?1??AcpiNsParseTable@@9@9 000000018006bd98     nsparse.obj
 0002:000137d0       _AcpiModuleName            000000018006c7d0     nspredef.obj
 0002:000137e0       ?_AcpiFunctionName@?1??AcpiNsCheckReturnValue@@9@9 000000018006c7e0     nspredef.obj
 0002:00013928       _AcpiModuleName            000000018006c928     nsprepkg.obj
 0002:00013938       ?_AcpiFunctionName@?1??AcpiNsCheckPackage@@9@9 000000018006c938     nsprepkg.obj
 0002:00013948       ?_AcpiFunctionName@?1??AcpiNsCustomPackage@@9@9 000000018006c948     nsprepkg.obj
 0002:00013958       ?_AcpiFunctionName@?1??AcpiNsCheckPackageElements@@9@9 000000018006c958     nsprepkg.obj
 0002:00013b60       _AcpiModuleName            000000018006cb60     nsrepair.obj
 0002:00013b70       AcpiObjectRepairInfo       000000018006cb70     nsrepair.obj
 0002:00013c18       ?_AcpiFunctionName@?1??AcpiNsSimpleRepair@@9@9 000000018006cc18     nsrepair.obj
 0002:00013c28       ?_AcpiFunctionName@?1??AcpiNsRepairNullElement@@9@9 000000018006cc28     nsrepair.obj
 0002:00013c40       ?_AcpiFunctionName@?1??AcpiNsRemoveNullElements@@9@9 000000018006cc40     nsrepair.obj
 0002:00013c58       ?_AcpiFunctionName@?1??AcpiNsWrapWithPackage@@9@9 000000018006cc58     nsrepair.obj
 0002:00013dd0       _AcpiModuleName            000000018006cdd0     nsrepair2.obj
 0002:00013de0       AcpiNsRepairableNames      000000018006cde0     nsrepair2.obj
 0002:00013e80       ?_AcpiFunctionName@?1??AcpiNsComplexRepairs@@9@9 000000018006ce80     nsrepair2.obj
 0002:00013e98       ?_AcpiFunctionName@?1??AcpiNsRepair_FDE@@9@9 000000018006ce98     nsrepair2.obj
 0002:00013ea8       ?_AcpiFunctionName@?1??AcpiNsRepair_CID@@9@9 000000018006cea8     nsrepair2.obj
 0002:00013eb8       ?_AcpiFunctionName@?1??AcpiNsRepair_CST@@9@9 000000018006ceb8     nsrepair2.obj
 0002:00013ec8       ?_AcpiFunctionName@?1??AcpiNsRepair_HID@@9@9 000000018006cec8     nsrepair2.obj
 0002:00013ed8       ?_AcpiFunctionName@?1??AcpiNsCheckSortedList@@9@9 000000018006ced8     nsrepair2.obj
 0002:00013ef0       ?_AcpiFunctionName@?1??AcpiNsRemoveElement@@9@9 000000018006cef0     nsrepair2.obj
 0002:00014120       _AcpiModuleName            000000018006d120     nssearch.obj
 0002:00014130       ?_AcpiFunctionName@?1??AcpiNsSearchOneScope@@9@9 000000018006d130     nssearch.obj
 0002:00014148       ?_AcpiFunctionName@?1??AcpiNsSearchParentTree@@9@9 000000018006d148     nssearch.obj
 0002:00014160       ?_AcpiFunctionName@?1??AcpiNsSearchAndEnter@@9@9 000000018006d160     nssearch.obj
 0002:00014340       _AcpiModuleName            000000018006d340     nsutils.obj
 0002:00014348       ?_AcpiFunctionName@?1??AcpiNsGetType@@9@9 000000018006d348     nsutils.obj
 0002:00014358       ?_AcpiFunctionName@?1??AcpiNsLocal@@9@9 000000018006d358     nsutils.obj
 0002:00014360       ?_AcpiFunctionName@?1??AcpiNsBuildInternalName@@9@9 000000018006d360     nsutils.obj
 0002:00014378       ?_AcpiFunctionName@?1??AcpiNsInternalizeName@@9@9 000000018006d378     nsutils.obj
 0002:00014390       ?_AcpiFunctionName@?1??AcpiNsExternalizeName@@9@9 000000018006d390     nsutils.obj
 0002:000143a8       ?_AcpiFunctionName@?1??AcpiNsTerminate@@9@9 000000018006d3a8     nsutils.obj
 0002:000143b8       ?_AcpiFunctionName@?1??AcpiNsGetNodeUnlocked@@9@9 000000018006d3b8     nsutils.obj
 0002:000143d0       ?_AcpiFunctionName@?1??AcpiNsGetNode@@9@9 000000018006d3d0     nsutils.obj
 0002:00014490       _AcpiModuleName            000000018006d490     nswalk.obj
 0002:00014498       ?_AcpiFunctionName@?1??AcpiNsWalkNamespace@@9@9 000000018006d498     nswalk.obj
 0002:000144a8       _AcpiModuleName            000000018006d4a8     nsxfeval.obj
 0002:000144b8       ?_AcpiFunctionName@?1??AcpiEvaluateObjectTyped@@9@9 000000018006d4b8     nsxfeval.obj
 0002:000144d0       ?_AcpiFunctionName@?1??AcpiEvaluateObject@@9@9 000000018006d4d0     nsxfeval.obj
 0002:000144e8       ?_AcpiFunctionName@?1??AcpiWalkNamespace@@9@9 000000018006d4e8     nsxfeval.obj
 0002:00014500       ?_AcpiFunctionName@?1??AcpiGetDevices@@9@9 000000018006d500     nsxfeval.obj
 0002:000145e0       _AcpiModuleName            000000018006d5e0     nsxfname.obj
 0002:000145f0       _AcpiModuleName            000000018006d5f0     psargs.obj
 0002:000145f8       ?_AcpiFunctionName@?1??AcpiPsGetNextPackageLength@@9@9 000000018006d5f8     psargs.obj
 0002:00014610       ?_AcpiFunctionName@?1??AcpiPsGetNextPackageEnd@@9@9 000000018006d610     psargs.obj
 0002:00014628       ?_AcpiFunctionName@?1??AcpiPsGetNextNamestring@@9@9 000000018006d628     psargs.obj
 0002:00014640       ?_AcpiFunctionName@?1??AcpiPsGetNextNamepath@@9@9 000000018006d640     psargs.obj
 0002:00014658       ?_AcpiFunctionName@?1??AcpiPsGetNextSimpleArg@@9@9 000000018006d658     psargs.obj
 0002:00014670       ?_AcpiFunctionName@?1??AcpiPsGetNextField@@9@9 000000018006d670     psargs.obj
 0002:00014680       ?_AcpiFunctionName@?1??AcpiPsGetNextArg@@9@9 000000018006d680     psargs.obj
 0002:000147f0       _AcpiModuleName            000000018006d7f0     psloop.obj
 0002:000147f8       ?_AcpiFunctionName@?1??AcpiPsGetArguments@@9@9 000000018006d7f8     psloop.obj
 0002:00014808       ?_AcpiFunctionName@?1??AcpiPsParseLoop@@9@9 000000018006d808     psloop.obj
 0002:00014970       _AcpiModuleName            000000018006d970     psobject.obj
 0002:00014980       ?_AcpiFunctionName@?1??AcpiPsGetAmlOpcode@@9@9 000000018006d980     psobject.obj
 0002:00014990       ?_AcpiFunctionName@?1??AcpiPsBuildNamedOp@@9@9 000000018006d990     psobject.obj
 0002:000149a0       ?_AcpiFunctionName@?1??AcpiPsCreateOp@@9@9 000000018006d9a0     psobject.obj
 0002:000149b0       ?_AcpiFunctionName@?1??AcpiPsCompleteOp@@9@9 000000018006d9b0     psobject.obj
 0002:000149c0       ?_AcpiFunctionName@?1??AcpiPsCompleteFinalOp@@9@9 000000018006d9c0     psobject.obj
 0002:00015dd0       _AcpiModuleName            000000018006edd0     psopinfo.obj
 0002:00015de0       ?_AcpiFunctionName@?1??AcpiPsGetOpcodeInfo@@9@9 000000018006ede0     psopinfo.obj
 0002:00015df0       AcpiGbl_ArgumentCount      000000018006edf0     psopinfo.obj
 0002:00015e28       _AcpiModuleName            000000018006ee28     psparse.obj
 0002:00015e30       ?_AcpiFunctionName@?1??AcpiPsCompleteThisOp@@9@9 000000018006ee30     psparse.obj
 0002:00015e48       ?_AcpiFunctionName@?1??AcpiPsNextParseState@@9@9 000000018006ee48     psparse.obj
 0002:00015e60       ?_AcpiFunctionName@?1??AcpiPsParseAml@@9@9 000000018006ee60     psparse.obj
 0002:00015f38       _AcpiModuleName            000000018006ef38     psscope.obj
 0002:00015f40       ?_AcpiFunctionName@?1??AcpiPsInitScope@@9@9 000000018006ef40     psscope.obj
 0002:00015f50       ?_AcpiFunctionName@?1??AcpiPsPushScope@@9@9 000000018006ef50     psscope.obj
 0002:00015f60       ?_AcpiFunctionName@?1??AcpiPsPopScope@@9@9 000000018006ef60     psscope.obj
 0002:00015f70       ?_AcpiFunctionName@?1??AcpiPsCleanupScope@@9@9 000000018006ef70     psscope.obj
 0002:00015f98       _AcpiModuleName            000000018006ef98     pstree.obj
 0002:00015fa0       ?_AcpiFunctionName@?1??AcpiPsAppendArg@@9@9 000000018006efa0     pstree.obj
 0002:00015fd0       _AcpiModuleName            000000018006efd0     psutils.obj
 0002:00015fd8       ?_AcpiFunctionName@?1??AcpiPsFreeOp@@9@9 000000018006efd8     psutils.obj
 0002:00016000       _AcpiModuleName            000000018006f000     pswalk.obj
 0002:00016008       ?_AcpiFunctionName@?1??AcpiPsDeleteParseTree@@9@9 000000018006f008     pswalk.obj
 0002:00016060       _AcpiModuleName            000000018006f060     psxface.obj
 0002:00016068       ?_AcpiFunctionName@?1??AcpiPsExecuteMethod@@9@9 000000018006f068     psxface.obj
 0002:00016078       ?_AcpiFunctionName@?1??AcpiPsExecuteTable@@9@9 000000018006f078     psxface.obj
 0002:00016148       AcpiRsConvertGeneralFlags  000000018006f148     rsaddr.obj
 0002:00016160       AcpiRsConvertMemFlags      000000018006f160     rsaddr.obj
 0002:00016178       AcpiRsConvertIoFlags       000000018006f178     rsaddr.obj
 0002:00016188       _AcpiModuleName            000000018006f188     rscalc.obj
 0002:00016190       ?_AcpiFunctionName@?1??AcpiRsGetAmlLength@@9@9 000000018006f190     rscalc.obj
 0002:000161a0       ?_AcpiFunctionName@?1??AcpiRsGetListLength@@9@9 000000018006f1a0     rscalc.obj
 0002:000161b0       ?_AcpiFunctionName@?1??AcpiRsGetPciRoutingTableLength@@9@9 000000018006f1b0     rscalc.obj
 0002:00016208       _AcpiModuleName            000000018006f208     rscreate.obj
 0002:00016218       ?_AcpiFunctionName@?1??AcpiBufferToResource@@9@9 000000018006f218     rscreate.obj
 0002:00016230       ?_AcpiFunctionName@?1??AcpiRsCreateResourceList@@9@9 000000018006f230     rscreate.obj
 0002:00016248       ?_AcpiFunctionName@?1??AcpiRsCreatePciRoutingTable@@9@9 000000018006f248     rscreate.obj
 0002:00016260       ?_AcpiFunctionName@?1??AcpiRsCreateAmlResources@@9@9 000000018006f260     rscreate.obj
 0002:00016448       _AcpiModuleName            000000018006f448     rsdump.obj
 0002:00018260       _AcpiModuleName            0000000180071260     rslist.obj
 0002:00018268       ?_AcpiFunctionName@?1??AcpiRsConvertAmlToResources@@9@9 0000000180071268     rslist.obj
 0002:00018280       ?_AcpiFunctionName@?1??AcpiRsConvertResourcesToAml@@9@9 0000000180071280     rslist.obj
 0002:00018460       _AcpiModuleName            0000000180071460     rsmisc.obj
 0002:00018468       ?_AcpiFunctionName@?1??AcpiRsConvertAmlToResource@@9@9 0000000180071468     rsmisc.obj
 0002:00018480       ?_AcpiFunctionName@?1??AcpiRsConvertResourceToAml@@9@9 0000000180071480     rsmisc.obj
 0002:000187d8       _AcpiModuleName            00000001800717d8     rsutils.obj
 0002:000187e0       ?_AcpiFunctionName@?1??AcpiRsGetPrtMethodData@@9@9 00000001800717e0     rsutils.obj
 0002:000187f8       ?_AcpiFunctionName@?1??AcpiRsGetCrsMethodData@@9@9 00000001800717f8     rsutils.obj
 0002:00018810       ?_AcpiFunctionName@?1??AcpiRsGetPrsMethodData@@9@9 0000000180071810     rsutils.obj
 0002:00018828       ?_AcpiFunctionName@?1??AcpiRsGetAeiMethodData@@9@9 0000000180071828     rsutils.obj
 0002:00018840       ?_AcpiFunctionName@?1??AcpiRsGetMethodData@@9@9 0000000180071840     rsutils.obj
 0002:00018850       ?_AcpiFunctionName@?1??AcpiRsSetSrsMethodData@@9@9 0000000180071850     rsutils.obj
 0002:00018870       _AcpiModuleName            0000000180071870     rsxface.obj
 0002:00018878       ?_AcpiFunctionName@?1??AcpiRsValidateParameters@@9@9 0000000180071878     rsxface.obj
 0002:00018890       ?_AcpiFunctionName@?1??AcpiGetIrqRoutingTable@@9@9 0000000180071890     rsxface.obj
 0002:000188a8       ?_AcpiFunctionName@?1??AcpiGetCurrentResources@@9@9 00000001800718a8     rsxface.obj
 0002:000188c0       ?_AcpiFunctionName@?1??AcpiGetPossibleResources@@9@9 00000001800718c0     rsxface.obj
 0002:000188e0       ?_AcpiFunctionName@?1??AcpiSetCurrentResources@@9@9 00000001800718e0     rsxface.obj
 0002:000188f8       ?_AcpiFunctionName@?1??AcpiGetEventResources@@9@9 00000001800718f8     rsxface.obj
 0002:00018910       ?_AcpiFunctionName@?1??AcpiWalkResourceBuffer@@9@9 0000000180071910     rsxface.obj
 0002:00018928       ?_AcpiFunctionName@?1??AcpiWalkResources@@9@9 0000000180071928     rsxface.obj
 0002:00018940       _AcpiModuleName            0000000180071940     tbdata.obj
 0002:00018948       ?_AcpiFunctionName@?1??AcpiTbValidateTable@@9@9 0000000180071948     tbdata.obj
 0002:00018958       ?_AcpiFunctionName@?1??AcpiTbInvalidateTable@@9@9 0000000180071958     tbdata.obj
 0002:00018970       ?_AcpiFunctionName@?1??AcpiTbCheckDuplication@@9@9 0000000180071970     tbdata.obj
 0002:00018988       ?_AcpiFunctionName@?1??AcpiTbVerifyTempTable@@9@9 0000000180071988     tbdata.obj
 0002:000189a0       ?_AcpiFunctionName@?1??AcpiTbResizeRootTableList@@9@9 00000001800719a0     tbdata.obj
 0002:000189b8       ?_AcpiFunctionName@?1??AcpiTbTerminate@@9@9 00000001800719b8     tbdata.obj
 0002:000189c8       ?_AcpiFunctionName@?1??AcpiTbDeleteNamespaceByOwner@@9@9 00000001800719c8     tbdata.obj
 0002:000189e8       ?_AcpiFunctionName@?1??AcpiTbAllocateOwnerId@@9@9 00000001800719e8     tbdata.obj
 0002:00018a00       ?_AcpiFunctionName@?1??AcpiTbReleaseOwnerId@@9@9 0000000180071a00     tbdata.obj
 0002:00018a18       ?_AcpiFunctionName@?1??AcpiTbGetOwnerId@@9@9 0000000180071a18     tbdata.obj
 0002:00018a28       ?_AcpiFunctionName@?1??AcpiTbLoadTable@@9@9 0000000180071a28     tbdata.obj
 0002:00018a38       ?_AcpiFunctionName@?1??AcpiTbInstallAndLoadTable@@9@9 0000000180071a38     tbdata.obj
 0002:00018a50       ?_AcpiFunctionName@?1??AcpiTbUnloadTable@@9@9 0000000180071a50     tbdata.obj
 0002:00018b74       _AcpiModuleName            0000000180071b74     tbfadt.obj
 0002:00018ea0       _AcpiModuleName            0000000180071ea0     tbfind.obj
 0002:00018ea8       ?_AcpiFunctionName@?1??AcpiTbFindTable@@9@9 0000000180071ea8     tbfind.obj
 0002:00018ed0       _AcpiModuleName            0000000180071ed0     tbinstal.obj
 0002:00018ee0       ?_AcpiFunctionName@?1??AcpiTbInstallStandardTable@@9@9 0000000180071ee0     tbinstal.obj
 0002:00018ef8       ?_AcpiFunctionName@?1??AcpiTbUninstallTable@@9@9 0000000180071ef8     tbinstal.obj
 0002:00019060       _AcpiModuleName            0000000180072060     tbutils.obj
 0002:00019068       ?_AcpiFunctionName@?1??AcpiTbParseRootTable@@9@9 0000000180072068     tbutils.obj
 0002:00019080       ?_AcpiFunctionName@?1??AcpiTbGetTable@@9@9 0000000180072080     tbutils.obj
 0002:00019090       ?_AcpiFunctionName@?1??AcpiTbPutTable@@9@9 0000000180072090     tbutils.obj
 0002:000191d0       _AcpiModuleName            00000001800721d0     tbxface.obj
 0002:000191d8       ?_AcpiFunctionName@?1??AcpiInitializeTables@@9@9 00000001800721d8     tbxface.obj
 0002:000191f0       ?_AcpiFunctionName@?1??AcpiReallocateRootTable@@9@9 00000001800721f0     tbxface.obj
 0002:00019208       ?_AcpiFunctionName@?1??AcpiPutTable@@9@9 0000000180072208     tbxface.obj
 0002:00019218       ?_AcpiFunctionName@?1??AcpiGetTableByIndex@@9@9 0000000180072218     tbxface.obj
 0002:00019230       ?_AcpiFunctionName@?1??AcpiInstallTableHandler@@9@9 0000000180072230     tbxface.obj
 0002:00019248       ?_AcpiFunctionName@?1??AcpiRemoveTableHandler@@9@9 0000000180072248     tbxface.obj
 0002:000192a0       _AcpiModuleName            00000001800722a0     tbxfload.obj
 0002:000192b0       ?_AcpiFunctionName@?1??AcpiLoadTables@@9@9 00000001800722b0     tbxfload.obj
 0002:000192c0       ?_AcpiFunctionName@?1??AcpiTbLoadNamespace@@9@9 00000001800722c0     tbxfload.obj
 0002:000192d0       ?_AcpiFunctionName@?1??AcpiInstallTable@@9@9 00000001800722d0     tbxfload.obj
 0002:000192e8       ?_AcpiFunctionName@?1??AcpiInstallPhysicalTable@@9@9 00000001800722e8     tbxfload.obj
 0002:00019308       ?_AcpiFunctionName@?1??AcpiLoadTable@@9@9 0000000180072308     tbxfload.obj
 0002:00019318       ?_AcpiFunctionName@?1??AcpiUnloadParentTable@@9@9 0000000180072318     tbxfload.obj
 0002:00019330       ?_AcpiFunctionName@?1??AcpiUnloadTable@@9@9 0000000180072330     tbxfload.obj
 0002:000194a0       _AcpiModuleName            00000001800724a0     tbxfroot.obj
 0002:000194b0       ?_AcpiFunctionName@?1??AcpiFindRootPointer@@9@9 00000001800724b0     tbxfroot.obj
 0002:000194c8       ?_AcpiFunctionName@?1??AcpiTbScanMemoryForRsdp@@9@9 00000001800724c8     tbxfroot.obj
 0002:00019598       _AcpiModuleName            0000000180072598     utaddress.obj
 0002:000195a8       ?_AcpiFunctionName@?1??AcpiUtAddAddressRange@@9@9 00000001800725a8     utaddress.obj
 0002:000195c0       ?_AcpiFunctionName@?1??AcpiUtRemoveAddressRange@@9@9 00000001800725c0     utaddress.obj
 0002:000195d8       ?_AcpiFunctionName@?1??AcpiUtCheckAddressRange@@9@9 00000001800725d8     utaddress.obj
 0002:000196d0       _AcpiModuleName            00000001800726d0     utalloc.obj
 0002:00019790       _AcpiModuleName            0000000180072790     utcache.obj
 0002:00019798       ?_AcpiFunctionName@?1??AcpiOsAcquireObject@@9@9 0000000180072798     utcache.obj
 0002:000197c8       _AcpiModuleName            00000001800727c8     utcopy.obj
 0002:000197d0       ?_AcpiFunctionName@?1??AcpiUtCopyIsimpleToEsimple@@9@9 00000001800727d0     utcopy.obj
 0002:000197e8       ?_AcpiFunctionName@?1??AcpiUtCopyIpackageToEpackage@@9@9 00000001800727e8     utcopy.obj
 0002:00019808       ?_AcpiFunctionName@?1??AcpiUtCopyIobjectToEobject@@9@9 0000000180072808     utcopy.obj
 0002:00019820       ?_AcpiFunctionName@?1??AcpiUtCopyEsimpleToIsimple@@9@9 0000000180072820     utcopy.obj
 0002:00019838       ?_AcpiFunctionName@?1??AcpiUtCopyEpackageToIpackage@@9@9 0000000180072838     utcopy.obj
 0002:00019858       ?_AcpiFunctionName@?1??AcpiUtCopyEobjectToIobject@@9@9 0000000180072858     utcopy.obj
 0002:00019870       ?_AcpiFunctionName@?1??AcpiUtCopyIpackageToIpackage@@9@9 0000000180072870     utcopy.obj
 0002:00019890       ?_AcpiFunctionName@?1??AcpiUtCopyIobjectToIobject@@9@9 0000000180072890     utcopy.obj
 0002:00019a40       _AcpiModuleName            0000000180072a40     utdecode.obj
 0002:00019a50       AcpiGbl_BadType            0000000180072a50     utdecode.obj
 0002:00019a60       ?_AcpiFunctionName@?1??AcpiUtGetObjectTypeName@@9@9 0000000180072a60     utdecode.obj
 0002:0001a3a0       _AcpiModuleName            00000001800733a0     utdelete.obj
 0002:0001a3b0       ?_AcpiFunctionName@?1??AcpiUtDeleteInternalObj@@9@9 00000001800733b0     utdelete.obj
 0002:0001a3c8       ?_AcpiFunctionName@?1??AcpiUtUpdateRefCount@@9@9 00000001800733c8     utdelete.obj
 0002:0001a3e0       ?_AcpiFunctionName@?1??AcpiUtUpdateObjectReference@@9@9 00000001800733e0     utdelete.obj
 0002:0001a3f8       ?_AcpiFunctionName@?1??AcpiUtAddReference@@9@9 00000001800733f8     utdelete.obj
 0002:0001a408       ?_AcpiFunctionName@?1??AcpiUtRemoveReference@@9@9 0000000180073408     utdelete.obj
 0002:0001a7a8       _AcpiModuleName            00000001800737a8     uterror.obj
 0002:0001a900       _AcpiModuleName            0000000180073900     uteval.obj
 0002:0001a908       ?_AcpiFunctionName@?1??AcpiUtEvaluateObject@@9@9 0000000180073908     uteval.obj
 0002:0001a920       ?_AcpiFunctionName@?1??AcpiUtEvaluateNumericObject@@9@9 0000000180073920     uteval.obj
 0002:0001a938       ?_AcpiFunctionName@?1??AcpiUtExecute_STA@@9@9 0000000180073938     uteval.obj
 0002:0001a948       ?_AcpiFunctionName@?1??AcpiUtExecutePowerMethods@@9@9 0000000180073948     uteval.obj
 0002:0001aa80       _AcpiModuleName            0000000180073a80     utexcep.obj
 0002:0001aa90       AcpiGbl_ExceptionNames_Env 0000000180073a90     utexcep.obj
 0002:0001abb0       AcpiGbl_ExceptionNames_Pgm 0000000180073bb0     utexcep.obj
 0002:0001ac00       AcpiGbl_ExceptionNames_Tbl 0000000180073c00     utexcep.obj
 0002:0001ac30       AcpiGbl_ExceptionNames_Aml 0000000180073c30     utexcep.obj
 0002:0001ad60       AcpiGbl_ExceptionNames_Ctrl 0000000180073d60     utexcep.obj
 0002:0001b918       AcpiGbl_HexToAscii         0000000180074918     uthex.obj
 0002:0001b928       _AcpiModuleName            0000000180074928     utids.obj
 0002:0001b930       ?_AcpiFunctionName@?1??AcpiUtExecute_HID@@9@9 0000000180074930     utids.obj
 0002:0001b940       ?_AcpiFunctionName@?1??AcpiUtExecute_UID@@9@9 0000000180074940     utids.obj
 0002:0001b950       ?_AcpiFunctionName@?1??AcpiUtExecute_CID@@9@9 0000000180074950     utids.obj
 0002:0001b960       ?_AcpiFunctionName@?1??AcpiUtExecute_CLS@@9@9 0000000180074960     utids.obj
 0002:0001b990       _AcpiModuleName            0000000180074990     utinit.obj
 0002:0001b998       ?_AcpiFunctionName@?1??AcpiUtInitGlobals@@9@9 0000000180074998     utinit.obj
 0002:0001b9a8       ?_AcpiFunctionName@?1??AcpiUtTerminate@@9@9 00000001800749a8     utinit.obj
 0002:0001b9b8       ?_AcpiFunctionName@?1??AcpiUtSubsystemShutdown@@9@9 00000001800749b8     utinit.obj
 0002:0001ba18       _AcpiModuleName            0000000180074a18     utmath.obj
 0002:0001ba20       ?_AcpiFunctionName@?1??AcpiUtShortMultiply@@9@9 0000000180074a20     utmath.obj
 0002:0001ba30       ?_AcpiFunctionName@?1??AcpiUtShortShiftLeft@@9@9 0000000180074a30     utmath.obj
 0002:0001ba48       ?_AcpiFunctionName@?1??AcpiUtShortShiftRight@@9@9 0000000180074a48     utmath.obj
 0002:0001ba60       ?_AcpiFunctionName@?1??AcpiUtShortDivide@@9@9 0000000180074a60     utmath.obj
 0002:0001ba70       ?_AcpiFunctionName@?1??AcpiUtDivide@@9@9 0000000180074a70     utmath.obj
 0002:0001ba90       _AcpiModuleName            0000000180074a90     utmisc.obj
 0002:0001ba98       ?_AcpiFunctionName@?1??AcpiUtWalkPackageTree@@9@9 0000000180074a98     utmisc.obj
 0002:0001bae0       _AcpiModuleName            0000000180074ae0     utmutex.obj
 0002:0001bae8       ?_AcpiFunctionName@?1??AcpiUtMutexInitialize@@9@9 0000000180074ae8     utmutex.obj
 0002:0001bb00       ?_AcpiFunctionName@?1??AcpiUtMutexTerminate@@9@9 0000000180074b00     utmutex.obj
 0002:0001bb18       ?_AcpiFunctionName@?1??AcpiUtCreateMutex@@9@9 0000000180074b18     utmutex.obj
 0002:0001bb28       ?_AcpiFunctionName@?1??AcpiUtDeleteMutex@@9@9 0000000180074b28     utmutex.obj
 0002:0001bb38       ?_AcpiFunctionName@?1??AcpiUtAcquireMutex@@9@9 0000000180074b38     utmutex.obj
 0002:0001bb48       ?_AcpiFunctionName@?1??AcpiUtReleaseMutex@@9@9 0000000180074b48     utmutex.obj
 0002:0001bcd0       _AcpiModuleName            0000000180074cd0     utobject.obj
 0002:0001bce0       ?_AcpiFunctionName@?1??AcpiUtCreateInternalObjectDbg@@9@9 0000000180074ce0     utobject.obj
 0002:0001bd00       ?_AcpiFunctionName@?1??AcpiUtCreatePackageObject@@9@9 0000000180074d00     utobject.obj
 0002:0001bd18       ?_AcpiFunctionName@?1??AcpiUtCreateIntegerObject@@9@9 0000000180074d18     utobject.obj
 0002:0001bd30       ?_AcpiFunctionName@?1??AcpiUtCreateBufferObject@@9@9 0000000180074d30     utobject.obj
 0002:0001bd48       ?_AcpiFunctionName@?1??AcpiUtCreateStringObject@@9@9 0000000180074d48     utobject.obj
 0002:0001bd60       ?_AcpiFunctionName@?1??AcpiUtValidInternalObject@@9@9 0000000180074d60     utobject.obj
 0002:0001bd78       ?_AcpiFunctionName@?1??AcpiUtAllocateObjectDescDbg@@9@9 0000000180074d78     utobject.obj
 0002:0001bd90       ?_AcpiFunctionName@?1??AcpiUtDeleteObjectDesc@@9@9 0000000180074d90     utobject.obj
 0002:0001bda8       ?_AcpiFunctionName@?1??AcpiUtGetSimpleObjectSize@@9@9 0000000180074da8     utobject.obj
 0002:0001bdc0       ?_AcpiFunctionName@?1??AcpiUtGetPackageObjectSize@@9@9 0000000180074dc0     utobject.obj
 0002:0001bf80       _AcpiModuleName            0000000180074f80     utosi.obj
 0002:0001bf88       ?_AcpiFunctionName@?1??AcpiUtOsiImplementation@@9@9 0000000180074f88     utosi.obj
 0002:0001c1c0       _AcpiModuleName            00000001800751c0     utownerid.obj
 0002:0001c1d0       ?_AcpiFunctionName@?1??AcpiUtAllocateOwnerId@@9@9 00000001800751d0     utownerid.obj
 0002:0001c1e8       ?_AcpiFunctionName@?1??AcpiUtReleaseOwnerId@@9@9 00000001800751e8     utownerid.obj
 0002:0001cbe8       _AcpiModuleName            0000000180075be8     utresrc.obj
 0002:0001cbf0       ?_AcpiFunctionName@?1??AcpiUtWalkAmlResources@@9@9 0000000180075bf0     utresrc.obj
 0002:0001cc08       ?_AcpiFunctionName@?1??AcpiUtGetResourceEndTag@@9@9 0000000180075c08     utresrc.obj
 0002:0001cc20       AcpiGbl_ResourceTypes      0000000180075c20     utresrc.obj
 0002:0001ccf8       _AcpiModuleName            0000000180075cf8     utstate.obj
 0002:0001cd28       _AcpiModuleName            0000000180075d28     utstring.obj
 0002:0001cd38       ?_AcpiFunctionName@?1??AcpiUtRepairName@@9@9 0000000180075d38     utstring.obj
 0002:0001cdf8       _AcpiModuleName            0000000180075df8     utstrtoul64.obj
 0002:0001ce08       ?_AcpiFunctionName@?1??AcpiUtStrtoul64@@9@9 0000000180075e08     utstrtoul64.obj
 0002:0001ce18       ?_AcpiFunctionName@?1??AcpiUtImplicitStrtoul64@@9@9 0000000180075e18     utstrtoul64.obj
 0002:0001ce30       ?_AcpiFunctionName@?1??AcpiUtExplicitStrtoul64@@9@9 0000000180075e30     utstrtoul64.obj
 0002:0001ce48       _AcpiModuleName            0000000180075e48     uttrack.obj
 0002:0001ce50       ?_AcpiFunctionName@?1??AcpiUtFreeAndTrack@@9@9 0000000180075e50     uttrack.obj
 0002:0001ce58       ?_AcpiFunctionName@?1??AcpiUtTrackAllocation@@9@9 0000000180075e58     uttrack.obj
 0002:0001ce70       ?_AcpiFunctionName@?1??AcpiUtRemoveAllocation@@9@9 0000000180075e70     uttrack.obj
 0002:0001ce88       ?_AcpiFunctionName@?1??AcpiUtDumpAllocationInfo@@9@9 0000000180075e88     uttrack.obj
 0002:0001cea0       ?_AcpiFunctionName@?1??AcpiUtDumpAllocations@@9@9 0000000180075ea0     uttrack.obj
 0002:0001d0d0       _AcpiModuleName            00000001800760d0     utxface.obj
 0002:0001d0d8       ?_AcpiFunctionName@?1??AcpiTerminate@@9@9 00000001800760d8     utxface.obj
 0002:0001d0e8       ?_AcpiFunctionName@?1??AcpiGetSystemInfo@@9@9 00000001800760e8     utxface.obj
 0002:0001d100       ?_AcpiFunctionName@?1??AcpiGetStatistics@@9@9 0000000180076100     utxface.obj
 0002:0001d118       ?_AcpiFunctionName@?1??AcpiPurgeCachedObjects@@9@9 0000000180076118     utxface.obj
 0002:0001d1a0       _AcpiModuleName            00000001800761a0     utxfinit.obj
 0002:0001d1b0       ?_AcpiFunctionName@?1??AcpiInitializeSubsystem@@9@9 00000001800761b0     utxfinit.obj
 0002:0001d1c8       ?_AcpiFunctionName@?1??AcpiEnableSubsystem@@9@9 00000001800761c8     utxfinit.obj
 0002:0001d1e0       ?_AcpiFunctionName@?1??AcpiInitializeObjects@@9@9 00000001800761e0     utxfinit.obj
 0002:0001d350       _AcpiModuleName            0000000180076350     osgendbg.obj
 0002:0001d3a0       _AcpiModuleName            00000001800763a0     oswinxf.obj
 0002:0001d3c0       _AcpiModuleName            00000001800763c0     aeexception.obj
 0002:0001d674       _AcpiModuleName            0000000180076674     aeexec.obj
 0002:0001d878       _AcpiModuleName            0000000180076878     aehandlers.obj
 0002:0001d888       ?_AcpiFunctionName@?1??AeAttachedDataHandler@@9@9 0000000180076888     aehandlers.obj
 0002:0001d8a0       ?_AcpiFunctionName@?1??AeAttachedDataHandler2@@9@9 00000001800768a0     aehandlers.obj
 0002:0001d8b8       ?_AcpiFunctionName@?1??AeInterfaceHandler@@9@9 00000001800768b8     aehandlers.obj
 0002:0001def0       _AcpiModuleName            0000000180076ef0     aeinitfile.obj
 0002:0001df00       ?_AcpiFunctionName@?1??AeLookupInitFileEntry@@9@9 0000000180076f00     aeinitfile.obj
 0002:0001e048       _AcpiModuleName            0000000180077048     aeinstall.obj
 0002:0001e174       _AcpiModuleName            0000000180077174     aemain.obj
 0002:0001eb08       _AcpiModuleName            0000000180077b08     aeregion.obj
 0002:0001eb18       ?_AcpiFunctionName@?1??AeRegionHandler@@9@9 0000000180077b18     aeregion.obj
 0002:0001ef20       _AcpiModuleName            0000000180077f20     aetables.obj
 0002:0001f010       _AcpiModuleName            0000000180078010     aetests.obj
 0002:0001f2a0       _AcpiModuleName            00000001800782a0     utcksum.obj
 0002:0001fa68       $unwind$AcGetAllTablesFromFile 0000000180078a68     acfileio.obj
 0002:0001fa80       $unwind$AcDeleteTableList  0000000180078a80     acfileio.obj
 0002:0001fa88       $unwind$AcIsFileBinary     0000000180078a88     acfileio.obj
 0002:0001fa9c       $unwind$AcValidateTableHeader 0000000180078a9c     acfileio.obj
 0002:0001fab8       $unwind$AcGetOneTableFromFile 0000000180078ab8     acfileio.obj
 0002:0001fab8       $unwind$AcpiExSetupRegion  0000000180078ab8     exfldio.obj
 0002:0001fab8       $unwind$AcpiTbConvertFadt  0000000180078ab8     tbfadt.obj
 0002:0001fab8       $unwind$__cdeReadDirectory 0000000180078ab8     toroC64:osifUefiShellFileFindAll.obj
 0002:0001fad4       $unwind$AcCheckTextModeCorruption 0000000180078ad4     acfileio.obj
 0002:0001fad4       $unwind$AeInstallSciHandler 0000000180078ad4     aehandlers.obj
 0002:0001fad4       $unwind$AeInitializeTableHeader 0000000180078ad4     aetables.obj
 0002:0001fad4       $unwind$AcpiDbGetOutstandingAllocations 0000000180078ad4     dbexec.obj
 0002:0001fad4       $unwind$AcpiDbDisplayHelp  0000000180078ad4     dbinput.obj
 0002:0001fad4       $unwind$AcpiDbDecodeNode   0000000180078ad4     dbobject.obj
 0002:0001fad4       $unwind$AcpiDbTestPackageType 0000000180078ad4     dbtest.obj
 0002:0001fad4       $unwind$AcpiDmPinConfig    0000000180078ad4     dmresrcl2.obj
 0002:0001fad4       $unwind$AcpiRsCountSetBits 0000000180078ad4     rscalc.obj
 0002:0001fad4       $unwind$AcpiRsStructOptionLength 0000000180078ad4     rscalc.obj
 0002:0001fad4       $unwind$AcpiRsDumpAddressCommon 0000000180078ad4     rsdump.obj
 0002:0001fad4       $unwind$AcpiRsDumpResourceSource 0000000180078ad4     rsdump.obj
 0002:0001fad4       $unwind$AcpiRsOutString    0000000180078ad4     rsdump.obj
 0002:0001fad4       $unwind$AcpiTbCleanupTableHeader 0000000180078ad4     tbprint.obj
 0002:0001fad4       $unwind$AcpiUtGetMutexObject 0000000180078ad4     utxfmutex.obj
 0002:0001fad4       $unwind$UngetCharAndDecount 0000000180078ad4     toroC64:_cdeCoreVwxScanf.obj
 0002:0001fadc       $unwind$AcpiAhMatchHardwareId 0000000180078adc     ahids.obj
 0002:0001fae8       $unwind$AcpiAhMatchUuid    0000000180078ae8     ahuuids.obj
 0002:0001faf4       $unwind$CmGetFileSize      0000000180078af4     cmfsize.obj
 0002:0001fb04       $unwind$AcpiGetopt         0000000180078b04     getopt.obj
 0002:0001fb1c       $unwind$AcpiGetoptArgument 0000000180078b1c     getopt.obj
 0002:0001fb24       $unwind$AcpiDbConvertToNode 0000000180078b24     dbcmds.obj
 0002:0001fb30       $unwind$AcpiDbDisplayTableInfo 0000000180078b30     dbcmds.obj
 0002:0001fb3c       $unwind$AcpiDbDisplayTemplate 0000000180078b3c     dbcmds.obj
 0002:0001fb4c       $unwind$AcpiDbUnloadAcpiTable 0000000180078b4c     dbcmds.obj
 0002:0001fb58       $unwind$AcpiDbSendNotify   0000000180078b58     dbcmds.obj
 0002:0001fb64       $unwind$AcpiDbDisplayInterfaces 0000000180078b64     dbcmds.obj
 0002:0001fb70       $unwind$AcpiDbSleep        0000000180078b70     dbcmds.obj
 0002:0001fb78       $unwind$AcpiDbTrace        0000000180078b78     dbcmds.obj
 0002:0001fb90       $unwind$AcpiDbDisplayLocks 0000000180078b90     dbcmds.obj
 0002:0001fba0       $unwind$AcpiDbDisplayResources 0000000180078ba0     dbcmds.obj
 0002:0001fba8       $unwind$AcpiDbGenerateGpe  0000000180078ba8     dbcmds.obj
 0002:0001fbbc       $unwind$AcpiDbGenerateInterrupt 0000000180078bbc     dbcmds.obj
 0002:0001fbcc       $unwind$AcpiDbDeviceResources 0000000180078bcc     dbcmds.obj
 0002:0001fbe0       $unwind$AcpiDmCompareAmlResources 0000000180078be0     dbcmds.obj
 0002:0001fbf8       $unwind$AcpiDmTestResourceConversion 0000000180078bf8     dbcmds.obj
 0002:0001fc0c       $unwind$AcpiDbDoOneSleepState 0000000180078c0c     dbcmds.obj
 0002:0001fc1c       $unwind$AcpiDbHexCharToValue 0000000180078c1c     dbconvert.obj
 0002:0001fc28       $unwind$AcpiDbConvertToPackage 0000000180078c28     dbconvert.obj
 0002:0001fc38       $unwind$AcpiDbConvertToObject 0000000180078c38     dbconvert.obj
 0002:0001fc44       $unwind$AcpiDbEncodePldBuffer 0000000180078c44     dbconvert.obj
 0002:0001fc4c       $unwind$AcpiDbDumpPldBuffer 0000000180078c4c     dbconvert.obj
 0002:0001fc60       $unwind$AcpiDbHexByteToBinary 0000000180078c60     dbconvert.obj
 0002:0001fc6c       $unwind$AcpiDbConvertToBuffer 0000000180078c6c     dbconvert.obj
 0002:0001fc84       $unwind$AcpiDbDisplayGpes  0000000180078c84     dbdisply.obj
 0002:0001fca4       $unwind$AcpiDbDisplayHandlers 0000000180078ca4     dbdisply.obj
 0002:0001fcbc       $unwind$AcpiDbDisplayMethodInfo 0000000180078cbc     dbdisply.obj
 0002:0001fcd8       $unwind$AcpiDbDecodeAndDisplayObject 0000000180078cd8     dbdisply.obj
 0002:0001fce8       $unwind$AcpiDbDisplayResultObject 0000000180078ce8     dbdisply.obj
 0002:0001fcf4       $unwind$AcpiDbDisplayArguments 0000000180078cf4     dbdisply.obj
 0002:0001fcfc       $unwind$AcpiDbDisplayLocals 0000000180078cfc     dbdisply.obj
 0002:0001fd04       $unwind$AcpiDbDisplayResults 0000000180078d04     dbdisply.obj
 0002:0001fd1c       $unwind$AcpiDbDisplayCallingTree 0000000180078d1c     dbdisply.obj
 0002:0001fd24       $unwind$AcpiDbDisplayObjectType 0000000180078d24     dbdisply.obj
 0002:0001fd2c       $unwind$AcpiDbDisplayArgumentObject 0000000180078d2c     dbdisply.obj
 0002:0001fd38       $unwind$AcpiDbDisplayNonRootHandlers 0000000180078d38     dbdisply.obj
 0002:0001fd4c       $unwind$usage              0000000180078d4c     aemain.obj
 0002:0001fd4c       $unwind$AcpiDbDumpParserDescriptor 0000000180078d4c     dbdisply.obj
 0002:0001fd4c       $unwind$AcpiDbExecuteSetup 0000000180078d4c     dbexec.obj
 0002:0001fd4c       $unwind$AcpiDmIoFlags2     0000000180078d4c     dmresrcl.obj
 0002:0001fd4c       $unwind$AcpiEvFixedEventInitialize 0000000180078d4c     evevent.obj
 0002:0001fd4c       $unwind$AcpiHwWriteMultiple 0000000180078d4c     hwregs.obj
 0002:0001fd4c       $unwind$AcpiNsResolveReferences 0000000180078d4c     nsxfeval.obj
 0002:0001fd4c       $unwind$AcpiNsCopyDeviceId 0000000180078d4c     nsxfname.obj
 0002:0001fd4c       $unwind$AcpiRsDumpResourceLabel 0000000180078d4c     rsdump.obj
 0002:0001fd4c       $unwind$AcpiRsDumpShortByteList 0000000180078d4c     rsdump.obj
 0002:0001fd4c       $unwind$AcpiRsStrcpy       0000000180078d4c     rsutils.obj
 0002:0001fd4c       $unwind$AcpiUtInsertDigit  0000000180078d4c     utstrsuppt.obj
 0002:0001fd4c       $unwind$fract2bcd          0000000180078d4c     toroC64:_cdeCoreVwxPrintf.obj
 0002:0001fd4c       $unwind$GetCharAndCount    0000000180078d4c     toroC64:_cdeCoreVwxScanf.obj
 0002:0001fd58       $unwind$AcpiDbGetPointer   0000000180078d58     dbdisply.obj
 0002:0001fd58       $unwind$AcpiDmIsOptimizationIgnored 0000000180078d58     dmcstyle.obj
 0002:0001fd58       $unwind$AcpiDmAddressFlags 0000000180078d58     dmresrcl.obj
 0002:0001fd58       $unwind$AcpiDmAddressPrefix 0000000180078d58     dmresrcl.obj
 0002:0001fd58       $unwind$AcpiDmDumpSerialBusVendorData 0000000180078d58     dmresrcl2.obj
 0002:0001fd58       $unwind$AcpiExDoMatch      0000000180078d58     exoparg6.obj
 0002:0001fd58       $unwind$AcpiExInterpreterTraceEnabled 0000000180078d58     extrace.obj
 0002:0001fd58       $unwind$AcpiUtTerminate    0000000180078d58     utinit.obj
 0002:0001fd58       $unwind$FractBinDigits     0000000180078d58     toroC64:_cdeCoreVwxPrintf.obj
 0002:0001fd58       $unwind$IntgrBinDigits     0000000180078d58     toroC64:_cdeCoreVwxPrintf.obj
 0002:0001fd58       $unwind$__CdeChkCtrlC      0000000180078d58     toroC64:osifUefiShellEntryPoint.obj
 0002:0001fd60       $unwind$AcpiDbExecute      0000000180078d60     dbexec.obj
 0002:0001fd7c       $unwind$AcpiDbCreateExecutionThread 0000000180078d7c     dbexec.obj
 0002:0001fd8c       $unwind$AcpiDbCreateExecutionThreads 0000000180078d8c     dbexec.obj
 0002:0001fda4       $unwind$AcpiDbDeleteObjects 0000000180078da4     dbexec.obj
 0002:0001fdb0       $unwind$AcpiDbMethodThread 0000000180078db0     dbexec.obj
 0002:0001fdcc       $unwind$AcpiDbExecutionWalk 0000000180078dcc     dbexec.obj
 0002:0001fdd8       $unwind$AcpiDbSingleExecutionThread 0000000180078dd8     dbexec.obj
 0002:0001fde0       $unwind$AcpiDbExecuteMethod 0000000180078de0     dbexec.obj
 0002:0001fdfc       $unwind$AcpiDbCloseDebugFile 0000000180078dfc     dbfileio.obj
 0002:0001fe04       $unwind$AcpiDbOpenDebugFile 0000000180078e04     dbfileio.obj
 0002:0001fe0c       $unwind$AcpiDbLoadTables   0000000180078e0c     dbfileio.obj
 0002:0001fe1c       $unwind$AcpiDbAddToHistory 0000000180078e1c     dbhistry.obj
 0002:0001fe34       $unwind$AcpiDbDisplayHistory 0000000180078e34     dbhistry.obj
 0002:0001fe4c       $unwind$AcpiDbGetFromHistory 0000000180078e4c     dbhistry.obj
 0002:0001fe54       $unwind$AcpiDbGetHistoryByIndex 0000000180078e54     dbhistry.obj
 0002:0001fe5c       $unwind$AcpiDbCommandDispatch 0000000180078e5c     dbinput.obj
 0002:0001fe74       $unwind$AcpiDbExecuteThread 0000000180078e74     dbinput.obj
 0002:0001fe7c       $unwind$AcpiDbUserCommands 0000000180078e7c     dbinput.obj
 0002:0001fe84       $unwind$AcpiDbGetNextToken 0000000180078e84     dbinput.obj
 0002:0001fea0       $unwind$AcpiDbGetLine      0000000180078ea0     dbinput.obj
 0002:0001fea0       $unwind$AcpiHwBuildPciList 0000000180078ea0     hwpci.obj
 0002:0001feb0       $unwind$AcpiDbDisplayCommandInfo 0000000180078eb0     dbinput.obj
 0002:0001feb0       $unwind$AcpiDbMatchCommand 0000000180078eb0     dbinput.obj
 0002:0001feb0       $unwind$AcpiDbStartCommand 0000000180078eb0     dbxface.obj
 0002:0001feb0       $unwind$AcpiDmUnicode      0000000180078eb0     dmbuffer.obj
 0002:0001feb0       $unwind$AcpiDmIsTargetAnOperand 0000000180078eb0     dmcstyle.obj
 0002:0001feb0       $unwind$AcpiDmConvertToElseIf 0000000180078eb0     dmopcode.obj
 0002:0001feb0       $unwind$AcpiDmResourceSource 0000000180078eb0     dmresrcl.obj
 0002:0001feb0       $unwind$AcpiDsMethodDataDeleteValue 0000000180078eb0     dsmthdat.obj
 0002:0001feb0       $unwind$AcpiExConvertToObjectTypeString 0000000180078eb0     exconcat.obj
 0002:0001feb0       $unwind$AcpiPsUpdateParameterList 0000000180078eb0     psxface.obj
 0002:0001feb0       $unwind$AcpiRsStreamOptionLength 0000000180078eb0     rscalc.obj
 0002:0001feb0       $unwind$AcpiRsDumpWordList 0000000180078eb0     rsdump.obj
 0002:0001feb0       $unwind$AcpiUtFreeGpeLists 0000000180078eb0     utinit.obj
 0002:0001fec0       $unwind$AcpiDbMatchCommandHelp 0000000180078ec0     dbinput.obj
 0002:0001fec0       $unwind$AcpiDmMemoryFields 0000000180078ec0     dmresrcl.obj
 0002:0001fed8       $unwind$AcpiDbSetMethodBreakpoint 0000000180078ed8     dbmethod.obj
 0002:0001fee8       $unwind$AcpiDbSetMethodData 0000000180078ee8     dbmethod.obj
 0002:0001fefc       $unwind$AcpiDbDisassembleMethod 0000000180078efc     dbmethod.obj
 0002:0001ff10       $unwind$AcpiDbDisassembleAml 0000000180078f10     dbmethod.obj
 0002:0001ff18       $unwind$AcpiDbEvaluatePredefinedNames 0000000180078f18     dbmethod.obj
 0002:0001ff20       $unwind$AcpiDbEvaluateAll  0000000180078f20     dbmethod.obj
 0002:0001ff28       $unwind$AcpiDbWalkForExecute 0000000180078f28     dbmethod.obj
 0002:0001ff34       $unwind$AcpiDbWalkForExecuteAll 0000000180078f34     dbmethod.obj
 0002:0001ff3c       $unwind$AcpiDbEvaluateObject 0000000180078f3c     dbmethod.obj
 0002:0001ff54       $unwind$AcpiDbSetScope     0000000180078f54     dbnames.obj
 0002:0001ff5c       $unwind$AcpiDbDumpNamespace 0000000180078f5c     dbnames.obj
 0002:0001ff6c       $unwind$AcpiDbDumpNamespacePaths 0000000180078f6c     dbnames.obj
 0002:0001ff74       $unwind$AcpiDbDumpNamespaceByOwner 0000000180078f74     dbnames.obj
 0002:0001ff88       $unwind$AcpiDbFindNameInNamespace 0000000180078f88     dbnames.obj
 0002:0001ff90       $unwind$AcpiDbCheckPredefinedNames 0000000180078f90     dbnames.obj
 0002:0001ff98       $unwind$AcpiDbDisplayObjects 0000000180078f98     dbnames.obj
 0002:0001ffac       $unwind$AcpiDbCheckIntegrity 0000000180078fac     dbnames.obj
 0002:0001ffb4       $unwind$AcpiDbFindReferences 0000000180078fb4     dbnames.obj
 0002:0001ffbc       $unwind$AcpiDbGetBusInfo   0000000180078fbc     dbnames.obj
 0002:0001ffc4       $unwind$AcpiDbDisplayFields 0000000180078fc4     dbnames.obj
 0002:0001ffcc       $unwind$AcpiDbWalkAndMatchName 0000000180078fcc     dbnames.obj
 0002:0001ffd8       $unwind$AcpiDbWalkForPredefinedNames 0000000180078fd8     dbnames.obj
 0002:0001fff0       $unwind$AcpiDbWalkForSpecificObjects 0000000180078ff0     dbnames.obj
 0002:00020000       $unwind$AcpiDbWalkForObjectCounts 0000000180079000     dbnames.obj
 0002:00020008       $unwind$AcpiDbIntegrityWalk 0000000180079008     dbnames.obj
 0002:00020018       $unwind$AcpiDbWalkForReferences 0000000180079018     dbnames.obj
 0002:00020024       $unwind$AcpiDbBusWalk      0000000180079024     dbnames.obj
 0002:00020034       $unwind$AcpiDbWalkForFields 0000000180079034     dbnames.obj
 0002:00020040       $unwind$AcpiDbDecodeInternalObject 0000000180079040     dbobject.obj
 0002:0002004c       $unwind$AcpiDbDisplayInternalObject 000000018007904c     dbobject.obj
 0002:00020058       $unwind$AcpiDbDecodeArguments 0000000180079058     dbobject.obj
 0002:0002006c       $unwind$AcpiDbDecodeLocals 000000018007906c     dbobject.obj
 0002:00020080       $unwind$AcpiDbDumpMethodInfo 0000000180079080     dbobject.obj
 0002:00020088       $unwind$AcpiDbDisplayStatistics 0000000180079088     dbstats.obj
 0002:000200a0       $unwind$AcpiDbClassifyOneObject 00000001800790a0     dbstats.obj
 0002:000200ac       $unwind$AcpiDbCountNamespaceObjects 00000001800790ac     dbstats.obj
 0002:000200b4       $unwind$AcpiDbEnumerateObject 00000001800790b4     dbstats.obj
 0002:000200c4       $unwind$AcpiDbListInfo     00000001800790c4     dbstats.obj
 0002:000200c4       $unwind$AcpiDsResultStackPush 00000001800790c4     dswstate.obj
 0002:000200c4       $unwind$AcpiNsCheckReference 00000001800790c4     nspredef.obj
 0002:000200c4       $unwind$AcpiTbSelectAddress 00000001800790c4     tbfadt.obj
 0002:000200c4       $unwind$AcpiUtRemoveAllocation 00000001800790c4     uttrack.obj
 0002:000200d0       $unwind$AcpiDbExecuteTest  00000001800790d0     dbtest.obj
 0002:000200d8       $unwind$AcpiDbTestOneObject 00000001800790d8     dbtest.obj
 0002:000200f0       $unwind$AcpiDbEvaluateOnePredefinedName 00000001800790f0     dbtest.obj
 0002:0002010c       $unwind$AcpiDbTestAllObjects 000000018007910c     dbtest.obj
 0002:0002010c       $unwind$AcpiDmMemoryFlags  000000018007910c     dmresrcl.obj
 0002:00020114       $unwind$AcpiDbTestIntegerType 0000000180079114     dbtest.obj
 0002:0002012c       $unwind$AcpiDbTestBufferType 000000018007912c     dbtest.obj
 0002:00020144       $unwind$AcpiDbTestStringType 0000000180079144     dbtest.obj
 0002:0002015c       $unwind$AcpiDbTestFieldUnitType 000000018007915c     dbtest.obj
 0002:0002015c       $unwind$AcpiDbRunRemoteDebugger 000000018007915c     osgendbg.obj
 0002:0002015c       $unwind$AcpiUtStrtoulMultiply64 000000018007915c     utstrsuppt.obj
 0002:0002016c       $unwind$AcpiDbReadFromObject 000000018007916c     dbtest.obj
 0002:00020180       $unwind$AcpiDbWriteToObject 0000000180079180     dbtest.obj
 0002:00020188       $unwind$AcpiDbEvaluateAllPredefinedNames 0000000180079188     dbtest.obj
 0002:00020190       $unwind$AcpiDbMatchArgument 0000000180079190     dbutils.obj
 0002:000201a4       $unwind$AcpiDbDumpExternalObject 00000001800791a4     dbutils.obj
 0002:000201b8       $unwind$AcpiDbPrepNamestring 00000001800791b8     dbutils.obj
 0002:000201c0       $unwind$AcpiDbLocalNsLookup 00000001800791c0     dbutils.obj
 0002:000201c8       $unwind$AcpiInitializeDebugger 00000001800791c8     dbxface.obj
 0002:000201dc       $unwind$AcpiTerminateDebugger 00000001800791dc     dbxface.obj
 0002:000201e4       $unwind$AcpiDbSingleStep   00000001800791e4     dbxface.obj
 0002:000201fc       $unwind$AcpiDmDisasmByteList 00000001800791fc     dmbuffer.obj
 0002:00020218       $unwind$AcpiDmByteList     0000000180079218     dmbuffer.obj
 0002:00020220       $unwind$AcpiDmCheckForHardwareId 0000000180079220     dmbuffer.obj
 0002:0002022c       $unwind$AcpiDmDecompressEisaId 000000018007922c     dmbuffer.obj
 0002:00020234       $unwind$AcpiDmIsUnicodeBuffer 0000000180079234     dmbuffer.obj
 0002:00020250       $unwind$AcpiDmIsStringBuffer 0000000180079250     dmbuffer.obj
 0002:00020260       $unwind$AcpiDmUuid         0000000180079260     dmbuffer.obj
 0002:00020280       $unwind$AcpiDmGetHardwareIdType 0000000180079280     dmbuffer.obj
 0002:00020280       $unwind$AcpiEvInstallGpeBlock 0000000180079280     evgpeblk.obj
 0002:00020280       $unwind$AcpiExDecodeFieldAccess 0000000180079280     exprep.obj
 0002:00020280       $unwind$AcpiExCheckObjectType 0000000180079280     exresop.obj
 0002:00020280       $unwind$AcpiHwSetFirmwareWakingVector 0000000180079280     hwxfsleep.obj
 0002:00020280       $unwind$AcpiPsGetNextPackageLength 0000000180079280     psargs.obj
 0002:00020280       $unwind$AcpiTbInitGenericAddress 0000000180079280     tbfadt.obj
 0002:00020290       $unwind$AcpiDmPldBuffer    0000000180079290     dmbuffer.obj
 0002:000202a4       $unwind$AcpiDmCheckForSymbolicOpcode 00000001800792a4     dmcstyle.obj
 0002:000202bc       $unwind$AcpiDmCloseOperator 00000001800792bc     dmcstyle.obj
 0002:000202c4       $unwind$AcpiDmParseDeferredOps 00000001800792c4     dmdeferred.obj
 0002:000202d4       $unwind$AcpiDmDeferredParse 00000001800792d4     dmdeferred.obj
 0002:000202ec       $unwind$AcpiDmDumpName     00000001800792ec     dmnames.obj
 0002:000202fc       $unwind$AcpiPsDisplayObjectPathname 00000001800792fc     dmnames.obj
 0002:0002030c       $unwind$AcpiDmNamestring   000000018007930c     dmnames.obj
 0002:00020318       $unwind$AcpiDmDisassembleOneOp 0000000180079318     dmopcode.obj
 0002:0002032c       $unwind$AcpiDmMethodFlags  000000018007932c     dmopcode.obj
 0002:00020334       $unwind$AcpiDmDisplayTargetPathname 0000000180079334     dmopcode.obj
 0002:0002033c       $unwind$AcpiDmNotifyDescription 000000018007933c     dmopcode.obj
 0002:00020344       $unwind$AcpiDmFieldFlags   0000000180079344     dmopcode.obj
 0002:00020354       $unwind$AcpiDmRegionFlags  0000000180079354     dmopcode.obj
 0002:0002035c       $unwind$AcpiDmMatchOp      000000018007935c     dmopcode.obj
 0002:00020364       $unwind$AcpiDmResourceTemplate 0000000180079364     dmresrc.obj
 0002:0002037c       $unwind$AcpiDmIsResourceTemplate 000000018007937c     dmresrc.obj
 0002:00020388       $unwind$AcpiDmBitList      0000000180079388     dmresrc.obj
 0002:00020398       $unwind$AcpiDmDescriptorName 0000000180079398     dmresrc.obj
 0002:000203a0       $unwind$AcpiDmWordDescriptor 00000001800793a0     dmresrcl.obj
 0002:000203b0       $unwind$AcpiDmDwordDescriptor 00000001800793b0     dmresrcl.obj
 0002:000203c0       $unwind$AcpiDmExtendedDescriptor 00000001800793c0     dmresrcl.obj
 0002:000203cc       $unwind$AcpiDmQwordDescriptor 00000001800793cc     dmresrcl.obj
 0002:000203dc       $unwind$AcpiDmMemory24Descriptor 00000001800793dc     dmresrcl.obj
 0002:000203e8       $unwind$AcpiDmMemory32Descriptor 00000001800793e8     dmresrcl.obj
 0002:000203f4       $unwind$AcpiDmFixedMemory32Descriptor 00000001800793f4     dmresrcl.obj
 0002:00020400       $unwind$AcpiDmGenericRegisterDescriptor 0000000180079400     dmresrcl.obj
 0002:0002040c       $unwind$AcpiDmInterruptDescriptor 000000018007940c     dmresrcl.obj
 0002:00020420       $unwind$AcpiDmVendorCommon 0000000180079420     dmresrcl.obj
 0002:00020434       $unwind$AeMutexInterfaces  0000000180079434     aetests.obj
 0002:00020434       $unwind$AcpiDmIoFlags      0000000180079434     dmresrcl.obj
 0002:00020434       $unwind$AcpiDmSpaceFlags   0000000180079434     dmresrcl.obj
 0002:00020434       $unwind$AcpiExRegisterOverflow 0000000180079434     exfldio.obj
 0002:0002043c       $unwind$AcpiDmAddressFields 000000018007943c     dmresrcl.obj
 0002:0002043c       $unwind$AcpiNsRemoveElement 000000018007943c     nsrepair2.obj
 0002:00020458       $unwind$AcpiDmAddressCommon 0000000180079458     dmresrcl.obj
 0002:00020458       $unwind$AcpiExDumpPackageObj 0000000180079458     exdump.obj
 0002:00020458       $unwind$AcpiRsDumpDescriptor 0000000180079458     rsdump.obj
 0002:00020470       $unwind$AcpiDmPinFunctionDescriptor 0000000180079470     dmresrcl2.obj
 0002:0002048c       $unwind$AcpiDmPinConfigDescriptor 000000018007948c     dmresrcl2.obj
 0002:000204a8       $unwind$AcpiDmPinGroupDescriptor 00000001800794a8     dmresrcl2.obj
 0002:000204c0       $unwind$AcpiDmPinGroupFunctionDescriptor 00000001800794c0     dmresrcl2.obj
 0002:000204d4       $unwind$AcpiDmPinGroupConfigDescriptor 00000001800794d4     dmresrcl2.obj
 0002:000204e8       $unwind$AcpiDmClockInputDescriptor 00000001800794e8     dmresrcl2.obj
 0002:000204f8       $unwind$AcpiDmCsi2SerialBusDescriptor 00000001800794f8     dmresrcl2.obj
 0002:00020510       $unwind$AcpiDmI2cSerialBusDescriptor 0000000180079510     dmresrcl2.obj
 0002:00020528       $unwind$AcpiDmSpiSerialBusDescriptor 0000000180079528     dmresrcl2.obj
 0002:00020540       $unwind$AcpiDmUartSerialBusDescriptor 0000000180079540     dmresrcl2.obj
 0002:00020558       $unwind$AcpiDmGpioCommon   0000000180079558     dmresrcl2.obj
 0002:00020570       $unwind$AcpiDmDumpRawDataBuffer 0000000180079570     dmresrcl2.obj
 0002:00020588       $unwind$AcpiDmGpioIntDescriptor 0000000180079588     dmresrcl2.obj
 0002:00020588       $unwind$AcpiDmGpioIoDescriptor 0000000180079588     dmresrcl2.obj
 0002:00020588       $unwind$AcpiHwReadMultiple 0000000180079588     hwregs.obj
 0002:00020588       $unwind$AcpiUtCopySimpleObject 0000000180079588     utcopy.obj
 0002:0002059c       $unwind$AcpiDmIrqDescriptor 000000018007959c     dmresrcs.obj
 0002:000205b0       $unwind$AcpiDmDmaDescriptor 00000001800795b0     dmresrcs.obj
 0002:000205bc       $unwind$AcpiDmFixedDmaDescriptor 00000001800795bc     dmresrcs.obj
 0002:000205c4       $unwind$AcpiDmIoDescriptor 00000001800795c4     dmresrcs.obj
 0002:000205d0       $unwind$AcpiDmFixedIoDescriptor 00000001800795d0     dmresrcs.obj
 0002:000205dc       $unwind$AcpiDmStartDependentDescriptor 00000001800795dc     dmresrcs.obj
 0002:000205ec       $unwind$AcpiDmEndDependentDescriptor 00000001800795ec     dmresrcs.obj
 0002:000205f4       $unwind$AcpiDmIndent       00000001800795f4     dmutils.obj
 0002:000205fc       $unwind$AcpiDmCommaIfListMember 00000001800795fc     dmutils.obj
 0002:00020604       $unwind$AcpiDmCommaIfFieldMember 0000000180079604     dmutils.obj
 0002:0002060c       $unwind$AcpiDmDisassemble  000000018007960c     dmwalk.obj
 0002:00020618       $unwind$AcpiDmWalkParseTree 0000000180079618     dmwalk.obj
 0002:00020630       $unwind$AcpiDmListType     0000000180079630     dmwalk.obj
 0002:00020638       $unwind$AcpiDmBlockType    0000000180079638     dmwalk.obj
 0002:00020640       $unwind$AcpiDmDescendingOp 0000000180079640     dmwalk.obj
 0002:0002065c       $unwind$AcpiDmAscendingOp  000000018007965c     dmwalk.obj
 0002:00020674       $unwind$AcpiDsGetBufferFieldArguments 0000000180079674     dsargs.obj
 0002:00020680       $unwind$AcpiDsGetBankFieldArguments 0000000180079680     dsargs.obj
 0002:0002068c       $unwind$AcpiDsGetRegionArguments 000000018007968c     dsargs.obj
 0002:000206a4       $unwind$AcpiDsGetBufferArguments 00000001800796a4     dsargs.obj
 0002:000206bc       $unwind$AcpiDsGetPackageArguments 00000001800796bc     dsargs.obj
 0002:000206d4       $unwind$AcpiDsExecuteArguments 00000001800796d4     dsargs.obj
 0002:000206f0       $unwind$AcpiDsExecBeginControlOp 00000001800796f0     dscontrol.obj
 0002:00020704       $unwind$AcpiDsExecEndControlOp 0000000180079704     dscontrol.obj
 0002:00020720       $unwind$AcpiDsDumpMethodStack 0000000180079720     dsdebug.obj
 0002:0002073c       $unwind$AcpiDsPrintNodePathname 000000018007973c     dsdebug.obj
 0002:00020754       $unwind$AcpiDsCreateField  0000000180079754     dsfield.obj
 0002:00020770       $unwind$AcpiDsCreateBankField 0000000180079770     dsfield.obj
 0002:0002078c       $unwind$AcpiDsCreateIndexField 000000018007978c     dsfield.obj
 0002:000207a8       $unwind$AcpiDsCreateBufferField 00000001800797a8     dsfield.obj
 0002:000207c0       $unwind$AcpiDsInitFieldObjects 00000001800797c0     dsfield.obj
 0002:000207dc       $unwind$AcpiDsGetFieldNames 00000001800797dc     dsfield.obj
 0002:000207f4       $unwind$AcpiDsInitializeObjects 00000001800797f4     dsinit.obj
 0002:00020810       $unwind$AcpiDsInitOneObject 0000000180079810     dsinit.obj
 0002:00020820       $unwind$AcpiDsAutoSerializeMethod 0000000180079820     dsmethod.obj
 0002:0002083c       $unwind$AcpiDsCallControlMethod 000000018007983c     dsmethod.obj
 0002:00020858       $unwind$AcpiDsRestartControlMethod 0000000180079858     dsmethod.obj
 0002:00020870       $unwind$AcpiDsTerminateControlMethod 0000000180079870     dsmethod.obj
 0002:00020880       $unwind$AcpiDsBeginMethodExecution 0000000180079880     dsmethod.obj
 0002:0002089c       $unwind$AcpiDsMethodError  000000018007989c     dsmethod.obj
 0002:000208ac       $unwind$AcpiDsDetectNamedOpcodes 00000001800798ac     dsmethod.obj
 0002:000208b4       $unwind$AcpiDsCreateMethodMutex 00000001800798b4     dsmethod.obj
 0002:000208b4       $unwind$AcpiInstallAddressSpaceHandlerInternal 00000001800798b4     evxfregn.obj
 0002:000208b4       $unwind$AcpiExAllocateNameString 00000001800798b4     exnames.obj
 0002:000208cc       $unwind$AcpiDsStoreObjectToLocal 00000001800798cc     dsmthdat.obj
 0002:000208e8       $unwind$AcpiDsMethodDataDeleteAll 00000001800798e8     dsmthdat.obj
 0002:000208f8       $unwind$AcpiDsMethodDataGetValue 00000001800798f8     dsmthdat.obj
 0002:00020910       $unwind$AcpiDsMethodDataInitArgs 0000000180079910     dsmthdat.obj
 0002:0002092c       $unwind$AcpiDsMethodDataGetNode 000000018007992c     dsmthdat.obj
 0002:00020948       $unwind$AcpiDsMethodDataInit 0000000180079948     dsmthdat.obj
 0002:00020950       $unwind$AcpiDsMethodDataSetValue 0000000180079950     dsmthdat.obj
 0002:00020964       $unwind$AcpiDsBuildInternalObject 0000000180079964     dsobject.obj
 0002:0002097c       $unwind$AcpiDsBuildInternalBufferObj 000000018007997c     dsobject.obj
 0002:00020998       $unwind$AcpiDsInitObjectFromOp 0000000180079998     dsobject.obj
 0002:000209b4       $unwind$AcpiDsCreateNode   00000001800799b4     dsobject.obj
 0002:000209cc       $unwind$AcpiDsEvalBufferFieldOperands 00000001800799cc     dsopcode.obj
 0002:000209e8       $unwind$AcpiDsEvalRegionOperands 00000001800799e8     dsopcode.obj
 0002:00020a04       $unwind$AcpiDsEvalTableRegionOperands 0000000180079a04     dsopcode.obj
 0002:00020a18       $unwind$AcpiDsEvalDataObjectOperands 0000000180079a18     dsopcode.obj
 0002:00020a34       $unwind$AcpiDsEvalBankFieldOperands 0000000180079a34     dsopcode.obj
 0002:00020a50       $unwind$AcpiDsInitializeRegion 0000000180079a50     dsopcode.obj
 0002:00020a58       $unwind$AcpiDsInitBufferField 0000000180079a58     dsopcode.obj
 0002:00020a74       $unwind$AcpiDsBuildInternalPackageObj 0000000180079a74     dspkginit.obj
 0002:00020a8c       $unwind$AcpiDsInitPackageElement 0000000180079a8c     dspkginit.obj
 0002:00020a9c       $unwind$AcpiDsResolvePackageElement 0000000180079a9c     dspkginit.obj
 0002:00020ab4       $unwind$AcpiDsClearImplicitReturn 0000000180079ab4     dsutils.obj
 0002:00020abc       $unwind$AcpiDsDoImplicitReturn 0000000180079abc     dsutils.obj
 0002:00020acc       $unwind$AcpiDsIsResultUsed 0000000180079acc     dsutils.obj
 0002:00020ae4       $unwind$AcpiDsDeleteResultIfNotUsed 0000000180079ae4     dsutils.obj
 0002:00020af4       $unwind$AcpiDsCreateOperand 0000000180079af4     dsutils.obj
 0002:00020b0c       $unwind$AcpiDsCreateOperands 0000000180079b0c     dsutils.obj
 0002:00020b2c       $unwind$AcpiDsResolveOperands 0000000180079b2c     dsutils.obj
 0002:00020b3c       $unwind$AcpiDsClearOperands 0000000180079b3c     dsutils.obj
 0002:00020b4c       $unwind$AcpiDsEvaluateNamePath 0000000180079b4c     dsutils.obj
 0002:00020b64       $unwind$AcpiDsGetPredicateValue 0000000180079b64     dswexec.obj
 0002:00020b7c       $unwind$AcpiDsExecBeginOp  0000000180079b7c     dswexec.obj
 0002:00020b98       $unwind$AcpiDsExecEndOp    0000000180079b98     dswexec.obj
 0002:00020bb0       $unwind$AcpiDsLoad1BeginOp 0000000180079bb0     dswload.obj
 0002:00020bcc       $unwind$AcpiDsLoad1EndOp   0000000180079bcc     dswload.obj
 0002:00020be8       $unwind$AcpiDsLoad2BeginOp 0000000180079be8     dswload2.obj
 0002:00020c00       $unwind$AcpiDsLoad2EndOp   0000000180079c00     dswload2.obj
 0002:00020c18       $unwind$AcpiDsScopeStackPush 0000000180079c18     dswscope.obj
 0002:00020c34       $unwind$AcpiDsScopeStackPop 0000000180079c34     dswscope.obj
 0002:00020c50       $unwind$AcpiDsScopeStackClear 0000000180079c50     dswscope.obj
 0002:00020c5c       $unwind$AcpiDsObjStackPush 0000000180079c5c     dswstate.obj
 0002:00020c6c       $unwind$AcpiDsObjStackPop  0000000180079c6c     dswstate.obj
 0002:00020c74       $unwind$AcpiDsCreateWalkState 0000000180079c74     dswstate.obj
 0002:00020c8c       $unwind$AcpiDsInitAmlWalk  0000000180079c8c     dswstate.obj
 0002:00020ca8       $unwind$AcpiDsObjStackPopAndDelete 0000000180079ca8     dswstate.obj
 0002:00020cc0       $unwind$AcpiDsDeleteWalkState 0000000180079cc0     dswstate.obj
 0002:00020ccc       $unwind$AcpiDsPopWalkState 0000000180079ccc     dswstate.obj
 0002:00020cd8       $unwind$AcpiDsPushWalkState 0000000180079cd8     dswstate.obj
 0002:00020ce4       $unwind$AcpiDsGetCurrentWalkState 0000000180079ce4     dswstate.obj
 0002:00020cec       $unwind$AcpiDsResultPop    0000000180079cec     dswstate.obj
 0002:00020d00       $unwind$AcpiDsResultPush   0000000180079d00     dswstate.obj
 0002:00020d14       $unwind$AcpiDsResultStackPop 0000000180079d14     dswstate.obj
 0002:00020d14       $unwind$AcpiUtGetPackageObjectSize 0000000180079d14     utobject.obj
 0002:00020d20       $unwind$AcpiEvInitializeEvents 0000000180079d20     evevent.obj
 0002:00020d34       $unwind$AcpiEvInstallXruptHandlers 0000000180079d34     evevent.obj
 0002:00020d48       $unwind$AcpiEvFixedEventDetect 0000000180079d48     evevent.obj
 0002:00020d58       $unwind$AeDisplayMethodCallStack 0000000180079d58     aeexception.obj
 0002:00020d58       $unwind$AcpiEvFixedEventDispatch 0000000180079d58     evevent.obj
 0002:00020d58       $unwind$AcpiExRegionRead   0000000180079d58     exconfig.obj
 0002:00020d58       $unwind$AcpiUtCopyIpackageToIpackage 0000000180079d58     utcopy.obj
 0002:00020d6c       $unwind$AcpiEvInitGlobalLockHandler 0000000180079d6c     evglock.obj
 0002:00020d80       $unwind$AcpiEvAcquireGlobalLock 0000000180079d80     evglock.obj
 0002:00020d98       $unwind$AcpiEvReleaseGlobalLock 0000000180079d98     evglock.obj
 0002:00020da4       $unwind$AcpiEvRemoveGlobalLockHandler 0000000180079da4     evglock.obj
 0002:00020dac       $unwind$AcpiEvGlobalLockHandler 0000000180079dac     evglock.obj
 0002:00020db4       $unwind$AcpiEvGpeDetect    0000000180079db4     evgpe.obj
 0002:00020dcc       $unwind$AcpiEvUpdateGpeEnableMask 0000000180079dcc     evgpe.obj
 0002:00020dd8       $unwind$AcpiEvEnableGpe    0000000180079dd8     evgpe.obj
 0002:00020de0       $unwind$AcpiEvMaskGpe      0000000180079de0     evgpe.obj
 0002:00020dfc       $unwind$AcpiEvAddGpeReference 0000000180079dfc     evgpe.obj
 0002:00020e0c       $unwind$AcpiEvRemoveGpeReference 0000000180079e0c     evgpe.obj
 0002:00020e18       $unwind$AcpiEvGetGpeEventInfo 0000000180079e18     evgpe.obj
 0002:00020e28       $unwind$AcpiEvFinishGpe    0000000180079e28     evgpe.obj
 0002:00020e30       $unwind$AcpiEvDetectGpe    0000000180079e30     evgpe.obj
 0002:00020e48       $unwind$AcpiEvGpeDispatch  0000000180079e48     evgpe.obj
 0002:00020e5c       $unwind$AcpiEvAsynchExecuteGpeMethod 0000000180079e5c     evgpe.obj
 0002:00020e74       $unwind$AcpiEvAsynchEnableGpe 0000000180079e74     evgpe.obj
 0002:00020e80       $unwind$AcpiEvCreateGpeBlock 0000000180079e80     evgpeblk.obj
 0002:00020e9c       $unwind$AcpiEvInitializeGpeBlock 0000000180079e9c     evgpeblk.obj
 0002:00020eb8       $unwind$AcpiEvDeleteGpeBlock 0000000180079eb8     evgpeblk.obj
 0002:00020ecc       $unwind$AcpiEvCreateGpeInfoBlocks 0000000180079ecc     evgpeblk.obj
 0002:00020ecc       $unwind$AcpiEvInstallGpeHandler 0000000180079ecc     evxface.obj
 0002:00020ecc       $unwind$AcpiNsCheckPackageElements 0000000180079ecc     nsprepkg.obj
 0002:00020ecc       $unwind$AcpiPsGetNextField 0000000180079ecc     psargs.obj
 0002:00020ecc       $unwind$AcpiUtGetSimpleObjectSize 0000000180079ecc     utobject.obj
 0002:00020ee8       $unwind$AcpiEvGpeInitialize 0000000180079ee8     evgpeinit.obj
 0002:00020f04       $unwind$AcpiEvUpdateGpes   0000000180079f04     evgpeinit.obj
 0002:00020f14       $unwind$AcpiEvMatchGpeMethod 0000000180079f14     evgpeinit.obj
 0002:00020f2c       $unwind$AcpiEvWalkGpeList  0000000180079f2c     evgpeutil.obj
 0002:00020f48       $unwind$AcpiEvGetGpeXruptBlock 0000000180079f48     evgpeutil.obj
 0002:00020f64       $unwind$AcpiEvDeleteGpeXrupt 0000000180079f64     evgpeutil.obj
 0002:00020f78       $unwind$AcpiEvDeleteGpeHandlers 0000000180079f78     evgpeutil.obj
 0002:00020f90       $unwind$AcpiEvHasDefaultHandler 0000000180079f90     evhandler.obj
 0002:00020f98       $unwind$AcpiEvInstallRegionHandlers 0000000180079f98     evhandler.obj
 0002:00020fa8       $unwind$AcpiEvInstallSpaceHandler 0000000180079fa8     evhandler.obj
 0002:00020fc4       $unwind$AcpiEvInstallHandler 0000000180079fc4     evhandler.obj
 0002:00020fd4       $unwind$AcpiEvQueueNotifyRequest 0000000180079fd4     evmisc.obj
 0002:00020fec       $unwind$AcpiEvTerminate    0000000180079fec     evmisc.obj
 0002:00020ff8       $unwind$AcpiEvNotifyDispatch 0000000180079ff8     evmisc.obj
 0002:0002100c       $unwind$AcpiEvInitializeOpRegions 000000018007a00c     evregion.obj
 0002:00021018       $unwind$AcpiEvAddressSpaceDispatch 000000018007a018     evregion.obj
 0002:00021034       $unwind$AcpiEvAttachRegion 000000018007a034     evregion.obj
 0002:00021044       $unwind$AcpiEvDetachRegion 000000018007a044     evregion.obj
 0002:00021060       $unwind$AcpiEvExecuteRegMethods 000000018007a060     evregion.obj
 0002:00021070       $unwind$AcpiEvExecuteRegMethod 000000018007a070     evregion.obj
 0002:00021088       $unwind$AcpiEvRegRun       000000018007a088     evregion.obj
 0002:00021090       $unwind$AcpiEvExecuteOrphanRegMethod 000000018007a090     evregion.obj
 0002:000210a0       $unwind$AcpiEvSystemMemoryRegionSetup 000000018007a0a0     evrgnini.obj
 0002:000210b8       $unwind$AcpiEvIoSpaceRegionSetup 000000018007a0b8     evrgnini.obj
 0002:000210c8       $unwind$AcpiEvPciConfigRegionSetup 000000018007a0c8     evrgnini.obj
 0002:000210e0       $unwind$AcpiEvCmosRegionSetup 000000018007a0e0     evrgnini.obj
 0002:000210e8       $unwind$AcpiEvPciBarRegionSetup 000000018007a0e8     evrgnini.obj
 0002:000210f0       $unwind$AcpiEvDataTableRegionSetup 000000018007a0f0     evrgnini.obj
 0002:00021108       $unwind$AcpiEvDefaultRegionSetup 000000018007a108     evrgnini.obj
 0002:00021118       $unwind$AcpiEvInitializeRegion 000000018007a118     evrgnini.obj
 0002:00021134       $unwind$AcpiEvIsPciRootBridge 000000018007a134     evrgnini.obj
 0002:00021140       $unwind$AcpiEvGpeXruptHandler 000000018007a140     evsci.obj
 0002:00021148       $unwind$AcpiEvSciDispatch  000000018007a148     evsci.obj
 0002:00021158       $unwind$AcpiEvInstallSciHandler 000000018007a158     evsci.obj
 0002:00021160       $unwind$AcpiEvRemoveAllSciHandlers 000000018007a160     evsci.obj
 0002:0002116c       $unwind$AcpiEvSciXruptHandler 000000018007a16c     evsci.obj
 0002:00021178       $unwind$AcpiInstallSciHandler 000000018007a178     evxface.obj
 0002:00021190       $unwind$AcpiRemoveSciHandler 000000018007a190     evxface.obj
 0002:000211a8       $unwind$AcpiInstallGlobalEventHandler 000000018007a1a8     evxface.obj
 0002:000211b8       $unwind$AcpiInstallFixedEventHandler 000000018007a1b8     evxface.obj
 0002:000211d4       $unwind$AcpiRemoveFixedEventHandler 000000018007a1d4     evxface.obj
 0002:000211ec       $unwind$AcpiInstallGpeHandler 000000018007a1ec     evxface.obj
 0002:00021200       $unwind$AcpiInstallGpeRawHandler 000000018007a200     evxface.obj
 0002:00021214       $unwind$AcpiRemoveGpeHandler 000000018007a214     evxface.obj
 0002:00021230       $unwind$AcpiInstallNotifyHandler 000000018007a230     evxface.obj
 0002:0002124c       $unwind$AcpiRemoveNotifyHandler 000000018007a24c     evxface.obj
 0002:00021268       $unwind$AcpiInstallExceptionHandler 000000018007a268     evxface.obj
 0002:00021274       $unwind$AcpiAcquireGlobalLock 000000018007a274     evxface.obj
 0002:00021280       $unwind$AcpiEnable         000000018007a280     evxfevnt.obj
 0002:00021294       $unwind$AcpiDisable        000000018007a294     evxfevnt.obj
 0002:000212a8       $unwind$AcpiEnableEvent    000000018007a2a8     evxfevnt.obj
 0002:000212c0       $unwind$AcpiDisableEvent   000000018007a2c0     evxfevnt.obj
 0002:000212d8       $unwind$AcpiClearEvent     000000018007a2d8     evxfevnt.obj
 0002:000212e0       $unwind$AcpiGetEventStatus 000000018007a2e0     evxfevnt.obj
 0002:000212f8       $unwind$AcpiUpdateAllGpes  000000018007a2f8     evxfgpe.obj
 0002:00021300       $unwind$AcpiEnableGpe      000000018007a300     evxfgpe.obj
 0002:00021314       $unwind$AcpiDisableGpe     000000018007a314     evxfgpe.obj
 0002:00021328       $unwind$AcpiClearGpe       000000018007a328     evxfgpe.obj
 0002:00021338       $unwind$AcpiSetGpe         000000018007a338     evxfgpe.obj
 0002:0002134c       $unwind$AcpiFinishGpe      000000018007a34c     evxfgpe.obj
 0002:0002135c       $unwind$AcpiMaskGpe        000000018007a35c     evxfgpe.obj
 0002:00021370       $unwind$AcpiMarkGpeForWake 000000018007a370     evxfgpe.obj
 0002:00021384       $unwind$AcpiSetupGpeForWake 000000018007a384     evxfgpe.obj
 0002:000213a0       $unwind$AcpiSetGpeWakeMask 000000018007a3a0     evxfgpe.obj
 0002:000213b8       $unwind$AcpiGetGpeStatus   000000018007a3b8     evxfgpe.obj
 0002:000213cc       $unwind$AcpiDispatchGpe    000000018007a3cc     evxfgpe.obj
 0002:000213d8       $unwind$AcpiDisableAllGpes 000000018007a3d8     evxfgpe.obj
 0002:000213e0       $unwind$AcpiEnableAllRuntimeGpes 000000018007a3e0     evxfgpe.obj
 0002:000213e8       $unwind$AcpiEnableAllWakeupGpes 000000018007a3e8     evxfgpe.obj
 0002:000213f0       $unwind$AcpiAnyGpeStatusSet 000000018007a3f0     evxfgpe.obj
 0002:000213f8       $unwind$AcpiGetGpeDevice   000000018007a3f8     evxfgpe.obj
 0002:00021410       $unwind$AcpiInstallGpeBlock 000000018007a410     evxfgpe.obj
 0002:0002142c       $unwind$AcpiRemoveGpeBlock 000000018007a42c     evxfgpe.obj
 0002:00021444       $unwind$AcpiInstallAddressSpaceHandler 000000018007a444     evxfregn.obj
 0002:0002144c       $unwind$AcpiInstallAddressSpaceHandlerNo_Reg 000000018007a44c     evxfregn.obj
 0002:00021454       $unwind$AcpiExecuteRegMethods 000000018007a454     evxfregn.obj
 0002:00021464       $unwind$AcpiRemoveAddressSpaceHandler 000000018007a464     evxfregn.obj
 0002:00021480       $unwind$AcpiExConcatTemplate 000000018007a480     exconcat.obj
 0002:0002149c       $unwind$AcpiExDoConcatenate 000000018007a49c     exconcat.obj
 0002:000214b4       $unwind$AcpiExLoadOp       000000018007a4b4     exconfig.obj
 0002:000214cc       $unwind$AcpiExLoadTableOp  000000018007a4cc     exconfig.obj
 0002:000214e4       $unwind$AcpiExUnloadTable  000000018007a4e4     exconfig.obj
 0002:000214f4       $unwind$AcpiExAddTable     000000018007a4f4     exconfig.obj
 0002:000214f4       $unwind$AcpiPsGetAmlOpcode 000000018007a4f4     psobject.obj
 0002:000214f4       $unwind$AcpiUtDeleteMutex  000000018007a4f4     utmutex.obj
 0002:00021500       $unwind$AcpiExConvertToInteger 000000018007a500     exconvrt.obj
 0002:00021518       $unwind$AcpiExConvertToBuffer 000000018007a518     exconvrt.obj
 0002:00021530       $unwind$AcpiExConvertToString 000000018007a530     exconvrt.obj
 0002:0002154c       $unwind$AcpiExConvertToTargetType 000000018007a54c     exconvrt.obj
 0002:00021568       $unwind$AcpiExConvertToAscii 000000018007a568     exconvrt.obj
 0002:00021580       $unwind$AcpiExCreateMutex  000000018007a580     excreate.obj
 0002:00021590       $unwind$AcpiExCreateProcessor 000000018007a590     excreate.obj
 0002:0002159c       $unwind$AcpiExCreatePowerResource 000000018007a59c     excreate.obj
 0002:000215a8       $unwind$AcpiExCreateRegion 000000018007a5a8     excreate.obj
 0002:000215c4       $unwind$AcpiExCreateEvent  000000018007a5c4     excreate.obj
 0002:000215d4       $unwind$AcpiExCreateAlias  000000018007a5d4     excreate.obj
 0002:000215dc       $unwind$AcpiExCreateMethod 000000018007a5dc     excreate.obj
 0002:000215f0       $unwind$AcpiExDoDebugObject 000000018007a5f0     exdebug.obj
 0002:00021604       $unwind$AcpiExDumpOperand  000000018007a604     exdump.obj
 0002:00021620       $unwind$AcpiExDumpOperands 000000018007a620     exdump.obj
 0002:00021634       $unwind$AcpiExDumpObjectDescriptor 000000018007a634     exdump.obj
 0002:00021640       $unwind$AcpiExDumpNamespaceNode 000000018007a640     exdump.obj
 0002:0002164c       $unwind$AcpiExDumpObject   000000018007a64c     exdump.obj
 0002:00021668       $unwind$AeTestSleepData    000000018007a668     aetests.obj
 0002:00021668       $unwind$AcpiExDumpReferenceObj 000000018007a668     exdump.obj
 0002:00021670       $unwind$AcpiExGetProtocolBufferLength 000000018007a670     exfield.obj
 0002:00021678       $unwind$AcpiExReadDataFromField 000000018007a678     exfield.obj
 0002:00021694       $unwind$AcpiExWriteDataToField 000000018007a694     exfield.obj
 0002:000216b0       $unwind$AcpiExWriteWithUpdateRule 000000018007a6b0     exfldio.obj
 0002:000216c8       $unwind$AcpiExExtractFromField 000000018007a6c8     exfldio.obj
 0002:000216e0       $unwind$AcpiExInsertIntoField 000000018007a6e0     exfldio.obj
 0002:000216f8       $unwind$AcpiExAccessRegion 000000018007a6f8     exfldio.obj
 0002:00021710       $unwind$AcpiExFieldDatumIo 000000018007a710     exfldio.obj
 0002:00021728       $unwind$AcpiExGetObjectReference 000000018007a728     exmisc.obj
 0002:00021744       $unwind$AcpiExDoLogicalNumericOp 000000018007a744     exmisc.obj
 0002:0002175c       $unwind$AcpiExDoLogicalOp  000000018007a75c     exmisc.obj
 0002:00021778       $unwind$AcpiExDoMathOp     000000018007a778     exmisc.obj
 0002:00021788       $unwind$AcpiExAcquireMutex 000000018007a788     exmutex.obj
 0002:000217a0       $unwind$AcpiExAcquireMutexObject 000000018007a7a0     exmutex.obj
 0002:000217b8       $unwind$AcpiExReleaseMutex 000000018007a7b8     exmutex.obj
 0002:000217d4       $unwind$AcpiExReleaseMutexObject 000000018007a7d4     exmutex.obj
 0002:000217e8       $unwind$AcpiExReleaseAllMutexes 000000018007a7e8     exmutex.obj
 0002:000217fc       $unwind$AcpiExGetNameString 000000018007a7fc     exnames.obj
 0002:00021814       $unwind$AcpiExNameSegment  000000018007a814     exnames.obj
 0002:00021830       $unwind$AcpiExOpcode_0A_0T_1R 000000018007a830     exoparg1.obj
 0002:00021840       $unwind$AcpiExOpcode_1A_0T_0R 000000018007a840     exoparg1.obj
 0002:00021848       $unwind$AcpiExOpcode_1A_0T_1R 000000018007a848     exoparg1.obj
 0002:0002185c       $unwind$AcpiExOpcode_1A_1T_1R 000000018007a85c     exoparg1.obj
 0002:00021870       $unwind$AcpiExOpcode_2A_0T_0R 000000018007a870     exoparg2.obj
 0002:0002187c       $unwind$AcpiExOpcode_2A_0T_1R 000000018007a87c     exoparg2.obj
 0002:0002188c       $unwind$AcpiExOpcode_2A_1T_1R 000000018007a88c     exoparg2.obj
 0002:000218a4       $unwind$AcpiExOpcode_2A_2T_1R 000000018007a8a4     exoparg2.obj
 0002:000218bc       $unwind$AcpiExOpcode_3A_0T_0R 000000018007a8bc     exoparg3.obj
 0002:000218d4       $unwind$AcpiExOpcode_3A_1T_1R 000000018007a8d4     exoparg3.obj
 0002:000218f0       $unwind$AcpiExOpcode_6A_0T_1R 000000018007a8f0     exoparg6.obj
 0002:00021904       $unwind$AcpiExPrepCommonFieldObject 000000018007a904     exprep.obj
 0002:00021918       $unwind$AcpiExPrepFieldValue 000000018007a918     exprep.obj
 0002:00021934       $unwind$AcpiExSystemMemorySpaceHandler 000000018007a934     exregion.obj
 0002:00021950       $unwind$AcpiExSystemIoSpaceHandler 000000018007a950     exregion.obj
 0002:00021964       $unwind$AcpiExPciConfigSpaceHandler 000000018007a964     exregion.obj
 0002:0002197c       $unwind$AcpiExCmosSpaceHandler 000000018007a97c     exregion.obj
 0002:00021984       $unwind$AcpiExPciBarSpaceHandler 000000018007a984     exregion.obj
 0002:0002198c       $unwind$AcpiExDataTableSpaceHandler 000000018007a98c     exregion.obj
 0002:000219a0       $unwind$AcpiExResolveNodeToValue 000000018007a9a0     exresnte.obj
 0002:000219bc       $unwind$AcpiExResolveToValue 000000018007a9bc     exresolv.obj
 0002:000219d4       $unwind$AcpiExResolveMultiple 000000018007a9d4     exresolv.obj
 0002:000219f0       $unwind$AcpiExResolveObjectToValue 000000018007a9f0     exresolv.obj
 0002:00021a08       $unwind$AcpiExResolveOperands 000000018007aa08     exresop.obj
 0002:00021a24       $unwind$AcpiExReadSerialBus 000000018007aa24     exserial.obj
 0002:00021a3c       $unwind$AcpiExWriteSerialBus 000000018007aa3c     exserial.obj
 0002:00021a58       $unwind$AcpiExReadGpio     000000018007aa58     exserial.obj
 0002:00021a64       $unwind$AcpiExWriteGpio    000000018007aa64     exserial.obj
 0002:00021a74       $unwind$AcpiExStore        000000018007aa74     exstore.obj
 0002:00021a90       $unwind$AcpiExStoreObjectToNode 000000018007aa90     exstore.obj
 0002:00021aa8       $unwind$AcpiExStoreObjectToIndex 000000018007aaa8     exstore.obj
 0002:00021ac4       $unwind$AcpiExStoreDirectToNode 000000018007aac4     exstore.obj
 0002:00021ad8       $unwind$AcpiExResolveObject 000000018007aad8     exstoren.obj
 0002:00021af0       $unwind$AcpiExStoreObjectToObject 000000018007aaf0     exstoren.obj
 0002:00021b08       $unwind$AcpiExStoreBufferToBuffer 000000018007ab08     exstorob.obj
 0002:00021b24       $unwind$AcpiExStoreStringToString 000000018007ab24     exstorob.obj
 0002:00021b40       $unwind$AcpiExSystemDoSleep 000000018007ab40     exsystem.obj
 0002:00021b48       $unwind$AcpiExSystemDoStall 000000018007ab48     exsystem.obj
 0002:00021b54       $unwind$AcpiExSystemSignalEvent 000000018007ab54     exsystem.obj
 0002:00021b60       $unwind$AcpiExSystemWaitEvent 000000018007ab60     exsystem.obj
 0002:00021b70       $unwind$AcpiExSystemResetEvent 000000018007ab70     exsystem.obj
 0002:00021b7c       $unwind$AcpiExSystemWaitSemaphore 000000018007ab7c     exsystem.obj
 0002:00021b8c       $unwind$AcpiExSystemWaitMutex 000000018007ab8c     exsystem.obj
 0002:00021b9c       $unwind$AcpiExStartTraceMethod 000000018007ab9c     extrace.obj
 0002:00021ba8       $unwind$AcpiExStopTraceMethod 000000018007aba8     extrace.obj
 0002:00021bb4       $unwind$AcpiExStartTraceOpcode 000000018007abb4     extrace.obj
 0002:00021bbc       $unwind$AcpiExStopTraceOpcode 000000018007abbc     extrace.obj
 0002:00021bc4       $unwind$AcpiExTracePoint   000000018007abc4     extrace.obj
 0002:00021bcc       $unwind$AcpiExEnterInterpreter 000000018007abcc     exutils.obj
 0002:00021bd4       $unwind$AcpiExExitInterpreter 000000018007abd4     exutils.obj
 0002:00021bdc       $unwind$AcpiExTruncateFor32bitTable 000000018007abdc     exutils.obj
 0002:00021be4       $unwind$AcpiExAcquireGlobalLock 000000018007abe4     exutils.obj
 0002:00021bec       $unwind$AcpiExReleaseGlobalLock 000000018007abec     exutils.obj
 0002:00021bf4       $unwind$AcpiExEisaIdToString 000000018007abf4     exutils.obj
 0002:00021c00       $unwind$AcpiExIntegerToString 000000018007ac00     exutils.obj
 0002:00021c0c       $unwind$AcpiExPciClsToString 000000018007ac0c     exutils.obj
 0002:00021c18       $unwind$AeHardwareInterfaces 000000018007ac18     aetests.obj
 0002:00021c18       $unwind$AcpiExDigitsNeeded 000000018007ac18     exutils.obj
 0002:00021c28       $unwind$AcpiHwSetMode      000000018007ac28     hwacpi.obj
 0002:00021c40       $unwind$AcpiHwGetMode      000000018007ac40     hwacpi.obj
 0002:00021c50       $unwind$AcpiHwExecuteSleepMethod 000000018007ac50     hwesleep.obj
 0002:00021c5c       $unwind$AcpiHwExtendedSleep 000000018007ac5c     hwesleep.obj
 0002:00021c74       $unwind$AcpiHwExtendedWakePrep 000000018007ac74     hwesleep.obj
 0002:00021c7c       $unwind$AcpiHwExtendedWake 000000018007ac7c     hwesleep.obj
 0002:00021c84       $unwind$AcpiHwLowSetGpe    000000018007ac84     hwgpe.obj
 0002:00021c98       $unwind$AcpiHwDisableGpeBlock 000000018007ac98     hwgpe.obj
 0002:00021ca4       $unwind$AcpiHwClearGpe     000000018007aca4     hwgpe.obj
 0002:00021cac       $unwind$AcpiHwClearGpeBlock 000000018007acac     hwgpe.obj
 0002:00021cb8       $unwind$AcpiHwGetGpeStatus 000000018007acb8     hwgpe.obj
 0002:00021ccc       $unwind$AcpiHwDisableAllGpes 000000018007accc     hwgpe.obj
 0002:00021cd4       $unwind$AcpiHwEnableAllRuntimeGpes 000000018007acd4     hwgpe.obj
 0002:00021cdc       $unwind$AcpiHwEnableAllWakeupGpes 000000018007acdc     hwgpe.obj
 0002:00021ce4       $unwind$AcpiHwCheckAllGpes 000000018007ace4     hwgpe.obj
 0002:00021cec       $unwind$AcpiHwEnableRuntimeGpeBlock 000000018007acec     hwgpe.obj
 0002:00021cf8       $unwind$AcpiHwEnableWakeupGpeBlock 000000018007acf8     hwgpe.obj
 0002:00021d04       $unwind$AcpiHwGetGpeBlockStatus 000000018007ad04     hwgpe.obj
 0002:00021d14       $unwind$AcpiHwDerivePciId  000000018007ad14     hwpci.obj
 0002:00021d24       $unwind$AcpiHwProcessPciList 000000018007ad24     hwpci.obj
 0002:00021d34       $unwind$AcpiHwDeletePciList 000000018007ad34     hwpci.obj
 0002:00021d3c       $unwind$AcpiHwGetPciDeviceInfo 000000018007ad3c     hwpci.obj
 0002:00021d50       $unwind$AcpiHwValidateRegister 000000018007ad50     hwregs.obj
 0002:00021d58       $unwind$AcpiHwRead         000000018007ad58     hwregs.obj
 0002:00021d70       $unwind$AcpiHwWrite        000000018007ad70     hwregs.obj
 0002:00021d88       $unwind$AcpiHwGetBitRegisterInfo 000000018007ad88     hwregs.obj
 0002:00021d90       $unwind$AcpiHwWritePm1Control 000000018007ad90     hwregs.obj
 0002:00021d9c       $unwind$AcpiHwRegisterRead 000000018007ad9c     hwregs.obj
 0002:00021dac       $unwind$AcpiHwRegisterWrite 000000018007adac     hwregs.obj
 0002:00021db8       $unwind$AcpiHwClearAcpiStatus 000000018007adb8     hwregs.obj
 0002:00021dc4       $unwind$AcpiHwGetAccessBitWidth 000000018007adc4     hwregs.obj
 0002:00021dcc       $unwind$AcpiHwLegacySleep  000000018007adcc     hwsleep.obj
 0002:00021de4       $unwind$AcpiHwLegacyWakePrep 000000018007ade4     hwsleep.obj
 0002:00021df4       $unwind$AcpiHwLegacyWake   000000018007adf4     hwsleep.obj
 0002:00021e04       $unwind$AcpiGetTimerResolution 000000018007ae04     hwtimer.obj
 0002:00021e0c       $unwind$AcpiGetTimer       000000018007ae0c     hwtimer.obj
 0002:00021e18       $unwind$AcpiGetTimerDuration 000000018007ae18     hwtimer.obj
 0002:00021e30       $unwind$AcpiHwReadPort     000000018007ae30     hwvalid.obj
 0002:00021e44       $unwind$AcpiHwWritePort    000000018007ae44     hwvalid.obj
 0002:00021e58       $unwind$AcpiHwValidateIoRequest 000000018007ae58     hwvalid.obj
 0002:00021e74       $unwind$AcpiReset          000000018007ae74     hwxface.obj
 0002:00021e7c       $unwind$AcpiReadBitRegister 000000018007ae7c     hwxface.obj
 0002:00021e94       $unwind$AcpiWriteBitRegister 000000018007ae94     hwxface.obj
 0002:00021ea8       $unwind$AcpiGetSleepTypeData 000000018007aea8     hwxface.obj
 0002:00021ec0       $unwind$AcpiEnterSleepStatePrep 000000018007aec0     hwxfsleep.obj
 0002:00021ed0       $unwind$AcpiEnterSleepState 000000018007aed0     hwxfsleep.obj
 0002:00021ed8       $unwind$AcpiEnterSleepStateS4bios 000000018007aed8     hwxfsleep.obj
 0002:00021eec       $unwind$AcpiLeaveSleepStatePrep 000000018007aeec     hwxfsleep.obj
 0002:00021ef4       $unwind$AcpiLeaveSleepState 000000018007aef4     hwxfsleep.obj
 0002:00021efc       $unwind$AcpiSetFirmwareWakingVector 000000018007aefc     hwxfsleep.obj
 0002:00021f08       $unwind$AcpiNsRootInitialize 000000018007af08     nsaccess.obj
 0002:00021f20       $unwind$AcpiNsLookup       000000018007af20     nsaccess.obj
 0002:00021f38       $unwind$AcpiNsCreateNode   000000018007af38     nsalloc.obj
 0002:00021f44       $unwind$AcpiNsDeleteNode   000000018007af44     nsalloc.obj
 0002:00021f54       $unwind$AcpiNsRemoveNode   000000018007af54     nsalloc.obj
 0002:00021f5c       $unwind$AcpiNsDeleteNamespaceSubtree 000000018007af5c     nsalloc.obj
 0002:00021f6c       $unwind$AcpiNsDeleteNamespaceByOwner 000000018007af6c     nsalloc.obj
 0002:00021f84       $unwind$AcpiNsDeleteChildren 000000018007af84     nsalloc.obj
 0002:00021f90       $unwind$AcpiNsInstallNode  000000018007af90     nsalloc.obj
 0002:00021fa8       $unwind$AcpiNsCheckArgumentCount 000000018007afa8     nsarguments.obj
 0002:00021fb8       $unwind$AcpiNsCheckAcpiCompliance 000000018007afb8     nsarguments.obj
 0002:00021fc8       $unwind$AcpiNsCheckArgumentTypes 000000018007afc8     nsarguments.obj
 0002:00021fe4       $unwind$AcpiNsConvertToInteger 000000018007afe4     nsconvert.obj
 0002:00021fec       $unwind$AcpiNsConvertToString 000000018007afec     nsconvert.obj
 0002:00021ffc       $unwind$AcpiNsConvertToBuffer 000000018007affc     nsconvert.obj
 0002:0002200c       $unwind$AcpiNsConvertToUnicode 000000018007b00c     nsconvert.obj
 0002:00022020       $unwind$AcpiNsConvertToResource 000000018007b020     nsconvert.obj
 0002:00022028       $unwind$AcpiNsConvertToReference 000000018007b028     nsconvert.obj
 0002:00022040       $unwind$AcpiNsDumpEntry    000000018007b040     nsdump.obj
 0002:0002204c       $unwind$AcpiNsPrintPathname 000000018007b04c     nsdump.obj
 0002:0002205c       $unwind$AcpiNsDumpOneObject 000000018007b05c     nsdump.obj
 0002:00022074       $unwind$AcpiNsDumpObjects  000000018007b074     nsdump.obj
 0002:00022088       $unwind$AcpiNsDumpObjectPaths 000000018007b088     nsdump.obj
 0002:00022094       $unwind$AcpiNsDumpOneObjectPath 000000018007b094     nsdump.obj
 0002:000220ac       $unwind$AcpiNsEvaluate     000000018007b0ac     nseval.obj
 0002:000220c8       $unwind$AcpiNsInitializeObjects 000000018007b0c8     nsinit.obj
 0002:000220d8       $unwind$AcpiNsInitializeDevices 000000018007b0d8     nsinit.obj
 0002:000220f0       $unwind$AcpiNsInitOnePackage 000000018007b0f0     nsinit.obj
 0002:000220f8       $unwind$AcpiNsInitOneObject 000000018007b0f8     nsinit.obj
 0002:00022110       $unwind$AcpiNsInitOneDevice 000000018007b110     nsinit.obj
 0002:0002212c       $unwind$AcpiNsLoadTable    000000018007b12c     nsload.obj
 0002:00022144       $unwind$AcpiNsGetExternalPathname 000000018007b144     nsnames.obj
 0002:0002214c       $unwind$AcpiNsBuildNormalizedPath 000000018007b14c     nsnames.obj
 0002:00022160       $unwind$AcpiNsNormalizePathname 000000018007b160     nsnames.obj
 0002:00022170       $unwind$AcpiNsGetNormalizedPathname 000000018007b170     nsnames.obj
 0002:0002218c       $unwind$AcpiNsBuildPrefixedPathname 000000018007b18c     nsnames.obj
 0002:000221a0       $unwind$AcpiNsHandleToName 000000018007b1a0     nsnames.obj
 0002:000221b8       $unwind$AcpiNsHandleToPathname 000000018007b1b8     nsnames.obj
 0002:000221d4       $unwind$AcpiNsGetPathnameLength 000000018007b1d4     nsnames.obj
 0002:000221dc       $unwind$AcpiNsDetachObject 000000018007b1dc     nsobject.obj
 0002:000221e8       $unwind$AcpiNsAttachObject 000000018007b1e8     nsobject.obj
 0002:00022200       $unwind$AcpiNsGetAttachedObject 000000018007b200     nsobject.obj
 0002:0002220c       $unwind$AcpiNsGetSecondaryObject 000000018007b20c     nsobject.obj
 0002:00022214       $unwind$AcpiNsAttachData   000000018007b214     nsobject.obj
 0002:00022228       $unwind$AcpiNsDetachData   000000018007b228     nsobject.obj
 0002:00022230       $unwind$AcpiNsParseTable   000000018007b230     nsparse.obj
 0002:00022240       $unwind$AcpiNsExecuteTable 000000018007b240     nsparse.obj
 0002:00022258       $unwind$AcpiNsOneCompleteParse 000000018007b258     nsparse.obj
 0002:00022274       $unwind$AcpiNsCheckReturnValue 000000018007b274     nspredef.obj
 0002:0002228c       $unwind$AcpiNsCheckObjectType 000000018007b28c     nspredef.obj
 0002:000222a4       $unwind$AcpiNsCheckPackage 000000018007b2a4     nsprepkg.obj
 0002:000222c0       $unwind$AcpiNsCheckPackageList 000000018007b2c0     nsprepkg.obj
 0002:000222dc       $unwind$AcpiNsCustomPackage 000000018007b2dc     nsprepkg.obj
 0002:000222f0       $unwind$AcpiNsSimpleRepair 000000018007b2f0     nsrepair.obj
 0002:00022308       $unwind$AcpiNsWrapWithPackage 000000018007b308     nsrepair.obj
 0002:0002231c       $unwind$AcpiNsRepairNullElement 000000018007b31c     nsrepair.obj
 0002:00022330       $unwind$AcpiNsRemoveNullElements 000000018007b330     nsrepair.obj
 0002:00022340       $unwind$AcpiNsComplexRepairs 000000018007b340     nsrepair2.obj
 0002:00022354       $unwind$AcpiNsRepair_ALR   000000018007b354     nsrepair2.obj
 0002:0002235c       $unwind$AcpiNsRepair_CID   000000018007b35c     nsrepair2.obj
 0002:00022378       $unwind$AcpiNsRepair_CST   000000018007b378     nsrepair2.obj
 0002:00022390       $unwind$AcpiNsRepair_FDE   000000018007b390     nsrepair2.obj
 0002:000223a8       $unwind$AcpiNsRepair_HID   000000018007b3a8     nsrepair2.obj
 0002:000223c4       $unwind$AcpiNsRepair_PRT   000000018007b3c4     nsrepair2.obj
 0002:000223d8       $unwind$AcpiNsRepair_PSS   000000018007b3d8     nsrepair2.obj
 0002:000223f0       $unwind$AcpiNsRepair_TSS   000000018007b3f0     nsrepair2.obj
 0002:000223fc       $unwind$AeCommonNotifyHandler 000000018007b3fc     aehandlers.obj
 0002:000223fc       $unwind$AcpiNsCheckSortedList 000000018007b3fc     nsrepair2.obj
 0002:00022414       $unwind$AcpiNsSortList     000000018007b414     nsrepair2.obj
 0002:00022430       $unwind$AcpiNsSearchAndEnter 000000018007b430     nssearch.obj
 0002:00022448       $unwind$AcpiNsSearchOneScope 000000018007b448     nssearch.obj
 0002:00022464       $unwind$AcpiNsSearchParentTree 000000018007b464     nssearch.obj
 0002:0002247c       $unwind$AcpiNsOpensScope   000000018007b47c     nsutils.obj
 0002:00022484       $unwind$AcpiNsGetNodeUnlocked 000000018007b484     nsutils.obj
 0002:000224a0       $unwind$AcpiNsGetNode      000000018007b4a0     nsutils.obj
 0002:000224b8       $unwind$AcpiNsGetType      000000018007b4b8     nsutils.obj
 0002:000224c0       $unwind$AcpiNsLocal        000000018007b4c0     nsutils.obj
 0002:000224c8       $unwind$AcpiNsPrintNodePathname 000000018007b4c8     nsutils.obj
 0002:000224d0       $unwind$AcpiNsBuildInternalName 000000018007b4d0     nsutils.obj
 0002:000224ec       $unwind$AcpiNsGetInternalNameLength 000000018007b4ec     nsutils.obj
 0002:000224f4       $unwind$AcpiNsInternalizeName 000000018007b4f4     nsutils.obj
 0002:0002250c       $unwind$AcpiNsExternalizeName 000000018007b50c     nsutils.obj
 0002:00022528       $unwind$AcpiNsValidateHandle 000000018007b528     nsutils.obj
 0002:00022530       $unwind$AcpiNsTerminate    000000018007b530     nsutils.obj
 0002:00022538       $unwind$AcpiNsWalkNamespace 000000018007b538     nswalk.obj
 0002:00022550       $unwind$AcpiNsGetNextNode  000000018007b550     nswalk.obj
 0002:0002255c       $unwind$AcpiNsGetNextNodeTyped 000000018007b55c     nswalk.obj
 0002:0002256c       $unwind$AcpiWalkNamespace  000000018007b56c     nsxfeval.obj
 0002:00022584       $unwind$AcpiGetDevices     000000018007b584     nsxfeval.obj
 0002:00022598       $unwind$AcpiAttachData     000000018007b598     nsxfeval.obj
 0002:000225a8       $unwind$AcpiDetachData     000000018007b5a8     nsxfeval.obj
 0002:000225b4       $unwind$AcpiGetData        000000018007b5b4     nsxfeval.obj
 0002:000225c4       $unwind$AcpiEvaluateObject 000000018007b5c4     nsxfeval.obj
 0002:000225e0       $unwind$AcpiEvaluateObjectTyped 000000018007b5e0     nsxfeval.obj
 0002:000225f8       $unwind$AcpiNsGetDeviceCallback 000000018007b5f8     nsxfeval.obj
 0002:00022610       $unwind$AcpiGetName        000000018007b610     nsxfname.obj
 0002:00022620       $unwind$AcpiGetHandle      000000018007b620     nsxfname.obj
 0002:00022634       $unwind$AcpiGetObjectInfo  000000018007b634     nsxfname.obj
 0002:0002264c       $unwind$AcpiInstallMethod  000000018007b64c     nsxfname.obj
 0002:00022668       $unwind$AcpiGetNextObject  000000018007b668     nsxfobj.obj
 0002:00022684       $unwind$AcpiGetType        000000018007b684     nsxfobj.obj
 0002:00022690       $unwind$AcpiGetParent      000000018007b690     nsxfobj.obj
 0002:000226a0       $unwind$AcpiPsGetNextPackageEnd 000000018007b6a0     psargs.obj
 0002:000226ac       $unwind$AcpiPsGetNextNamestring 000000018007b6ac     psargs.obj
 0002:000226bc       $unwind$AcpiPsGetNextSimpleArg 000000018007b6bc     psargs.obj
 0002:000226d4       $unwind$AcpiPsGetNextNamepath 000000018007b6d4     psargs.obj
 0002:000226ec       $unwind$AcpiPsGetNextArg   000000018007b6ec     psargs.obj
 0002:00022708       $unwind$AcpiPsFreeFieldList 000000018007b708     psargs.obj
 0002:00022708       $unwind$AcpiTbFixString    000000018007b708     tbprint.obj
 0002:00022714       $unwind$AcpiPsParseLoop    000000018007b714     psloop.obj
 0002:0002272c       $unwind$AcpiPsGetArguments 000000018007b72c     psloop.obj
 0002:00022744       $unwind$AcpiPsBuildNamedOp 000000018007b744     psobject.obj
 0002:0002275c       $unwind$AcpiPsCreateOp     000000018007b75c     psobject.obj
 0002:00022774       $unwind$AcpiPsCompleteOp   000000018007b774     psobject.obj
 0002:00022790       $unwind$AcpiPsCompleteFinalOp 000000018007b790     psobject.obj
 0002:000227a8       $unwind$AcpiPsGetOpcodeInfo 000000018007b7a8     psopinfo.obj
 0002:000227b0       $unwind$AcpiPsGetOpcodeName 000000018007b7b0     psopinfo.obj
 0002:000227b8       $unwind$AcpiPsParseAml     000000018007b7b8     psparse.obj
 0002:000227d0       $unwind$AcpiPsCompleteThisOp 000000018007b7d0     psparse.obj
 0002:000227e8       $unwind$AcpiPsNextParseState 000000018007b7e8     psparse.obj
 0002:00022800       $unwind$AcpiPsInitScope    000000018007b800     psscope.obj
 0002:0002280c       $unwind$AcpiPsPopScope     000000018007b80c     psscope.obj
 0002:00022824       $unwind$AcpiPsPushScope    000000018007b824     psscope.obj
 0002:0002283c       $unwind$AcpiPsCleanupScope 000000018007b83c     psscope.obj
 0002:00022844       $unwind$AcpiPsAppendArg    000000018007b844     pstree.obj
 0002:00022850       $unwind$AcpiPsGetArg       000000018007b850     pstree.obj
 0002:0002285c       $unwind$AcpiPsGetDepthNext 000000018007b85c     pstree.obj
 0002:0002286c       $unwind$AcpiPsCreateScopeOp 000000018007b86c     psutils.obj
 0002:00022874       $unwind$AcpiPsInitOp       000000018007b874     psutils.obj
 0002:00022880       $unwind$AcpiPsAllocOp      000000018007b880     psutils.obj
 0002:00022894       $unwind$AcpiPsFreeOp       000000018007b894     psutils.obj
 0002:0002289c       $unwind$AcpiPsDeleteParseTree 000000018007b89c     pswalk.obj
 0002:000228b4       $unwind$AcpiDebugTrace     000000018007b8b4     psxface.obj
 0002:000228c8       $unwind$AcpiPsExecuteMethod 000000018007b8c8     psxface.obj
 0002:000228e4       $unwind$AcpiPsExecuteTable 000000018007b8e4     psxface.obj
 0002:000228f8       $unwind$AcpiRsSetAddressCommon 000000018007b8f8     rsaddr.obj
 0002:00022904       $unwind$AcpiRsGetAddressCommon 000000018007b904     rsaddr.obj
 0002:00022910       $unwind$AcpiRsGetListLength 000000018007b910     rscalc.obj
 0002:0002292c       $unwind$AcpiRsGetAmlLength 000000018007b92c     rscalc.obj
 0002:00022948       $unwind$AcpiRsGetPciRoutingTableLength 000000018007b948     rscalc.obj
 0002:00022960       $unwind$AcpiBufferToResource 000000018007b960     rscreate.obj
 0002:00022978       $unwind$AcpiRsCreateResourceList 000000018007b978     rscreate.obj
 0002:00022990       $unwind$AcpiRsCreateAmlResources 000000018007b990     rscreate.obj
 0002:000229a8       $unwind$AcpiRsCreatePciRoutingTable 000000018007b9a8     rscreate.obj
 0002:000229c4       $unwind$AcpiRsDumpResourceList 000000018007b9c4     rsdump.obj
 0002:000229d8       $unwind$AcpiRsDumpIrqList  000000018007b9d8     rsdump.obj
 0002:000229e4       $unwind$AcpiRsDumpByteList 000000018007b9e4     rsdump.obj
 0002:000229e4       $unwind$intgr2bcd          000000018007b9e4     toroC64:_cdeCoreVwxPrintf.obj
 0002:000229f8       $unwind$AcpiRsDumpDwordList 000000018007b9f8     rsdump.obj
 0002:00022a08       $unwind$AcpiRsConvertAmlToResources 000000018007ba08     rslist.obj
 0002:00022a24       $unwind$AcpiRsConvertResourcesToAml 000000018007ba24     rslist.obj
 0002:00022a40       $unwind$AcpiRsConvertAmlToResource 000000018007ba40     rsmisc.obj
 0002:00022a5c       $unwind$AcpiRsConvertResourceToAml 000000018007ba5c     rsmisc.obj
 0002:00022a78       $unwind$AcpiRsGetPrtMethodData 000000018007ba78     rsutils.obj
 0002:00022a84       $unwind$AcpiRsGetCrsMethodData 000000018007ba84     rsutils.obj
 0002:00022a90       $unwind$AcpiRsGetPrsMethodData 000000018007ba90     rsutils.obj
 0002:00022a9c       $unwind$AcpiRsGetMethodData 000000018007ba9c     rsutils.obj
 0002:00022aac       $unwind$AcpiRsSetSrsMethodData 000000018007baac     rsutils.obj
 0002:00022ac4       $unwind$AcpiRsGetAeiMethodData 000000018007bac4     rsutils.obj
 0002:00022ad0       $unwind$AcpiRsMoveData     000000018007bad0     rsutils.obj
 0002:00022ae4       $unwind$AcpiRsDecodeBitmask 000000018007bae4     rsutils.obj
 0002:00022af0       $unwind$AcpiRsEncodeBitmask 000000018007baf0     rsutils.obj
 0002:00022afc       $unwind$AcpiRsGetResourceSource 000000018007bafc     rsutils.obj
 0002:00022b10       $unwind$AcpiRsSetResourceSource 000000018007bb10     rsutils.obj
 0002:00022b24       $unwind$AcpiRsSetResourceHeader 000000018007bb24     rsutils.obj
 0002:00022b34       $unwind$AcpiRsSetResourceLength 000000018007bb34     rsutils.obj
 0002:00022b40       $unwind$AcpiGetVendorResource 000000018007bb40     rsxface.obj
 0002:00022b48       $unwind$AcpiGetCurrentResources 000000018007bb48     rsxface.obj
 0002:00022b54       $unwind$AcpiGetPossibleResources 000000018007bb54     rsxface.obj
 0002:00022b60       $unwind$AcpiGetEventResources 000000018007bb60     rsxface.obj
 0002:00022b6c       $unwind$AcpiWalkResourceBuffer 000000018007bb6c     rsxface.obj
 0002:00022b84       $unwind$AcpiWalkResources  000000018007bb84     rsxface.obj
 0002:00022b9c       $unwind$AcpiSetCurrentResources 000000018007bb9c     rsxface.obj
 0002:00022ba8       $unwind$AcpiGetIrqRoutingTable 000000018007bba8     rsxface.obj
 0002:00022bb4       $unwind$AcpiResourceToAddress64 000000018007bbb4     rsxface.obj
 0002:00022bbc       $unwind$AcpiRsMatchVendorResource 000000018007bbbc     rsxface.obj
 0002:00022bcc       $unwind$AcpiRsValidateParameters 000000018007bbcc     rsxface.obj
 0002:00022bcc       $unwind$AcpiUtCopyEpackageToIpackage 000000018007bbcc     utcopy.obj
 0002:00022be8       $unwind$AcpiTbGetNextTableDescriptor 000000018007bbe8     tbdata.obj
 0002:00022bf4       $unwind$AcpiTbInitTableDescriptor 000000018007bbf4     tbdata.obj
 0002:00022c08       $unwind$AcpiTbAcquireTempTable 000000018007bc08     tbdata.obj
 0002:00022c20       $unwind$AcpiTbVerifyTempTable 000000018007bc20     tbdata.obj
 0002:00022c38       $unwind$AcpiTbIsTableLoaded 000000018007bc38     tbdata.obj
 0002:00022c44       $unwind$AcpiTbSetTableLoadedFlag 000000018007bc44     tbdata.obj
 0002:00022c50       $unwind$AcpiTbResizeRootTableList 000000018007bc50     tbdata.obj
 0002:00022c6c       $unwind$AcpiTbValidateTable 000000018007bc6c     tbdata.obj
 0002:00022c7c       $unwind$AcpiTbInvalidateTable 000000018007bc7c     tbdata.obj
 0002:00022c84       $unwind$AcpiTbAcquireTable 000000018007bc84     tbdata.obj
 0002:00022c98       $unwind$AcpiTbReleaseTable 000000018007bc98     tbdata.obj
 0002:00022ca0       $unwind$AcpiTbLoadTable    000000018007bca0     tbdata.obj
 0002:00022cb0       $unwind$AcpiTbInstallAndLoadTable 000000018007bcb0     tbdata.obj
 0002:00022cc4       $unwind$AcpiTbUnloadTable  000000018007bcc4     tbdata.obj
 0002:00022cd0       $unwind$AcpiTbNotifyTable  000000018007bcd0     tbdata.obj
 0002:00022cd8       $unwind$AcpiTbTerminate    000000018007bcd8     tbdata.obj
 0002:00022ce0       $unwind$AcpiTbDeleteNamespaceByOwner 000000018007bce0     tbdata.obj
 0002:00022cf8       $unwind$AcpiTbAllocateOwnerId 000000018007bcf8     tbdata.obj
 0002:00022d04       $unwind$AcpiTbReleaseOwnerId 000000018007bd04     tbdata.obj
 0002:00022d10       $unwind$AcpiTbGetOwnerId   000000018007bd10     tbdata.obj
 0002:00022d20       $unwind$AcpiTbCheckDuplication 000000018007bd20     tbdata.obj
 0002:00022d34       $unwind$AcpiTbCompareTables 000000018007bd34     tbdata.obj
 0002:00022d40       $unwind$AcpiTbParseFadt    000000018007bd40     tbfadt.obj
 0002:00022d4c       $unwind$AcpiTbCreateLocalFadt 000000018007bd4c     tbfadt.obj
 0002:00022d5c       $unwind$AcpiTbSetupFadtRegisters 000000018007bd5c     tbfadt.obj
 0002:00022d74       $unwind$AcpiTbFindTable    000000018007bd74     tbfind.obj
 0002:00022d90       $unwind$AcpiTbOverrideTable 000000018007bd90     tbinstal.obj
 0002:00022d9c       $unwind$AcpiTbInstallStandardTable 000000018007bd9c     tbinstal.obj
 0002:00022db4       $unwind$AcpiTbUninstallTable 000000018007bdb4     tbinstal.obj
 0002:00022dbc       $unwind$AcpiTbInstallTableWithOverride 000000018007bdbc     tbinstal.obj
 0002:00022dcc       $unwind$AcpiTbPrintTableHeader 000000018007bdcc     tbprint.obj
 0002:00022de0       $unwind$AcpiTbInitializeFacs 000000018007bde0     tbutils.obj
 0002:00022de8       $unwind$AcpiTbCheckDsdtHeader 000000018007bde8     tbutils.obj
 0002:00022df0       $unwind$AcpiTbCopyDsdt     000000018007bdf0     tbutils.obj
 0002:00022dfc       $unwind$AcpiTbParseRootTable 000000018007bdfc     tbutils.obj
 0002:00022e18       $unwind$AcpiTbGetTable     000000018007be18     tbutils.obj
 0002:00022e2c       $unwind$AcpiTbPutTable     000000018007be2c     tbutils.obj
 0002:00022e34       $unwind$AcpiInitializeTables 000000018007be34     tbxface.obj
 0002:00022e44       $unwind$AcpiReallocateRootTable 000000018007be44     tbxface.obj
 0002:00022e50       $unwind$AcpiGetTableHeader 000000018007be50     tbxface.obj
 0002:00022e60       $unwind$AcpiGetTable       000000018007be60     tbxface.obj
 0002:00022e78       $unwind$AcpiPutTable       000000018007be78     tbxface.obj
 0002:00022e84       $unwind$AcpiGetTableByIndex 000000018007be84     tbxface.obj
 0002:00022e90       $unwind$AcpiInstallTableHandler 000000018007be90     tbxface.obj
 0002:00022ea0       $unwind$AcpiRemoveTableHandler 000000018007bea0     tbxface.obj
 0002:00022eac       $unwind$AcpiInstallTable   000000018007beac     tbxfload.obj
 0002:00022eb4       $unwind$AcpiInstallPhysicalTable 000000018007beb4     tbxfload.obj
 0002:00022ebc       $unwind$AcpiLoadTable      000000018007bebc     tbxfload.obj
 0002:00022ec8       $unwind$AcpiUnloadTable    000000018007bec8     tbxfload.obj
 0002:00022ed4       $unwind$AcpiUnloadParentTable 000000018007bed4     tbxfload.obj
 0002:00022eec       $unwind$AcpiLoadTables     000000018007beec     tbxfload.obj
 0002:00022ef8       $unwind$AcpiTbLoadNamespace 000000018007bef8     tbxfload.obj
 0002:00022f14       $unwind$AcpiFindRootPointer 000000018007bf14     tbxfroot.obj
 0002:00022f30       $unwind$AcpiTbGetRsdpLength 000000018007bf30     tbxfroot.obj
 0002:00022f38       $unwind$AcpiTbValidateRsdp 000000018007bf38     tbxfroot.obj
 0002:00022f40       $unwind$AcpiTbScanMemoryForRsdp 000000018007bf40     tbxfroot.obj
 0002:00022f58       $unwind$AcpiUtAddAddressRange 000000018007bf58     utaddress.obj
 0002:00022f74       $unwind$AcpiUtRemoveAddressRange 000000018007bf74     utaddress.obj
 0002:00022f84       $unwind$AcpiUtCheckAddressRange 000000018007bf84     utaddress.obj
 0002:00022f9c       $unwind$AcpiUtDeleteAddressLists 000000018007bf9c     utaddress.obj
 0002:00022fac       $unwind$AcpiOsAllocateZeroed 000000018007bfac     utalloc.obj
 0002:00022fb8       $unwind$AcpiUtCreateCaches 000000018007bfb8     utalloc.obj
 0002:00022fc0       $unwind$AcpiUtDeleteCaches 000000018007bfc0     utalloc.obj
 0002:00022fc8       $unwind$AcpiUtInitializeBuffer 000000018007bfc8     utalloc.obj
 0002:00022fd4       $unwind$AcpiUtValidNameseg 000000018007bfd4     utascii.obj
 0002:00022fe0       $unwind$AcpiUtCheckAndRepairAscii 000000018007bfe0     utascii.obj
 0002:00022ff4       $unwind$AcpiUtDebugDumpBuffer 000000018007bff4     utbuffer.obj
 0002:00022ffc       $unwind$AcpiUtDumpBuffer   000000018007bffc     utbuffer.obj
 0002:00023018       $unwind$AcpiUtDumpBufferToFile 000000018007c018     utbuffer.obj
 0002:00023034       $unwind$AcpiOsCreateCache  000000018007c034     utcache.obj
 0002:0002304c       $unwind$AcpiOsDeleteCache  000000018007c04c     utcache.obj
 0002:00023054       $unwind$AcpiOsPurgeCache   000000018007c054     utcache.obj
 0002:00023060       $unwind$AcpiOsAcquireObject 000000018007c060     utcache.obj
 0002:00023078       $unwind$AcpiOsReleaseObject 000000018007c078     utcache.obj
 0002:00023088       $unwind$AcpiUtCopyIobjectToEobject 000000018007c088     utcopy.obj
 0002:00023094       $unwind$AcpiUtCopyEobjectToIobject 000000018007c094     utcopy.obj
 0002:000230a0       $unwind$AcpiUtCopyIobjectToIobject 000000018007c0a0     utcopy.obj
 0002:000230b0       $unwind$AcpiUtCopyIelementToIelement 000000018007c0b0     utcopy.obj
 0002:000230c8       $unwind$AcpiUtCopyIelementToEelement 000000018007c0c8     utcopy.obj
 0002:000230dc       $unwind$AcpiUtCopyEsimpleToIsimple 000000018007c0dc     utcopy.obj
 0002:000230dc       $unwind$AcpiUtCopyIsimpleToEsimple 000000018007c0dc     utcopy.obj
 0002:000230f4       $unwind$AcpiUtCopyIpackageToEpackage 000000018007c0f4     utcopy.obj
 0002:00023104       $unwind$AcpiDebugPrint     000000018007c104     utdebug.obj
 0002:00023114       $unwind$AcpiDebugPrintRaw  000000018007c114     utdebug.obj
 0002:0002311c       $unwind$AcpiTracePoint     000000018007c11c     utdebug.obj
 0002:00023130       $unwind$AcpiUtTrackStackPtr 000000018007c130     utdebug.obj
 0002:00023138       $unwind$AcpiUtTrace        000000018007c138     utdebug.obj
 0002:0002314c       $unwind$AcpiUtTracePtr     000000018007c14c     utdebug.obj
 0002:00023160       $unwind$AcpiUtTraceU32     000000018007c160     utdebug.obj
 0002:00023174       $unwind$AcpiUtTraceStr     000000018007c174     utdebug.obj
 0002:00023188       $unwind$AcpiUtExit         000000018007c188     utdebug.obj
 0002:00023190       $unwind$AcpiUtStatusExit   000000018007c190     utdebug.obj
 0002:000231a4       $unwind$AcpiUtValueExit    000000018007c1a4     utdebug.obj
 0002:000231ac       $unwind$AcpiUtPtrExit      000000018007c1ac     utdebug.obj
 0002:000231b4       $unwind$AcpiUtStrExit      000000018007c1b4     utdebug.obj
 0002:000231bc       $unwind$AcpiUtGetNodeName  000000018007c1bc     utdecode.obj
 0002:000231c4       $unwind$AcpiUtGetObjectTypeName 000000018007c1c4     utdecode.obj
 0002:000231dc       $unwind$AcpiUtUpdateObjectReference 000000018007c1dc     utdelete.obj
 0002:000231f4       $unwind$AcpiUtAddReference 000000018007c1f4     utdelete.obj
 0002:000231fc       $unwind$AcpiUtRemoveReference 000000018007c1fc     utdelete.obj
 0002:00023204       $unwind$AcpiUtDeleteInternalObjectList 000000018007c204     utdelete.obj
 0002:00023210       $unwind$AcpiUtDeleteInternalObj 000000018007c210     utdelete.obj
 0002:0002322c       $unwind$AcpiUtUpdateRefCount 000000018007c22c     utdelete.obj
 0002:00023244       $unwind$AcpiUtPredefinedWarning 000000018007c244     uterror.obj
 0002:00023250       $unwind$AcpiUtPredefinedInfo 000000018007c250     uterror.obj
 0002:0002325c       $unwind$AcpiUtPredefinedBiosError 000000018007c25c     uterror.obj
 0002:00023268       $unwind$AcpiUtPrefixedNamespaceError 000000018007c268     uterror.obj
 0002:00023280       $unwind$AcpiUtMethodError  000000018007c280     uterror.obj
 0002:00023294       $unwind$AcpiUtEvaluateObject 000000018007c294     uteval.obj
 0002:000232b0       $unwind$AcpiUtEvaluateNumericObject 000000018007c2b0     uteval.obj
 0002:000232c0       $unwind$AcpiUtExecute_STA  000000018007c2c0     uteval.obj
 0002:000232d4       $unwind$AcpiUtExecutePowerMethods 000000018007c2d4     uteval.obj
 0002:000232ec       $unwind$AcpiFormatException 000000018007c2ec     utexcep.obj
 0002:000232f4       $unwind$AcpiUtValidateException 000000018007c2f4     utexcep.obj
 0002:000232fc       $unwind$AcpiUtHexToAsciiChar 000000018007c2fc     uthex.obj
 0002:00023304       $unwind$AcpiUtAsciiToHexByte 000000018007c304     uthex.obj
 0002:00023314       $unwind$AcpiUtExecute_HID  000000018007c314     utids.obj
 0002:00023328       $unwind$AcpiUtExecute_UID  000000018007c328     utids.obj
 0002:0002333c       $unwind$AcpiUtExecute_CID  000000018007c33c     utids.obj
 0002:00023354       $unwind$AcpiUtExecute_CLS  000000018007c354     utids.obj
 0002:00023364       $unwind$AcpiUtInitGlobals  000000018007c364     utinit.obj
 0002:00023370       $unwind$AcpiUtSubsystemShutdown 000000018007c370     utinit.obj
 0002:00023378       $unwind$AcpiUtCreateRwLock 000000018007c378     utlock.obj
 0002:00023380       $unwind$AcpiUtDeleteRwLock 000000018007c380     utlock.obj
 0002:00023388       $unwind$AcpiUtAcquireReadLock 000000018007c388     utlock.obj
 0002:00023394       $unwind$AcpiUtReleaseReadLock 000000018007c394     utlock.obj
 0002:0002339c       $unwind$AcpiUtDivide       000000018007c39c     utmath.obj
 0002:000233b0       $unwind$AcpiUtShortDivide  000000018007c3b0     utmath.obj
 0002:000233c4       $unwind$AcpiUtShortMultiply 000000018007c3c4     utmath.obj
 0002:000233d4       $unwind$AcpiUtShortShiftLeft 000000018007c3d4     utmath.obj
 0002:000233e4       $unwind$AcpiUtShortShiftRight 000000018007c3e4     utmath.obj
 0002:000233f4       $unwind$AcpiUtCreateUpdateStateAndPush 000000018007c3f4     utmisc.obj
 0002:00023404       $unwind$AcpiUtIsPciRootBridge 000000018007c404     utmisc.obj
 0002:0002340c       $unwind$AcpiUtIsAmlTable   000000018007c40c     utmisc.obj
 0002:00023414       $unwind$AcpiUtWalkPackageTree 000000018007c414     utmisc.obj
 0002:00023430       $unwind$AcpiUtDwordByteSwap 000000018007c430     utmisc.obj
 0002:00023438       $unwind$AcpiUtDisplayInitPathname 000000018007c438     utmisc.obj
 0002:00023448       $unwind$AcpiUtMutexInitialize 000000018007c448     utmutex.obj
 0002:00023460       $unwind$AcpiUtMutexTerminate 000000018007c460     utmutex.obj
 0002:00023468       $unwind$AcpiUtAcquireMutex 000000018007c468     utmutex.obj
 0002:00023480       $unwind$AcpiUtReleaseMutex 000000018007c480     utmutex.obj
 0002:00023494       $unwind$AcpiUtCreateMutex  000000018007c494     utmutex.obj
 0002:000234a4       $unwind$AcpiUtStrupr       000000018007c4a4     utnonansi.obj
 0002:000234ac       $unwind$AcpiUtStrlwr       000000018007c4ac     utnonansi.obj
 0002:000234b4       $unwind$AcpiUtStricmp      000000018007c4b4     utnonansi.obj
 0002:000234c4       $unwind$AcpiUtSafeStrcpy   000000018007c4c4     utnonansi.obj
 0002:000234d4       $unwind$AcpiUtSafeStrncpy  000000018007c4d4     utnonansi.obj
 0002:000234e0       $unwind$AcpiUtSafeStrcat   000000018007c4e0     utnonansi.obj
 0002:000234f4       $unwind$AcpiUtSafeStrncat  000000018007c4f4     utnonansi.obj
 0002:0002350c       $unwind$AcpiUtCreateInternalObjectDbg 000000018007c50c     utobject.obj
 0002:00023524       $unwind$AcpiUtAllocateObjectDescDbg 000000018007c524     utobject.obj
 0002:00023534       $unwind$AcpiUtDeleteObjectDesc 000000018007c534     utobject.obj
 0002:0002353c       $unwind$AcpiUtValidInternalObject 000000018007c53c     utobject.obj
 0002:00023544       $unwind$AcpiUtCreatePackageObject 000000018007c544     utobject.obj
 0002:00023558       $unwind$AcpiUtCreateIntegerObject 000000018007c558     utobject.obj
 0002:00023568       $unwind$AcpiUtCreateBufferObject 000000018007c568     utobject.obj
 0002:00023580       $unwind$AcpiUtCreateStringObject 000000018007c580     utobject.obj
 0002:00023594       $unwind$AcpiUtGetObjectSize 000000018007c594     utobject.obj
 0002:000235a0       $unwind$AcpiUtGetElementLength 000000018007c5a0     utobject.obj
 0002:000235a8       $unwind$AcpiUtInitializeInterfaces 000000018007c5a8     utosi.obj
 0002:000235b0       $unwind$AcpiUtInterfaceTerminate 000000018007c5b0     utosi.obj
 0002:000235b8       $unwind$AcpiUtInstallInterface 000000018007c5b8     utosi.obj
 0002:000235c4       $unwind$AcpiUtRemoveInterface 000000018007c5c4     utosi.obj
 0002:000235d4       $unwind$AcpiUtGetInterface 000000018007c5d4     utosi.obj
 0002:000235e0       $unwind$AcpiUtOsiImplementation 000000018007c5e0     utosi.obj
 0002:000235fc       $unwind$AcpiUtAllocateOwnerId 000000018007c5fc     utownerid.obj
 0002:00023614       $unwind$AcpiUtReleaseOwnerId 000000018007c614     utownerid.obj
 0002:0002362c       $unwind$AcpiUtMatchPredefinedMethod 000000018007c62c     utpredef.obj
 0002:00023634       $unwind$AcpiUtGetExpectedReturnTypes 000000018007c634     utpredef.obj
 0002:0002364c       $unwind$AcpiUtWalkAmlResources 000000018007c64c     utresrc.obj
 0002:00023668       $unwind$AcpiUtValidateResource 000000018007c668     utresrc.obj
 0002:00023684       $unwind$AcpiUtGetDescriptorLength 000000018007c684     utresrc.obj
 0002:00023690       $unwind$AcpiUtGetResourceLength 000000018007c690     utresrc.obj
 0002:00023698       $unwind$AcpiUtGetResourceHeaderLength 000000018007c698     utresrc.obj
 0002:000236a0       $unwind$AcpiUtGetResourceType 000000018007c6a0     utresrc.obj
 0002:000236a8       $unwind$AcpiUtGetResourceEndTag 000000018007c6a8     utresrc.obj
 0002:000236b4       $unwind$AcpiUtPushGenericState 000000018007c6b4     utstate.obj
 0002:000236c0       $unwind$AcpiUtPopGenericState 000000018007c6c0     utstate.obj
 0002:000236c8       $unwind$AcpiUtCreateGenericState 000000018007c6c8     utstate.obj
 0002:000236d0       $unwind$AcpiUtCreateThreadState 000000018007c6d0     utstate.obj
 0002:000236d8       $unwind$AcpiUtCreateUpdateState 000000018007c6d8     utstate.obj
 0002:000236e4       $unwind$AcpiUtCreatePkgState 000000018007c6e4     utstate.obj
 0002:000236f4       $unwind$AcpiUtCreateControlState 000000018007c6f4     utstate.obj
 0002:000236fc       $unwind$AcpiUtDeleteGenericState 000000018007c6fc     utstate.obj
 0002:00023704       $unwind$AcpiUtPrintString  000000018007c704     utstring.obj
 0002:00023718       $unwind$AcpiUtRepairName   000000018007c718     utstring.obj
 0002:00023730       $unwind$AcpiUtConvertOctalString 000000018007c730     utstrsuppt.obj
 0002:0002373c       $unwind$AcpiUtConvertDecimalString 000000018007c73c     utstrsuppt.obj
 0002:0002374c       $unwind$AcpiUtConvertHexString 000000018007c74c     utstrsuppt.obj
 0002:0002375c       $unwind$AcpiUtRemoveWhitespace 000000018007c75c     utstrsuppt.obj
 0002:00023764       $unwind$AcpiUtDetectHexPrefix 000000018007c764     utstrsuppt.obj
 0002:00023770       $unwind$AcpiUtRemoveHexPrefix 000000018007c770     utstrsuppt.obj
 0002:00023778       $unwind$AcpiUtStrtoul64    000000018007c778     utstrtoul64.obj
 0002:00023790       $unwind$AcpiUtExplicitStrtoul64 000000018007c790     utstrtoul64.obj
 0002:00023798       $unwind$AcpiUtImplicitStrtoul64 000000018007c798     utstrtoul64.obj
 0002:000237a0       $unwind$AcpiUtAllocateAndTrack 000000018007c7a0     uttrack.obj
 0002:000237b8       $unwind$AcpiUtAllocateZeroedAndTrack 000000018007c7b8     uttrack.obj
 0002:000237d0       $unwind$AcpiUtFreeAndTrack 000000018007c7d0     uttrack.obj
 0002:000237e8       $unwind$AcpiUtDumpAllocationInfo 000000018007c7e8     uttrack.obj
 0002:000237f0       $unwind$AcpiUtDumpAllocations 000000018007c7f0     uttrack.obj
 0002:0002380c       $unwind$AcpiUtCreateList   000000018007c80c     uttrack.obj
 0002:0002381c       $unwind$AcpiUtTrackAllocation 000000018007c81c     uttrack.obj
 0002:00023838       $unwind$AcpiUtConvertStringToUuid 000000018007c838     utuuid.obj
 0002:0002384c       $unwind$AcpiUtConvertUuidToString 000000018007c84c     utuuid.obj
 0002:00023860       $unwind$AcpiTerminate      000000018007c860     utxface.obj
 0002:00023868       $unwind$AcpiGetSystemInfo  000000018007c868     utxface.obj
 0002:00023878       $unwind$AcpiGetStatistics  000000018007c878     utxface.obj
 0002:00023880       $unwind$AcpiPurgeCachedObjects 000000018007c880     utxface.obj
 0002:00023888       $unwind$AcpiInstallInterface 000000018007c888     utxface.obj
 0002:00023894       $unwind$AcpiRemoveInterface 000000018007c894     utxface.obj
 0002:0002389c       $unwind$AcpiUpdateInterfaces 000000018007c89c     utxface.obj
 0002:000238a4       $unwind$AcpiCheckAddressRange 000000018007c8a4     utxface.obj
 0002:000238b8       $unwind$AcpiDecodePldBuffer 000000018007c8b8     utxface.obj
 0002:000238c8       $unwind$AcpiInstallInterfaceHandler 000000018007c8c8     utxface.obj
 0002:000238d4       $unwind$AcpiError          000000018007c8d4     utxferror.obj
 0002:000238e0       $unwind$AcpiException      000000018007c8e0     utxferror.obj
 0002:000238ec       $unwind$AcpiWarning        000000018007c8ec     utxferror.obj
 0002:000238f8       $unwind$AcpiInfo           000000018007c8f8     utxferror.obj
 0002:00023900       $unwind$AcpiBiosError      000000018007c900     utxferror.obj
 0002:0002390c       $unwind$AcpiBiosException  000000018007c90c     utxferror.obj
 0002:00023918       $unwind$AcpiBiosWarning    000000018007c918     utxferror.obj
 0002:00023924       $unwind$AcpiInitializeSubsystem 000000018007c924     utxfinit.obj
 0002:00023938       $unwind$AcpiEnableSubsystem 000000018007c938     utxfinit.obj
 0002:00023950       $unwind$AcpiInitializeObjects 000000018007c950     utxfinit.obj
 0002:00023958       $unwind$AcpiAcquireMutex   000000018007c958     utxfmutex.obj
 0002:00023960       $unwind$AcpiReleaseMutex   000000018007c960     utxfmutex.obj
 0002:00023968       $unwind$AcpiOsInitializeDebugger 000000018007c968     osgendbg.obj
 0002:00023974       $unwind$AcpiOsTerminateDebugger 000000018007c974     osgendbg.obj
 0002:0002397c       $unwind$AcpiOsWaitCommandReady 000000018007c97c     osgendbg.obj
 0002:00023984       $unwind$AcpiOsNotifyCommandComplete 000000018007c984     osgendbg.obj
 0002:0002398c       $unwind$AcpiOsOpenDirectory 000000018007c98c     oswindir.obj
 0002:000239a4       $unwind$AcpiOsGetNextFilename 000000018007c9a4     oswindir.obj
 0002:000239b0       $unwind$AcpiOsCloseDirectory 000000018007c9b0     oswindir.obj
 0002:000239b8       $unwind$AcpiOsInitialize   000000018007c9b8     oswinxf.obj
 0002:000239c0       $unwind$AcpiOsTableOverride 000000018007c9c0     oswinxf.obj
 0002:000239c8       $unwind$AcpiOsExecute      000000018007c9c8     oswinxf.obj
 0002:000239d0       $unwind$AcpiOsReadPort     000000018007c9d0     oswinxf.obj
 0002:000239d8       $unwind$AcpiOsWritePort    000000018007c9d8     oswinxf.obj
 0002:000239e0       $unwind$AcpiOsReadable     000000018007c9e0     oswinxf.obj
 0002:000239e8       $unwind$AcpiOsWritable     000000018007c9e8     oswinxf.obj
 0002:000239f0       $unwind$AcpiOsGetTimer     000000018007c9f0     oswinxf.obj
 0002:000239f8       $unwind$AcpiOsPrintf       000000018007c9f8     oswinxf.obj
 0002:00023a00       $unwind$AcpiOsVprintf      000000018007ca00     oswinxf.obj
 0002:00023a10       $unwind$AcpiOsGetLine      000000018007ca10     oswinxf.obj
 0002:00023a28       $unwind$AeSignalHandler    000000018007ca28     aeexception.obj
 0002:00023a30       $unwind$AeExceptionHandler 000000018007ca30     aeexception.obj
 0002:00023a4c       $unwind$AeTestBufferArgument 000000018007ca4c     aeexec.obj
 0002:00023a54       $unwind$AeSetupConfiguration 000000018007ca54     aeexec.obj
 0002:00023a5c       $unwind$ExecuteOSI         000000018007ca5c     aeexec.obj
 0002:00023a70       $unwind$AeGenericRegisters 000000018007ca70     aeexec.obj
 0002:00023a78       $unwind$AfInstallGpeBlock  000000018007ca78     aeexec.obj
 0002:00023a88       $unwind$AeInstallEarlyHandlers 000000018007ca88     aehandlers.obj
 0002:00023aa0       $unwind$AeInstallLateHandlers 000000018007caa0     aehandlers.obj
 0002:00023ab8       $unwind$AeGpeHandler       000000018007cab8     aehandlers.obj
 0002:00023ac0       $unwind$AeDeviceNotifyHandler 000000018007cac0     aehandlers.obj
 0002:00023ad0       $unwind$AeTableHandler     000000018007cad0     aehandlers.obj
 0002:00023adc       $unwind$AeAttachedDataHandler 000000018007cadc     aehandlers.obj
 0002:00023ae4       $unwind$AeAttachedDataHandler2 000000018007cae4     aehandlers.obj
 0002:00023aec       $unwind$AeInterfaceHandler 000000018007caec     aehandlers.obj
 0002:00023af4       $unwind$AeSciHandler       000000018007caf4     aehandlers.obj
 0002:00023afc       $unwind$AeSystemNotifyHandler 000000018007cafc     aehandlers.obj
 0002:00023b0c       $unwind$AeOpenInitializationFile 000000018007cb0c     aeinitfile.obj
 0002:00023b14       $unwind$AeProcessInitFile  000000018007cb14     aeinitfile.obj
 0002:00023b2c       $unwind$AeLookupInitFileEntry 000000018007cb2c     aeinitfile.obj
 0002:00023b48       $unwind$AeDisplayUnusedInitFileItems 000000018007cb48     aeinitfile.obj
 0002:00023b50       $unwind$AeDeleteInitFileList 000000018007cb50     aeinitfile.obj
 0002:00023b58       $unwind$AeInstallDeviceHandlers 000000018007cb58     aeinstall.obj
 0002:00023b60       $unwind$AeInstallRegionHandlers 000000018007cb60     aeinstall.obj
 0002:00023b74       $unwind$AeOverrideRegionHandlers 000000018007cb74     aeinstall.obj
 0002:00023b88       $unwind$AeInstallEcHandler 000000018007cb88     aeinstall.obj
 0002:00023b94       $unwind$AeInstallPciHandler 000000018007cb94     aeinstall.obj
 0002:00023ba0       $unwind$AeInstallGedHandler 000000018007cba0     aeinstall.obj
 0002:00023bac       $unwind$AeDoOptions        000000018007cbac     aemain.obj
 0002:00023bbc       $unwind$main               000000018007cbbc     aemain.obj
 0002:00023bcc       $unwind$AeRegionHandler    000000018007cbcc     aeregion.obj
 0002:00023be8       $unwind$AeBuildLocalTables 000000018007cbe8     aetables.obj
 0002:00023c04       $unwind$AeInstallTables    000000018007cc04     aetables.obj
 0002:00023c14       $unwind$AeLoadTables       000000018007cc14     aetables.obj
 0002:00023c1c       $unwind$AeMiscellaneousTests 000000018007cc1c     aetests.obj
 0002:00023c34       $unwind$AeGlobalAddressRangeCheck 000000018007cc34     aetests.obj
 0002:00023c44       $unwind$AcpiUtGenerateChecksum 000000018007cc44     utcksum.obj
 0002:00023c4c       $unwind$AcpiUtVerifyCdatChecksum 000000018007cc4c     utcksum.obj
 0002:00023c58       $unwind$AcpiUtVerifyChecksum 000000018007cc58     utcksum.obj
 0002:00023c60       $unwind$_w4uQueryPerformanceCounter 000000018007cc60     LibWin324UEFI:QueryPerformanceCounter.obj
 0002:00023c68       $unwind$QueryPerformanceFrequency4UEFI 000000018007cc68     LibWin324UEFI:QueryPerformanceFrequency.obj
 0002:00023c74       $unwind$_w4uQueryPerformanceFrequency 000000018007cc74     LibWin324UEFI:QueryPerformanceFrequency.obj
 0002:00023c7c       $unwind$GetTickCount644UEFI 000000018007cc7c     LibWin324UEFI:GetTickCount64.obj
 0002:00023c84       $unwind$Sleep4UEFI         000000018007cc84     LibWin324UEFI:Sleep.obj
 0002:00023c8c       $unwind$_w4uSleep          000000018007cc8c     LibWin324UEFI:Sleep.obj
 0002:00023c94       $unwind$__cdeGetAppIf      000000018007cc94     toroC64:osifUefiShellEntryPoint.obj
 0002:00023c9c       $unwind$_StdOutPutChar     000000018007cc9c     toroC64:osifUefiShellEntryPoint.obj
 0002:00023ca4       $unwind$_StdInGetChar      000000018007cca4     toroC64:osifUefiShellEntryPoint.obj
 0002:00023cac       $unwind$_MainEntryPointShell 000000018007ccac     toroC64:osifUefiShellEntryPoint.obj
 0002:00023cc8       $unwind$_errno             000000018007ccc8     toroC64:errno.obj
 0002:00023cd0       $unwind$isprint            000000018007ccd0     toroC64:isprint.obj
 0002:00023cd8       $unwind$__acrt_iob_func    000000018007ccd8     toroC64:__acrt_iob_func.obj
 0002:00023ce4       $unwind$fclose             000000018007cce4     toroC64:Fclose.obj
 0002:00023cfc       $unwind$fopen              000000018007ccfc     toroC64:Fopen.obj
 0002:00023d18       $unwind$fread              000000018007cd18     toroC64:Fread.obj
 0002:00023d2c       $unwind$fprintf            000000018007cd2c     toroC64:Fprintf.obj
 0002:00023d34       $unwind$strcmp             000000018007cd34     toroC64:StrCmp.obj
 0002:00023d40       $unwind$memcmp             000000018007cd40     toroC64:MemCmpCDEINTRINABI.obj
 0002:00023d50       $unwind$strchr             000000018007cd50     toroC64:StrChr.obj
 0002:00023d58       $unwind$strtoul            000000018007cd58     toroC64:strtoul.obj
 0002:00023d60       $unwind$strcpy             000000018007cd60     toroC64:StrCpy.obj
 0002:00023d6c       $unwind$isxdigit           000000018007cd6c     toroC64:isxdigit.obj
 0002:00023d74       $unwind$toupper            000000018007cd74     toroC64:toupper.obj
 0002:00023d7c       $unwind$memset             000000018007cd7c     toroC64:MemSetCDEINTRINABI.obj
 0002:00023d84       $unwind$strncmp            000000018007cd84     toroC64:StrNCmp.obj
 0002:00023d94       $unwind$tolower            000000018007cd94     toroC64:tolower.obj
 0002:00023d9c       $unwind$isalpha            000000018007cd9c     toroC64:isalpha.obj
 0002:00023da8       $unwind$strcat             000000018007cda8     toroC64:StrCat.obj
 0002:00023db4       $unwind$strncpy            000000018007cdb4     toroC64:StrNCpy.obj
 0002:00023dc4       $unwind$strncat            000000018007cdc4     toroC64:StrNCat.obj
 0002:00023dd8       $unwind$_findclose         000000018007cdd8     toroC64:_findclose.obj
 0002:00023de0       $unwind$_findfirst64i32    000000018007cde0     toroC64:_findfirst.obj
 0002:00023df8       $unwind$_findnext64i32     000000018007cdf8     toroC64:_findnext.obj
 0002:00023e14       $unwind$calloc             000000018007ce14     toroC64:Calloc.obj
 0002:00023e20       $unwind$free               000000018007ce20     toroC64:Free.obj
 0002:00023e28       $unwind$printf             000000018007ce28     toroC64:Printf.obj
 0002:00023e30       $unwind$getchar            000000018007ce30     toroC64:Getchar.obj
 0002:00023e38       $unwind$vfprintf           000000018007ce38     toroC64:Vfprintf.obj
 0002:00023e4c       $unwind$exit               000000018007ce4c     toroC64:exit.obj
 0002:00023e54       $unwind$fflush             000000018007ce54     toroC64:Fflush.obj
 0002:00023e5c       $unwind$signal             000000018007ce5c     toroC64:signal.obj
 0002:00023e6c       $unwind$fgets              000000018007ce6c     toroC64:Fgets.obj
 0002:00023e80       $unwind$rewind             000000018007ce80     toroC64:Rewind.obj
 0002:00023e88       $unwind$clock              000000018007ce88     toroC64:clock.obj
 0002:00023e94       $unwind$_CdeDbgPutChar     000000018007ce94     toroC64:_CdeDbgPutChar.obj
 0002:00023eb0       $unwind$_cdeCoreVwxPrintf  000000018007ceb0     toroC64:_cdeCoreVwxPrintf.obj
 0002:00023ed0       $unwind$str2dev            000000018007ced0     toroC64:_cdeCoreVwxPrintf.obj
 0002:00023ee8       $unwind$num2str            000000018007cee8     toroC64:_cdeCoreVwxPrintf.obj
 0002:00023f00       $unwind$nfill              000000018007cf00     toroC64:_cdeCoreVwxPrintf.obj
 0002:00023f18       $unwind$nprintfield        000000018007cf18     toroC64:_cdeCoreVwxPrintf.obj
 0002:00023f30       $unwind$str2num            000000018007cf30     toroC64:_cdeCoreVwxScanf.obj
 0002:00023f48       $unwind$_cdeCoreVwxScanf   000000018007cf48     toroC64:_cdeCoreVwxScanf.obj
 0002:00023f64       $unwind$_cdeCoreWcsStrTok  000000018007cf64     toroC64:_cdeCoreWcsStrTok.obj
 0002:00023f80       $unwind$_cdeWcsStrPbrkSpn  000000018007cf80     toroC64:_cdeWcsStrPbrkSpn.obj
 0002:00023f9c       $unwind$_cdeCoreMemRealloc 000000018007cf9c     toroC64:_cdeCoreMemRealloc.obj
 0002:00023fb8       $unwind$_cdeMemStrxCpy     000000018007cfb8     toroC64:_cdeMemStrxCpy.obj
 0002:00023fd0       $unwind$_cdeMemStrxCmp     000000018007cfd0     toroC64:_cdeMemStrxCmp.obj
 0002:00023fec       $unwind$_osifIbmAtGetTime  000000018007cfec     toroC64:osifIbmAtGetTime.obj
 0002:00023ff8       $unwind$_osifUefiShellGetTscPerSec 000000018007cff8     toroC64:osifUefiShellGetTscPerSec.obj
 0002:00024010       $unwind$_osifUefiShellMemAlloc 000000018007d010     toroC64:osifUefiShellMemAlloc.obj
 0002:00024018       $unwind$_osifUefiShellFileWrite 000000018007d018     toroC64:osifUefiShellFileWrite.obj
 0002:00024030       $unwind$_osifUefiShellFileRead 000000018007d030     toroC64:osifUefiShellFileRead.obj
 0002:00024044       $unwind$_osifUefiShellFileSetPos 000000018007d044     toroC64:osifUefiShellFileSetPos.obj
 0002:00024058       $unwind$efifopen           000000018007d058     toroC64:osifUefiShellFileOpen.obj
 0002:00024070       $unwind$__CdeFsEnum        000000018007d070     toroC64:osifUefiShellFileOpen.obj
 0002:00024084       $unwind$_osifUefiShellFileOpen 000000018007d084     toroC64:osifUefiShellFileOpen.obj
 0002:0002409c       $unwind$_osifUefiShellFileClose 000000018007d09c     toroC64:osifUefiShellFileClose.obj
 0002:000240ac       $unwind$_osifUefiShellFileDelete 000000018007d0ac     toroC64:osifUefiShellFileDelete.obj
 0002:000240b4       $unwind$_osifUefiShellFileRename 000000018007d0b4     toroC64:osifUefiShellFileRename.obj
 0002:000240d0       $unwind$_osifUefiShellFileFindAll 000000018007d0d0     toroC64:osifUefiShellFileFindAll.obj
 0002:000240e8       $unwind$_osifUefiShellFileGetStatus 000000018007d0e8     toroC64:osifUefiShellFileGetStatus.obj
 0002:000240fc       $unwind$_osifUefiShellDirectoryCreate 000000018007d0fc     toroC64:osifUefiShellDirectoryCreate.obj
 0002:00024110       $unwind$myEFI_FILE_WRITE   000000018007d110     toroC64:osifUefiShellCmdExec.obj
 0002:00024128       $unwind$_osifUefiShellCmdExec 000000018007d128     toroC64:osifUefiShellCmdExec.obj
 0002:0002413c       $unwind$_osifUefiShellGetEnv 000000018007d13c     toroC64:osifUefiShellGetEnv.obj
 0002:00024154       $unwind$_osifUefiShellGetDrvCwd 000000018007d154     toroC64:osifUefiShellGetDrvCwd.obj
 0002:00024160       $unwind$_cdeCoreFread      000000018007d160     toroC64:_cdeCoreFread.obj
 0002:00024178       $unwind$_cdeCoreFwrite     000000018007d178     toroC64:_cdeCoreFwrite.obj
 0002:00024190       $unwind$_cdeCoreFsetpos    000000018007d190     toroC64:_cdeCoreFsetpos.obj
 0002:000241a4       $unwind$_cdeCoreFflush     000000018007d1a4     toroC64:_cdeCoreFflush.obj
 0002:000241b4       $unwind$_CdeLocateProtocol 000000018007d1b4     toroC64:_CdeLocateProtocol.obj
 0002:000241bc       $unwind$_cdeStr2Argcv      000000018007d1bc     toroC64:_cdeStr2Argcv.obj
 0002:000241d4       $unwind$fcloseCDEABI       000000018007d1d4     toroC64:FcloseCDEABI.obj
 0002:000241ec       $unwind$fgetcCDEABI        000000018007d1ec     toroC64:FgetcCDEABI.obj
 0002:000241f4       $unwind$fwriteCDEABI       000000018007d1f4     toroC64:FwriteCDEABI.obj
 0002:00024208       $unwind$sprintfCDEABI      000000018007d208     toroC64:SprintfCDEABI.obj
 0002:00024210       $unwind$raiseCDEABI        000000018007d210     toroC64:raiseCDEABI.obj
 0002:0002421c       $unwind$strcmpCDEABI       000000018007d21c     toroC64:StrCmpCDEABI.obj
 0002:00024228       $unwind$fprintfCDEABI      000000018007d228     toroC64:FprintfCDEABI.obj
 0002:00024230       $unwind$isgraph            000000018007d230     toroC64:isgraph.obj
 0002:0002423c       $unwind$remove             000000018007d23c     toroC64:Remove.obj
 0002:00024250       $unwind$__cdeIsFilePointer 000000018007d250     toroC64:__cdeIsFilePointer.obj
 0002:00024264       $unwind$_stricmp           000000018007d264     toroC64:_StrICmp.obj
 0002:00024270       $unwind$_fseeki64          000000018007d270     toroC64:_Fseeki64.obj
 0002:00024284       $unwind$_ftelli64          000000018007d284     toroC64:_Ftelli64.obj
 0002:0002428c       $unwind$strpbrk            000000018007d28c     toroC64:StrPbrk.obj
 0002:00024298       $unwind$_cdeSscanf         000000018007d298     toroC64:_cdeSscanf.obj
 0002:000242a4       $unwind$abort              000000018007d2a4     toroC64:abort.obj
 0002:000242b0       $unwind$strrchr            000000018007d2b0     toroC64:StrRChr.obj
 0002:000242bc       $unwind$__cdeSplitSearchNameExt2Upcase 000000018007d2bc     toroC64:__cdeSplitSearchNameExt2Upcase.obj
 0002:000242d8       $unwind$strspn             000000018007d2d8     toroC64:StrSpn.obj
 0002:000242e4       $unwind$__cdeStrMatch      000000018007d2e4     toroC64:__cdeStrMatch.obj
 0002:000242fc       $unwind$realloc            000000018007d2fc     toroC64:Realloc.obj
 0002:00024308       $unwind$fgetc              000000018007d308     toroC64:Fgetc.obj
 0002:00024310       $unwind$fputc              000000018007d310     toroC64:Fputc.obj
 0002:00024318       $unwind$invalid_parameter_handler 000000018007d318     toroC64:_invalid_parameter_handler.obj
 0002:0002432c       $unwind$fsetpos            000000018007d32c     toroC64:Fsetpos.obj
 0002:00024338       $unwind$_cdeCoreSprintf    000000018007d338     toroC64:_cdeCoreSprintf.obj
 0002:00024340       $unwind$isxdigitCDEABI     000000018007d340     toroC64:isxdigitCDEABI.obj
 0002:00024348       $unwind$_cdeUMUL128        000000018007d348     toroC64:_cdeUMUL128.obj
 0002:00024350       $unwind$_mktime64CDEABI    000000018007d350     toroC64:mktimeCDEABI.obj
 0002:00024358       $unwind$_cdeGmltime        000000018007d358     toroC64:_cdeGmltime.obj
 0002:00024364       $unwind$__cdeOnErrSet_status 000000018007d364     toroC64:__cdeOnErrSet_status.obj
 0002:0002436c       $unwind$__cdeOffsetCdeFposType 000000018007d36c     toroC64:__cdeGetOffsetCdeFposType.obj
 0002:00024374       $unwind$__cdeBiasCdeFposType 000000018007d374     toroC64:__cdeGetBiasCdeFposType.obj
 0002:00024380       $unwind$wcschrCDEABI       000000018007d380     toroC64:WcsChrCDEABI.obj
 0002:00024388       $unwind$wcscatCDEABI       000000018007d388     toroC64:WcsCatCDEABI.obj
 0002:00024394       $unwind$wcscpyCDEABI       000000018007d394     toroC64:WcsCpyCDEABI.obj
 0002:000243a0       $unwind$wcsncmpCDEABI      000000018007d3a0     toroC64:WcsNCmpCDEABI.obj
 0002:000243b0       $unwind$wcsncpyCDEABI      000000018007d3b0     toroC64:WcsNCpyCDEABI.obj
 0002:000243c0       $unwind$wcstokCDEABI       000000018007d3c0     toroC64:WcsTokCDEABI.obj
 0002:000243d0       $unwind$_wcsicmpCDEABI     000000018007d3d0     toroC64:_WcsICmpCDEABI.obj
 0002:000243dc       $unwind$_stricmpCDEABI     000000018007d3dc     toroC64:_StrICmpCDEABI.obj
 0002:000243e8       $unwind$_CdeLocateHandleBuffer 000000018007d3e8     toroC64:_CdeLocateHandleBuffer.obj
 0002:000243f8       $unwind$_cdeConvertDevicePathToText 000000018007d3f8     toroC64:_cdeConvertDevicePathToText.obj
 0002:00024400       $unwind$_CdeGetMapFromDevicePath 000000018007d400     toroC64:_CdeGetMapFromDevicePath.obj
 0002:00024408       $unwind$_CdeGetCurDir      000000018007d408     toroC64:_CdeGetCurDir.obj
 0002:00024410       $unwind$wcsrchrCDEABI      000000018007d410     toroC64:WcsRChrCDEABI.obj
 0002:0002441c       $unwind$_errnoCDEABI       000000018007d41c     toroC64:errnoCDEABI.obj
 0002:00024424       $unwind$fopenCDEABI        000000018007d424     toroC64:FopenCDEABI.obj
 0002:00024440       $unwind$freadCDEABI        000000018007d440     toroC64:FreadCDEABI.obj
 0002:00024454       $unwind$strchrCDEABI       000000018007d454     toroC64:StrChrCDEABI.obj
 0002:0002445c       $unwind$reallocCDEABI      000000018007d45c     toroC64:ReallocCDEABI.obj
 0002:00024468       $unwind$wcstombsCDEABI     000000018007d468     toroC64:wcstombsCDEABI.obj
 0002:00024470       $unwind$abortCDEABI        000000018007d470     toroC64:abortCDEABI.obj
 0002:0002447c       $unwind$strncpyCDEABI      000000018007d47c     toroC64:StrNCpyCDEABI.obj
 0002:0002448c       $unwind$strncmpCDEABI      000000018007d48c     toroC64:StrNCmpCDEABI.obj
 0002:0002449c       $unwind$strcpyCDEABI       000000018007d49c     toroC64:StrCpyCDEABI.obj
 0002:000244a8       $unwind$strcatCDEABI       000000018007d4a8     toroC64:StrCatCDEABI.obj
 0002:000244b4       $unwind$strtolCDEABI       000000018007d4b4     toroC64:strtolCDEABI.obj
 0002:000244bc       $unwind$_strnicmpCDEABI    000000018007d4bc     toroC64:_StrNICmpCDEABI.obj
 0002:000244cc       $unwind$toupperCDEABI      000000018007d4cc     toroC64:toupperCDEABI.obj
 0002:000244d4       $unwind$_cdeEfiTime2TimeT  000000018007d4d4     toroC64:_cdeEfiTime2TimeT.obj
 0002:000244dc       $unwind$__cdeIsFilePointerCORE 000000018007d4dc     toroC64:__cdeIsFilePointerCORE.obj
 0002:000244f4       $unwind$__cderewindCORE    000000018007d4f4     toroC64:__cderewindCORE.obj
 0002:000244fc       $unwind$_cdeAbort          000000018007d4fc     toroC64:_cdeAbort.obj
 0002:00024504       $unwind$fflushCDEABI       000000018007d504     toroC64:FflushCDEABI.obj
 0002:0002450c       $unwind$removeCDEABI       000000018007d50c     toroC64:RemoveCDEABI.obj
 0002:00024520       $unwind$invalid_parameter_handler 000000018007d520     toroC64:_invalid_parameter_handlerCDEABI.obj
 0002:00024534       $unwind$vsnprintfCDEABI    000000018007d534     toroC64:VsnprintfCDEABI.obj
 0002:0002454c       $unwind$vfprintfCDEABI     000000018007d54c     toroC64:VfprintfCDEABI.obj
 0002:00024560       $unwind$isalnum            000000018007d560     toroC64:isalnum.obj
 0002:0002456c       $unwind$__cdeOnErrSet_errno 000000018007d56c     toroC64:__cdeOnErrSet_errno.obj
 0002:00024574       $unwind$fsetposCDEABI      000000018007d574     toroC64:FsetposCDEABI.obj
 0002:00024580       $unwind$fgetpos            000000018007d580     toroC64:Fgetpos.obj
 0002:00024594       $unwind$raise              000000018007d594     toroC64:raise.obj
 0002:000245a0       $unwind$strcspn            000000018007d5a0     toroC64:StrCSpn.obj
 0002:000245ac       $unwind$_strnicmp          000000018007d5ac     toroC64:_StrNICmp.obj
 0002:000245bc       $unwind$fwrite             000000018007d5bc     toroC64:Fwrite.obj
 0002:000245d0       $unwind$_cdeDay2Greg       000000018007d5d0     toroC64:_cdeDay2Greg.obj
 0002:000245dc       $unwind$_efierrno          000000018007d5dc     toroC64:_efierrno.obj
 0002:000245e4       $unwind$wcspbrkCDEABI      000000018007d5e4     toroC64:WcsPbrkCDEABI.obj
 0002:000245f0       $unwind$_cdePoolWcs2AppWcs 000000018007d5f0     toroC64:_CdePoolWcs2AppWcs.obj
 0002:00024600       $unwind$strpbrkCDEABI      000000018007d600     toroC64:StrPbrkCDEABI.obj
 0002:0002460c       $unwind$exitCDEABI         000000018007d60c     toroC64:exitCDEABI.obj
 0002:00024614       $unwind$__cdeOnErrSet_errnoCORE 000000018007d614     toroC64:__cdeOnErrSet_errnoCORE.obj
 0002:0002461c       $unwind$fputcCDEABI        000000018007d61c     toroC64:FputcCDEABI.obj
 0003:00000008       CurrentCharPtr             000000018007e008     getopt.obj
 0003:00000010       AcpiGbl_SpaceIdList        000000018007e010     dbdisply.obj
 0003:00000020       AcpiGbl_HandlerList        000000018007e020     dbdisply.obj
 0003:00000070       AcpiDbObjectTypes          000000018007e070     dbnames.obj
 0003:00000160       AcpiDbStatTypes            000000018007e160     dbstats.obj
 0003:000001a0       AcpiDbTestTypes            000000018007e1a0     dbtest.obj
 0003:000001b8       ReadMethodCode             000000018007e1b8     dbtest.obj
 0003:000001e8       WriteMethodCode            000000018007e1e8     dbtest.obj
 0003:00000220       AcpiGbl_DmResourceDispatch 000000018007e220     dmresrc.obj
 0003:00000340       AcpiDmAddressNames         000000018007e340     dmresrcl.obj
 0003:00000368       AcpiDmMemoryNames          000000018007e368     dmresrcl.obj
 0003:00000388       SerialBusResourceDispatch  000000018007e388     dmresrcl2.obj
 0003:00000480       AcpiGbl_OpTypeDispatch     000000018007e480     dswexec.obj
 0003:000004f0       AcpiExDumpInfo             000000018007e4f0     exdump.obj
 0003:000005e0       AcpiSleepDispatch          000000018007e5e0     hwxfsleep.obj
 0003:00000930       FadtInfoTable              000000018007e930     tbfadt.obj
 0003:000009b0       FadtPmInfoTable            000000018007e9b0     tbfadt.obj
 0003:000009f0       AcpiGbl_PreviousThreadId   000000018007e9f0     utdebug.obj
 0003:000009f8       AcpiGbl_FunctionEntryPrefix 000000018007e9f8     utdebug.obj
 0003:00000a00       AcpiGbl_FunctionExitPrefix 000000018007ea00     utdebug.obj
 0003:00000a70       AcpiGbl_EventTypes         000000018007ea70     utdecode.obj
 0003:00000aa0       AcpiGbl_NsTypeNames        000000018007eaa0     utdecode.obj
 0003:00000ba0       AcpiGbl_DescTypeNames      000000018007eba0     utdecode.obj
 0003:00000c20       AcpiGbl_RefClassNames      000000018007ec20     utdecode.obj
 0003:00000c58       AcpiGbl_MutexNames         000000018007ec58     utdecode.obj
 0003:00000c90       AcpiGbl_GenericNotify      000000018007ec90     utdecode.obj
 0003:00000d10       AcpiGbl_DeviceNotify       000000018007ed10     utdecode.obj
 0003:00000d38       AcpiGbl_ProcessorNotify    000000018007ed38     utdecode.obj
 0003:00000d60       AcpiGbl_ThermalNotify      000000018007ed60     utdecode.obj
 0003:00000d90       AcpiGbl_ArgumentType       000000018007ed90     utdecode.obj
 0003:00001030       AcpiDefaultSupportedInterfaces 000000018007f030     utosi.obj
 0003:000012e8       UtRtypeNames               000000018007f2e8     utpredef.obj
 0003:00001748       TableEvents                000000018007f748     aehandlers.obj
 0003:00001770       DefaultSpaceIdList         000000018007f770     aeinstall.obj
 0003:00001778       SpaceIdList                000000018007f778     aeinstall.obj
 0003:00001a80       LocalDsdtCode              000000018007fa80     aetables.obj
 0003:00001aa8       Ssdt1Code                  000000018007faa8     aetables.obj
 0003:00001ae8       Oem1Code                   000000018007fae8     aetables.obj
 0003:00001b20       OemxCode                   000000018007fb20     aetables.obj
 0003:00001bd0       MethodCode                 000000018007fbd0     aetables.obj
 0003:00001c60       gCdeSystemVolumes          000000018007fc60     toroC64:osifUefiShellEntryPoint.obj
 0003:00002b70       gCdeServicesShell          0000000180080b70     toroC64:osifUefiShellEntryPoint.obj
 0003:00003320       _gEfiStatusCodeRuntimeProtocolGuid 0000000180081320     toroC64:osifUefiShellEntryPoint.obj
 0003:00003330       ?EfiLoadedImageProtocolGuid@?1??_MainEntryPointShell@@9@9 0000000180081330     toroC64:osifUefiShellEntryPoint.obj
 0003:00003340       ?EfiShellParametersProtocolGuid@?L@??_MainEntryPointShell@@9@9 0000000180081340     toroC64:osifUefiShellEntryPoint.obj
 0003:00003350       ?EfiAcpi20TableGuid@?N@??_MainEntryPointShell@@9@9 0000000180081350     toroC64:osifUefiShellEntryPoint.obj
 0003:00003360       ?ROMPARM@?5??fopen@@9@9    0000000180081360     toroC64:Fopen.obj
 0003:00003364       ROMPARM                    0000000180081364     toroC64:StrCmp.obj
 0003:00003378       ROMPARM                    0000000180081378     toroC64:MemCmpCDEINTRINABI.obj
 0003:00003388       ROMPARM                    0000000180081388     toroC64:StrNCmp.obj
 0003:00003390       ?action@?4??_cdeCoreMemRealloc@@9@9 0000000180081390     toroC64:_cdeCoreMemRealloc.obj
 0003:000033a0       tblMode                    00000001800813a0     toroC64:osifUefiShellFileOpen.obj
 0003:000035a0       ?wcsSHELL@?1??myEFI_FILE_WRITE@@9@9 00000001800815a0     toroC64:osifUefiShellCmdExec.obj
 0003:000035d8       ?wcsMAP@?1??myEFI_FILE_WRITE@@9@9 00000001800815d8     toroC64:osifUefiShellCmdExec.obj
 0003:000035f8       ?wcsALIAS@?1??myEFI_FILE_WRITE@@9@9 00000001800815f8     toroC64:osifUefiShellCmdExec.obj
 0003:00003610       ?wcsBLK@?1??myEFI_FILE_WRITE@@9@9 0000000180081610     toroC64:osifUefiShellCmdExec.obj
 0003:00003628       ?wcsBLK2@?1??myEFI_FILE_WRITE@@9@9 0000000180081628     toroC64:osifUefiShellCmdExec.obj
 0003:00003638       ?wcsFS@?1??myEFI_FILE_WRITE@@9@9 0000000180081638     toroC64:osifUefiShellCmdExec.obj
 0003:00003650       ?wcsFS2@?1??myEFI_FILE_WRITE@@9@9 0000000180081650     toroC64:osifUefiShellCmdExec.obj
 0003:00003740       ROMPARM                    0000000180081740     toroC64:StrCmpCDEABI.obj
 0003:00003790       ROMPARM                    0000000180081790     toroC64:_StrICmp.obj
 0003:00003798       RomParm                    0000000180081798     toroC64:_cdeSscanf.obj
 0003:000037b0       ?sigorder@?1??_cdeSig2idx@@9@9 00000001800817b0     toroC64:_cdeSig2idx.obj
 0003:000037d0       ?RomParm@?1??_cdeCoreSprintf@@9@9 00000001800817d0     toroC64:_cdeCoreSprintf.obj
 0003:00003820       ROMPARM                    0000000180081820     toroC64:WcsNCmpCDEABI.obj
 0003:00003838       ROMPARM                    0000000180081838     toroC64:WcsTokCDEABI.obj
 0003:00003848       ROMPARM                    0000000180081848     toroC64:_WcsICmpCDEABI.obj
 0003:00003858       ROMPARM                    0000000180081858     toroC64:_StrICmpCDEABI.obj
 0003:000038b0       ?ROMPARM@?5??fopenCDEABI@@9@9 00000001800818b0     toroC64:FopenCDEABI.obj
 0003:00003900       ROMPARM                    0000000180081900     toroC64:StrNCmpCDEABI.obj
 0003:00003930       ROMPARM                    0000000180081930     toroC64:_StrNICmpCDEABI.obj
 0003:00003978       RomParm                    0000000180081978     toroC64:VsnprintfCDEABI.obj
 0003:00003998       ROMPARM                    0000000180081998     toroC64:_StrNICmp.obj
 0003:000039e8       AcpiDbTraceMethodName      00000001800819e8     dbcmds.obj
 0003:000039f0       AcpiGbl_DbMethodInfo       00000001800819f0     dbexec.obj
 0003:00003cd0       AcpiGbl_HistoryBuffer      0000000180081cd0     dbhistry.obj
 0003:00003f50       AcpiGbl_LoHistory          0000000180081f50     dbhistry.obj
 0003:00003f54       AcpiGbl_NumHistory         0000000180081f54     dbhistry.obj
 0003:00003f58       AcpiGbl_NextHistoryIndex   0000000180081f58     dbhistry.obj
 0003:00003f60       ReadHandle                 0000000180081f60     dbtest.obj
 0003:00003f68       WriteHandle                0000000180081f68     dbtest.obj
 0003:00003f70       ResourceName               0000000180081f70     dmresrc.obj
 0003:00003f74       ?_done@?3??AcpiExSystemDoStall@@9@9 0000000180081f74     exsystem.obj
 0003:00003f75       ?_done@?7??AcpiExSystemDoStall@@9@9 0000000180081f75     exsystem.obj
 0003:00003f78       AcpiGbl_TraceMethodObject  0000000180081f78     extrace.obj
 0003:00003fe8       AcpiGbl_DbCommandReady     0000000180081fe8     osgendbg.obj
 0003:00003ff0       AcpiGbl_DbCommandComplete  0000000180081ff0     osgendbg.obj
 0003:00003ff8       AcpiGbl_DbCommandSignalsInitialized 0000000180081ff8     osgendbg.obj
 0003:00004000       PkgArg                     0000000180082000     aeexec.obj
 0003:00004020       PkgElements                0000000180082020     aeexec.obj
 0003:000040a0       Pkg2Elements               00000001800820a0     aeexec.obj
 0003:00004118       Params                     0000000180082118     aeexec.obj
 0003:00004128       GenericRegister            0000000180082128     aeexec.obj
 0003:00004138       AeRegions                  0000000180082138     aehandlers.obj
 0003:00004150       LineBuffer                 0000000180082150     aeinitfile.obj
 0003:00004350       NameBuffer                 0000000180082350     aeinitfile.obj
 0003:00004550       InitFile                   0000000180082550     aeinitfile.obj
 0003:00004574       AcpiGbl_ExecutionMode      0000000180082574     aemain.obj
 0003:00004580       BatchBuffer                0000000180082580     aemain.obj
 0003:00004980       AeRegions                  0000000180082980     aeregion.obj
 0003:00004990       DsdtToInstallOverride      0000000180082990     aetables.obj
 0003:00004998       LocalRSDP                  0000000180082998     aetables.obj
 0003:000049c0       LocalFACS                  00000001800829c0     aetables.obj
 0003:00004a00       LocalTEST                  0000000180082a00     aetables.obj
 0003:00004a28       LocalBADTABLE              0000000180082a28     aetables.obj
 0003:00004a50       LocalFADT                  0000000180082a50     aetables.obj
 0003:00004b68       LocalXSDT                  0000000180082b68     aetables.obj
 0003:00004b70       _iob                       0000000180082b70     toroC64:osifUefiShellEntryPoint.obj
 0003:00006b70       ?DblData@?CA@??_cdeCoreVwxPrintf@@9@9 0000000180084b70     toroC64:_cdeCoreVwxPrintf.obj
 0003:00007100       ?wcBuffer@?1??_osifUefiShellFileWrite@@9@9 0000000180085100     toroC64:osifUefiShellFileWrite.obj
 0003:00007510       ?zBuf64k@?O@??_osifUefiShellFileWrite@@9@9 0000000180085510     toroC64:osifUefiShellFileWrite.obj
 0003:00017510       ?wcbuffer@?3??_osifUefiShellFileRead@@9@9 0000000180095510     toroC64:osifUefiShellFileRead.obj
 0003:00017910       ?wcsFilePath@?5??_osifUefiShellFileOpen@@9@9 0000000180095910     toroC64:osifUefiShellFileOpen.obj
 0003:00017b20       ?wcsFileName@?5??_osifUefiShellFileOpen@@9@9 0000000180095b20     toroC64:osifUefiShellFileOpen.obj
 0003:00017d28       ?wcsDrive@?5??_osifUefiShellFileOpen@@9@9 0000000180095d28     toroC64:osifUefiShellFileOpen.obj
 0003:00017d48       ?wcsDrive2@?5??_osifUefiShellFileOpen@@9@9 0000000180095d48     toroC64:osifUefiShellFileOpen.obj
 0003:00017d70       state                      0000000180095d70     toroC64:osifUefiShellCmdExec.obj
 0003:00017d80       ?wcsCommand@?1??_osifUefiShellCmdExec@@9@9 0000000180095d80     toroC64:osifUefiShellCmdExec.obj
 0003:00017f90       ?buffer@?1??_osifUefiShellGetEnv@@9@9 0000000180095f90     toroC64:osifUefiShellGetEnv.obj
